 uix86_new

 Timestamp is 68a5ba30 (Wed Aug 20 20:06:08 2025)

 Preferred load address is 40000000

 Start         Length     Name                   Class
 0001:00000000 0008bb10H .text$mn                CODE
 0001:0008bb10 00000f6dH .text$x                 CODE
 0002:00000000 00000174H .idata$5                DATA
 0002:00000174 0000000cH .00cfg                  DATA
 0002:00000180 00000004H .CRT$XCA                DATA
 0002:00000184 00000004H .CRT$XCZ                DATA
 0002:00000188 00000004H .CRT$XIA                DATA
 0002:0000018c 0000000cH .CRT$XIC                DATA
 0002:00000198 00000004H .CRT$XIZ                DATA
 0002:0000019c 00000004H .CRT$XPA                DATA
 0002:000001a0 00000008H .CRT$XPX                DATA
 0002:000001a8 00000004H .CRT$XPXA               DATA
 0002:000001ac 00000004H .CRT$XPZ                DATA
 0002:000001b0 00000004H .CRT$XTA                DATA
 0002:000001b4 0000000cH .CRT$XTZ                DATA
 0002:000001b8 00000000H .gfids$y                DATA
 0002:000001c0 0001c840H .rdata                  DATA
 0002:0001ca00 00000040H .rdata$CastGuardVftablesA DATA
 0002:0001ca40 00000040H .rdata$CastGuardVftablesC DATA
 0002:0001ca80 000002a0H .rdata$r                DATA
 0002:0001cd20 000001ecH .rdata$sxdata           DATA
 0002:0001cf0c 000000e4H .rdata$voltmd           DATA
 0002:0001cff0 0000038cH .rdata$zzzdbg           DATA
 0002:0001d37c 00000004H .rtc$IAA                DATA
 0002:0001d380 00000004H .rtc$IMZ                DATA
 0002:0001d384 00000004H .rtc$IZZ                DATA
 0002:0001d388 00000004H .rtc$TAA                DATA
 0002:0001d38c 00000004H .rtc$TMZ                DATA
 0002:0001d390 00000008H .rtc$TZZ                DATA
 0002:0001d398 00001b24H .xdata$x                DATA
 0002:0001eebc 00000000H .edata                  DATA
 0002:0001eebc 00000014H .idata$2                DATA
 0002:0001eed0 00000014H .idata$3                DATA
 0002:0001eee4 00000174H .idata$4                DATA
 0002:0001f058 000006b8H .idata$6                DATA
 0003:00000000 00000960H .data                   DATA
 0003:00000960 00000058H .data$r                 DATA
 0003:000009b8 000000b8H .data$rs                DATA
 0003:00000a70 00001254H .bss                    DATA
 0004:00000000 00000080H .fptable                DATA
 0005:00000000 00000060H .rsrc$01                DATA
 0005:00000060 00000180H .rsrc$02                DATA

  Address         Publics by Value              Rva+Base       Lib:Object

 0000:00000000       ___AbsoluteZero            00000000     <absolute>
 0000:00000000       ___arm64x_extra_rfe_table  00000000     <absolute>
 0000:00000000       ___arm64x_extra_rfe_table_size 00000000     <absolute>
 0000:00000000       ___arm64x_native_entrypoint 00000000     <absolute>
 0000:00000000       ___arm64x_redirection_metadata 00000000     <absolute>
 0000:00000000       ___arm64x_redirection_metadata_count 00000000     <absolute>
 0000:00000000       ___dynamic_value_reloc_table 00000000     <absolute>
 0000:00000000       ___enclave_config          00000000     <absolute>
 0000:00000000       ___guard_check_icall_a64n_fptr 00000000     <absolute>
 0000:00000000       ___guard_eh_cont_count     00000000     <absolute>
 0000:00000000       ___guard_eh_cont_table     00000000     <absolute>
 0000:00000000       ___guard_fids_count        00000000     <absolute>
 0000:00000000       ___guard_fids_table        00000000     <absolute>
 0000:00000000       ___guard_iat_count         00000000     <absolute>
 0000:00000000       ___guard_iat_table         00000000     <absolute>
 0000:00000000       ___guard_longjmp_count     00000000     <absolute>
 0000:00000000       ___guard_longjmp_table     00000000     <absolute>
 0000:00000000       ___hybrid_auxiliary_delayload_iat 00000000     <absolute>
 0000:00000000       ___hybrid_auxiliary_delayload_iat_copy 00000000     <absolute>
 0000:00000000       ___hybrid_auxiliary_iat    00000000     <absolute>
 0000:00000000       ___hybrid_auxiliary_iat_copy 00000000     <absolute>
 0000:00000000       ___hybrid_code_map         00000000     <absolute>
 0000:00000000       ___hybrid_code_map_count   00000000     <absolute>
 0000:00000000       ___hybrid_image_info_bitfield 00000000     <absolute>
 0000:00000000       ___x64_code_ranges_to_entry_points 00000000     <absolute>
 0000:00000000       ___x64_code_ranges_to_entry_points_count 00000000     <absolute>
 0000:00000000       __except_list              00000000     <absolute>
 0000:0000007b       ___safe_se_handler_count   0000007b     <absolute>
 0000:00000100       ___guard_flags             00000100     <absolute>
 0000:00000000       ___ImageBase               40000000     <linker-defined>
 0001:00000000       _PASSFLOAT                 40001000 f   ui_syscalls.obj
 0001:00000020       _dllEntry                  40001020 f   ui_syscalls.obj
 0001:00000040       _trap_Argc                 40001040 f   ui_syscalls.obj
 0001:00000080       _trap_Argv                 40001080 f   ui_syscalls.obj
 0001:000000d0       _trap_CIN_DrawCinematic    400010d0 f   ui_syscalls.obj
 0001:00000120       _trap_CIN_PlayCinematic    40001120 f   ui_syscalls.obj
 0001:00000180       _trap_CIN_RunCinematic     40001180 f   ui_syscalls.obj
 0001:000001d0       _trap_CIN_SetExtents       400011d0 f   ui_syscalls.obj
 0001:00000230       _trap_CIN_StopCinematic    40001230 f   ui_syscalls.obj
 0001:00000280       _trap_CM_LerpTag           40001280 f   ui_syscalls.obj
 0001:000002f0       _trap_Cmd_ExecuteText      400012f0 f   ui_syscalls.obj
 0001:00000340       _trap_Cvar_Create          40001340 f   ui_syscalls.obj
 0001:00000390       _trap_Cvar_InfoStringBuffer 40001390 f   ui_syscalls.obj
 0001:000003e0       _trap_Cvar_Register        400013e0 f   ui_syscalls.obj
 0001:00000430       _trap_Cvar_Reset           40001430 f   ui_syscalls.obj
 0001:00000480       _trap_Cvar_Set             40001480 f   ui_syscalls.obj
 0001:000004d0       _trap_Cvar_SetValue        400014d0 f   ui_syscalls.obj
 0001:00000530       _trap_Cvar_Update          40001530 f   ui_syscalls.obj
 0001:00000580       _trap_Cvar_VariableStringBuffer 40001580 f   ui_syscalls.obj
 0001:000005d0       _trap_Cvar_VariableValue   400015d0 f   ui_syscalls.obj
 0001:00000620       _trap_Error                40001620 f   ui_syscalls.obj
 0001:00000670       _trap_FS_FCloseFile        40001670 f   ui_syscalls.obj
 0001:000006c0       _trap_FS_FOpenFile         400016c0 f   ui_syscalls.obj
 0001:00000710       _trap_FS_GetFileList       40001710 f   ui_syscalls.obj
 0001:00000760       _trap_FS_Read              40001760 f   ui_syscalls.obj
 0001:000007b0       _trap_FS_Seek              400017b0 f   ui_syscalls.obj
 0001:00000800       _trap_FS_Write             40001800 f   ui_syscalls.obj
 0001:00000850       _trap_GetCDKey             40001850 f   ui_syscalls.obj
 0001:000008a0       _trap_GetClientState       400018a0 f   ui_syscalls.obj
 0001:000008f0       _trap_GetClipboardData     400018f0 f   ui_syscalls.obj
 0001:00000940       _trap_GetConfigString      40001940 f   ui_syscalls.obj
 0001:00000990       _trap_GetGlconfig          40001990 f   ui_syscalls.obj
 0001:000009e0       _trap_Key_ClearStates      400019e0 f   ui_syscalls.obj
 0001:00000a20       _trap_Key_GetBindingBuf    40001a20 f   ui_syscalls.obj
 0001:00000a70       _trap_Key_GetCatcher       40001a70 f   ui_syscalls.obj
 0001:00000ab0       _trap_Key_GetOverstrikeMode 40001ab0 f   ui_syscalls.obj
 0001:00000af0       _trap_Key_IsDown           40001af0 f   ui_syscalls.obj
 0001:00000b40       _trap_Key_KeynumToStringBuf 40001b40 f   ui_syscalls.obj
 0001:00000b90       _trap_Key_SetBinding       40001b90 f   ui_syscalls.obj
 0001:00000be0       _trap_Key_SetCatcher       40001be0 f   ui_syscalls.obj
 0001:00000c30       _trap_Key_SetOverstrikeMode 40001c30 f   ui_syscalls.obj
 0001:00000c80       _trap_LAN_AddServer        40001c80 f   ui_syscalls.obj
 0001:00000cd0       _trap_LAN_ClearPing        40001cd0 f   ui_syscalls.obj
 0001:00000d20       _trap_LAN_CompareServers   40001d20 f   ui_syscalls.obj
 0001:00000d80       _trap_LAN_GetPing          40001d80 f   ui_syscalls.obj
 0001:00000dd0       _trap_LAN_GetPingInfo      40001dd0 f   ui_syscalls.obj
 0001:00000e20       _trap_LAN_GetPingQueueCount 40001e20 f   ui_syscalls.obj
 0001:00000e60       _trap_LAN_GetServerAddressString 40001e60 f   ui_syscalls.obj
 0001:00000eb0       _trap_LAN_GetServerCount   40001eb0 f   ui_syscalls.obj
 0001:00000f00       _trap_LAN_GetServerInfo    40001f00 f   ui_syscalls.obj
 0001:00000f50       _trap_LAN_GetServerPing    40001f50 f   ui_syscalls.obj
 0001:00000fa0       _trap_LAN_LoadCachedServers 40001fa0 f   ui_syscalls.obj
 0001:00000fe0       _trap_LAN_MarkServerVisible 40001fe0 f   ui_syscalls.obj
 0001:00001030       _trap_LAN_RemoveServer     40002030 f   ui_syscalls.obj
 0001:00001080       _trap_LAN_ResetPings       40002080 f   ui_syscalls.obj
 0001:000010d0       _trap_LAN_SaveCachedServers 400020d0 f   ui_syscalls.obj
 0001:00001110       _trap_LAN_ServerIsVisible  40002110 f   ui_syscalls.obj
 0001:00001160       _trap_LAN_ServerStatus     40002160 f   ui_syscalls.obj
 0001:000011b0       _trap_LAN_UpdateVisiblePings 400021b0 f   ui_syscalls.obj
 0001:00001200       _trap_MemoryRemaining      40002200 f   ui_syscalls.obj
 0001:00001240       _trap_Milliseconds         40002240 f   ui_syscalls.obj
 0001:00001280       _trap_PC_AddGlobalDefine   40002280 f   ui_syscalls.obj
 0001:000012d0       _trap_PC_FreeSource        400022d0 f   ui_syscalls.obj
 0001:00001320       _trap_PC_LoadSource        40002320 f   ui_syscalls.obj
 0001:00001370       _trap_PC_ReadToken         40002370 f   ui_syscalls.obj
 0001:000013c0       _trap_PC_SourceFileAndLine 400023c0 f   ui_syscalls.obj
 0001:00001410       _trap_Print                40002410 f   ui_syscalls.obj
 0001:00001460       _trap_R_AddLightToScene    40002460 f   ui_syscalls.obj
 0001:00001500       _trap_R_AddPolyToScene     40002500 f   ui_syscalls.obj
 0001:00001550       _trap_R_AddRefEntityToScene 40002550 f   ui_syscalls.obj
 0001:000015a0       _trap_R_ClearScene         400025a0 f   ui_syscalls.obj
 0001:000015e0       _trap_R_DrawStretchPic     400025e0 f   ui_syscalls.obj
 0001:000016d0       _trap_R_ModelBounds        400026d0 f   ui_syscalls.obj
 0001:00001720       _trap_R_RegisterFont       40002720 f   ui_syscalls.obj
 0001:00001770       _trap_R_RegisterModel      40002770 f   ui_syscalls.obj
 0001:000017c0       _trap_R_RegisterShaderNoMip 400027c0 f   ui_syscalls.obj
 0001:00001810       _trap_R_RegisterSkin       40002810 f   ui_syscalls.obj
 0001:00001860       _trap_R_RemapShader        40002860 f   ui_syscalls.obj
 0001:000018b0       _trap_R_RenderScene        400028b0 f   ui_syscalls.obj
 0001:00001900       _trap_R_SetColor           40002900 f   ui_syscalls.obj
 0001:00001950       _trap_RealTime             40002950 f   ui_syscalls.obj
 0001:000019a0       _trap_S_RegisterSound      400029a0 f   ui_syscalls.obj
 0001:000019f0       _trap_S_StartBackgroundTrack 400029f0 f   ui_syscalls.obj
 0001:00001a40       _trap_S_StartLocalSound    40002a40 f   ui_syscalls.obj
 0001:00001a90       _trap_S_StopBackgroundTrack 40002a90 f   ui_syscalls.obj
 0001:00001ad0       _trap_SetCDKey             40002ad0 f   ui_syscalls.obj
 0001:00001b20       _trap_SetPbClStatus        40002b20 f   ui_syscalls.obj
 0001:00001b70       _trap_UpdateScreen         40002b70 f   ui_syscalls.obj
 0001:00001bb0       _trap_VerifyCDKey          40002bb0 f   ui_syscalls.obj
 0001:00001c00       @_RTC_AllocaHelper@12      40002c00 f   LIBCMTD:stack.obj
 0001:00001c40       @_RTC_CheckStackVars2@12   40002c40 f   LIBCMTD:stack.obj
 0001:00001d20       @_RTC_CheckStackVars@8     40002d20 f   LIBCMTD:stack.obj
 0001:00001d80       __RTC_CheckEsp             40002d80 f   LIBCMTD:stack.obj
 0001:00001db0       __CRT_RTC_INIT             40002db0 f   LIBCMTD:init.obj
 0001:00001dc0       __CRT_RTC_INITW            40002dc0 f   LIBCMTD:init.obj
 0001:00001dd0       __RTC_InitBase             40002dd0 f   LIBCMTD:init.obj
 0001:00001e00       __RTC_Shutdown             40002e00 f   LIBCMTD:init.obj
 0001:000022f0       __CRT_INIT@12              400032f0 f   LIBCMTD:dll_dllmain.obj
 0001:00002310       __DllMainCRTStartup@12     40003310 f   LIBCMTD:dll_dllmain.obj
 0001:000023d0       ?_RTC_AllocaFailure@@YAXPAXPAU_RTC_ALLOCA_NODE@@H@Z 400033d0 f   LIBCMTD:error.obj
 0001:000024c0       ?_RTC_Failure@@YAXPAXH@Z   400034c0 f   LIBCMTD:error.obj
 0001:00002510       ?_RTC_StackFailure@@YAXPAXPBD@Z 40003510 f   LIBCMTD:error.obj
 0001:00002910       __RTC_UninitUse            40003910 f   LIBCMTD:error.obj
 0001:000029c0       ___local_stdio_printf_options 400039c0 f i LIBCMTD:error.obj
 0001:000029d0       __vsprintf_s_l             400039d0 f i LIBCMTD:error.obj
 0001:00002a00       _sprintf_s                 40003a00 f i LIBCMTD:error.obj
 0001:00002a20       ?_RTC_GetErrorFunc@@YAP6AHHPBDH00ZZPBX@Z 40003a20 f   LIBCMTD:userapi.obj
 0001:00002a30       ?_RTC_GetErrorFuncW@@YAP6AHHPB_WH00ZZPBX@Z 40003a30 f   LIBCMTD:userapi.obj
 0001:00002a40       __RTC_GetErrDesc           40003a40 f   LIBCMTD:userapi.obj
 0001:00002a60       __RTC_NumErrors            40003a60 f   LIBCMTD:userapi.obj
 0001:00002a70       __RTC_SetErrorFunc         40003a70 f   LIBCMTD:userapi.obj
 0001:00002a90       __RTC_SetErrorFuncW        40003a90 f   LIBCMTD:userapi.obj
 0001:00002ab0       __RTC_SetErrorType         40003ab0 f   LIBCMTD:userapi.obj
 0001:00002b50       ___security_init_cookie    40003b50 f   LIBCMTD:gs_support.obj
 0001:00002bd0       _DllMain@12                40003bd0 f   LIBCMTD:dll_dllmain_stub.obj
 0001:00002be0       ?__scrt_initialize_type_info@@YAXXZ 40003be0 f   LIBCMTD:tncleanup.obj
 0001:00002c00       ?__scrt_uninitialize_type_info@@YAXXZ 40003c00 f   LIBCMTD:tncleanup.obj
 0001:00002c20       ___local_stdio_scanf_options 40003c20 f i LIBCMTD:default_local_stdio_options.obj
 0001:00002c30       ___scrt_initialize_default_local_stdio_options 40003c30 f   LIBCMTD:default_local_stdio_options.obj
 0001:00002c70       ?configure_argv@__scrt_narrow_argv_policy@@SAHXZ 40003c70 f i LIBCMTD:utility.obj
 0001:00002d20       ?initialize_environment@__scrt_narrow_environment_policy@@SAHXZ 40003d20 f i LIBCMTD:utility.obj
 0001:00002da0       _NtCurrentTeb              40003da0 f i LIBCMTD:utility.obj
 0001:00002db0       ___scrt_acquire_startup_lock 40003db0 f   LIBCMTD:utility.obj
 0001:00002e00       ___scrt_dllmain_after_initialize_c 40003e00 f   LIBCMTD:utility.obj
 0001:00002e30       ___scrt_dllmain_before_initialize_c 40003e30 f   LIBCMTD:utility.obj
 0001:00002e50       ___scrt_dllmain_crt_thread_attach 40003e50 f   LIBCMTD:utility.obj
 0001:00002e80       ___scrt_dllmain_crt_thread_detach 40003e80 f   LIBCMTD:utility.obj
 0001:00002ea0       ___scrt_dllmain_exception_filter 40003ea0 f   LIBCMTD:utility.obj
 0001:00002ef0       ___scrt_dllmain_uninitialize_c 40003ef0 f   LIBCMTD:utility.obj
 0001:00002f20       ___scrt_dllmain_uninitialize_critical 40003f20 f   LIBCMTD:utility.obj
 0001:00002f40       ___scrt_initialize_crt     40003f40 f   LIBCMTD:utility.obj
 0001:00002f90       ___scrt_initialize_onexit_tables 40003f90 f   LIBCMTD:utility.obj
 0001:00003070       ___scrt_is_nonwritable_in_current_image 40004070 f   LIBCMTD:utility.obj
 0001:000031a0       ___scrt_release_startup_lock 400041a0 f   LIBCMTD:utility.obj
 0001:000031d0       ___scrt_uninitialize_crt   400041d0 f   LIBCMTD:utility.obj
 0001:00003210       __onexit                   40004210 f   LIBCMTD:utility.obj
 0001:00003280       _at_quick_exit             40004280 f   LIBCMTD:utility.obj
 0001:000032c0       _atexit                    400042c0 f   LIBCMTD:utility.obj
 0001:000032f0       ___scrt_get_dyn_tls_init_callback 400042f0 f   LIBCMTD:dyn_tls_init.obj
 0001:00003300       ___scrt_fastfail           40004300 f   LIBCMTD:utility_desktop.obj
 0001:00003440       ___scrt_get_show_window_mode 40004440 f   LIBCMTD:utility_desktop.obj
 0001:00003480       ___scrt_initialize_mta     40004480 f   LIBCMTD:utility_desktop.obj
 0001:00003490       ___scrt_initialize_winrt   40004490 f   LIBCMTD:utility_desktop.obj
 0001:000034a0       ___scrt_is_managed_app     400044a0 f   LIBCMTD:utility_desktop.obj
 0001:00003530       ___scrt_set_unhandled_exception_filter 40004530 f   LIBCMTD:utility_desktop.obj
 0001:00003550       ___scrt_exe_initialize_mta 40004550 f   LIBCMTD:utility_desktop.obj
 0001:00003550       ___scrt_stub_for_initialize_mta 40004550 f   LIBCMTD:utility_desktop.obj
 0001:00003560       ___scrt_unhandled_exception_filter@4 40004560 f   LIBCMTD:utility_desktop.obj
 0001:000035e0       __crt_debugger_hook        400045e0 f   LIBCMTD:utility_desktop.obj
 0001:000035f0       __RTC_Initialize           400045f0 f   LIBCMTD:initsect.obj
 0001:00003620       __RTC_Terminate            40004620 f   LIBCMTD:initsect.obj
 0001:00003650       @_guard_check_icall_nop@4  40004650 f i LIBCMTD:guard_support.obj
 0001:00003660       _ReadNoFence               40004660 f i LIBCMTD:guard_support.obj
 0001:00003680       _ReadPointerNoFence        40004680 f i LIBCMTD:guard_support.obj
 0001:000036a0       __InlineInterlockedExchangePointer 400046a0 f i LIBCMTD:guard_support.obj
 0001:000036b0       ___castguard_check_failure_debugbreak 400046b0 f i LIBCMTD:guard_support.obj
 0001:000036d0       ___castguard_check_failure_fastfail 400046d0 f i LIBCMTD:guard_support.obj
 0001:000036f0       ___castguard_check_failure_nop 400046f0 f i LIBCMTD:guard_support.obj
 0001:00003700       ___castguard_check_failure_os_handled 40004700 f i LIBCMTD:guard_support.obj
 0001:00003760       ___castguard_check_failure_user_handled 40004760 f i LIBCMTD:guard_support.obj
 0001:00003810       ___castguard_set_user_handler 40004810 f i LIBCMTD:guard_support.obj
 0001:00003830       ___castguard_slow_path_check_debugbreak 40004830 f i LIBCMTD:guard_support.obj
 0001:00003860       ___castguard_slow_path_check_fastfail 40004860 f i LIBCMTD:guard_support.obj
 0001:000038a0       ___castguard_slow_path_check_nop 400048a0 f i LIBCMTD:guard_support.obj
 0001:000038b0       ___castguard_slow_path_check_os_handled 400048b0 f i LIBCMTD:guard_support.obj
 0001:000038f0       ___castguard_slow_path_check_user_handled 400048f0 f i LIBCMTD:guard_support.obj
 0001:00003970       __guard_icall_checks_enforced 40004970 f i LIBCMTD:guard_support.obj
 0001:00003df0       ?_RTC_GetSrcLine@@YAHPAEPA_WKPAH1K@Z 40004df0 f   LIBCMTD:pdblkup.obj
 0001:00004170       @__security_check_cookie@4 40005170 f   LIBCMTD:secchk.obj
 0001:00004180       __except_handler4_noexcept 40005180 f   LIBCMTD:chandler4_noexcept.obj
 0001:000041e0       ___isa_available_init      400051e0 f   LIBCMTD:cpu_disp.obj
 0001:00004680       __get_startup_argv_mode    40005680 f   LIBCMTD:argv_mode.obj
 0001:00004690       ___scrt_is_ucrt_dll_in_use 40005690 f   LIBCMTD:ucrt_detection.obj
 0001:000046c0       ___raise_securityfailure   400056c0 f   LIBCMTD:gs_report.obj
 0001:000046f0       ___report_gsfailure        400056f0 f   LIBCMTD:gs_report.obj
 0001:00004800       ___report_rangecheckfailure 40005800 f   LIBCMTD:gs_report.obj
 0001:00004810       ___report_securityfailure  40005810 f   LIBCMTD:gs_report.obj
 0001:000048f0       ___report_securityfailureEx 400058f0 f   LIBCMTD:gs_report.obj
 0001:00004a80       __except_handler4          40005a80 f   libvcruntimed:chandler4.obj
 0001:00004cb0       ??$?RD@__crt_internal_free_policy@@QBEXQBD@Z 40005cb0 f i libvcruntimed:std_type_info.obj
 0001:00004cd0       ??$?RX@__crt_internal_free_policy@@QBEXQBX@Z 40005cd0 f i libvcruntimed:std_type_info.obj
 0001:00004cf0       ??$__crt_interlocked_compare_exchange_pointer@$$CBDPAD$$T@@YAPBDPDSBDQAD$$T@Z 40005cf0 f i libvcruntimed:std_type_info.obj
 0001:00004d10       ??$__crt_interlocked_read_pointer@$$CBD@@YAPBDPDSBD@Z 40005d10 f i libvcruntimed:std_type_info.obj
 0001:00004d30       ??0?$__crt_unique_heap_ptr@DU__crt_internal_free_policy@@@@QAE@QAD@Z 40005d30 f i libvcruntimed:std_type_info.obj
 0001:00004d50       ??0?$__crt_unique_heap_ptr@XU__crt_internal_free_policy@@@@QAE@QAX@Z 40005d50 f i libvcruntimed:std_type_info.obj
 0001:00004d70       ??1?$__crt_unique_heap_ptr@DU__crt_internal_free_policy@@@@QAE@XZ 40005d70 f i libvcruntimed:std_type_info.obj
 0001:00004d90       ??1?$__crt_unique_heap_ptr@XU__crt_internal_free_policy@@@@QAE@XZ 40005d90 f i libvcruntimed:std_type_info.obj
 0001:00004db0       ??B?$__crt_unique_heap_ptr@DU__crt_internal_free_policy@@@@QBE_NXZ 40005db0 f i libvcruntimed:std_type_info.obj
 0001:00004dd0       ??B?$__crt_unique_heap_ptr@XU__crt_internal_free_policy@@@@QBE_NXZ 40005dd0 f i libvcruntimed:std_type_info.obj
 0001:00004e40       ?__crt_interlocked_read_32@@YAHPDH@Z 40005e40 f i libvcruntimed:std_type_info.obj
 0001:00004e60       ?detach@?$__crt_unique_heap_ptr@XU__crt_internal_free_policy@@@@QAEPAXXZ 40005e60 f i libvcruntimed:std_type_info.obj
 0001:00004e90       ?get@?$__crt_unique_heap_ptr@DU__crt_internal_free_policy@@@@QBEPADXZ 40005e90 f i libvcruntimed:std_type_info.obj
 0001:00004ea0       ?get@?$__crt_unique_heap_ptr@XU__crt_internal_free_policy@@@@QBEPAXXZ 40005ea0 f i libvcruntimed:std_type_info.obj
 0001:00004eb0       ?is_valid@?$__crt_unique_heap_ptr@DU__crt_internal_free_policy@@@@QBE_NXZ 40005eb0 f i libvcruntimed:std_type_info.obj
 0001:00004ee0       ?is_valid@?$__crt_unique_heap_ptr@XU__crt_internal_free_policy@@@@QBE_NXZ 40005ee0 f i libvcruntimed:std_type_info.obj
 0001:00004f10       ?release@?$__crt_unique_heap_ptr@DU__crt_internal_free_policy@@@@QAEXXZ 40005f10 f i libvcruntimed:std_type_info.obj
 0001:00004f40       ?release@?$__crt_unique_heap_ptr@XU__crt_internal_free_policy@@@@QAEXXZ 40005f40 f i libvcruntimed:std_type_info.obj
 0001:00004f70       ___std_type_info_compare   40005f70 f   libvcruntimed:std_type_info.obj
 0001:00004fa0       ___std_type_info_destroy_list 40005fa0 f   libvcruntimed:std_type_info.obj
 0001:00004fe0       ___std_type_info_hash      40005fe0 f   libvcruntimed:std_type_info.obj
 0001:00005040       ___std_type_info_name      40006040 f   libvcruntimed:std_type_info.obj
 0001:00005210       ___vcrt_initialize         40006210 f   libvcruntimed:initialization.obj
 0001:00005250       ___vcrt_thread_attach      40006250 f   libvcruntimed:initialization.obj
 0001:00005270       ___vcrt_thread_detach      40006270 f   libvcruntimed:initialization.obj
 0001:00005280       ___vcrt_uninitialize       40006280 f   libvcruntimed:initialization.obj
 0001:000052a0       ___vcrt_uninitialize_critical 400062a0 f   libvcruntimed:initialization.obj
 0001:000052c0       ___DestructExceptionObject 400062c0 f   libvcruntimed:ehhelpers.obj
 0001:000053e0       ?_CallMemberFunction0@@YGXQAX0@Z 400063e0 f i libvcruntimed:ehhelpers.obj
 0001:00005480       ?raw_name@type_info@@QBEPBDXZ 40006480 f i libvcruntimed:ehhelpers.obj
 0001:000054a0       __IsExceptionObjectToBeDestroyed 400064a0 f   libvcruntimed:ehhelpers.obj
 0001:000054e0       __SetWinRTOutOfMemoryExceptionCallback 400064e0 f   libvcruntimed:ehhelpers.obj
 0001:000054f0       ___AdjustPointer           400064f0 f   libvcruntimed:ehhelpers.obj
 0001:00005540       ___FrameUnwindFilter       40006540 f   libvcruntimed:ehhelpers.obj
 0001:000055d0       ___GetPlatformExceptionInfo 400065d0 f   libvcruntimed:ehhelpers.obj
 0001:00005650       ___current_exception       40006650 f   libvcruntimed:ehhelpers.obj
 0001:00005660       ___current_exception_context 40006660 f   libvcruntimed:ehhelpers.obj
 0001:00005670       ___processing_throw        40006670 f   libvcruntimed:ehhelpers.obj
 0001:00005680       ___std_terminate           40006680 f   libvcruntimed:ehhelpers.obj
 0001:00005690       __is_exception_typeof      40006690 f   libvcruntimed:ehhelpers.obj
 0001:00005770       _memset                    40006770 f   libvcruntimed:memset.obj
 0001:000058d0       ___vcrt_GetModuleFileNameW 400068d0 f   libvcruntimed:winapi_thunks.obj
 0001:000058f0       ___vcrt_GetModuleHandleW   400068f0 f   libvcruntimed:winapi_thunks.obj
 0001:00005900       ___vcrt_LoadLibraryExW     40006900 f   libvcruntimed:winapi_thunks.obj
 0001:00005920       __local_unwind4            40006920 f   libvcruntimed:exsup4.obj
 0001:00005a10       __seh_longjmp_unwind4@4    40006a10 f   libvcruntimed:exsup4.obj
 0001:00005a40       @_EH4_CallFilterFunc@8     40006a40 f   libvcruntimed:exsup4.obj
 0001:00005a60       @_EH4_TransferToHandler@8  40006a60 f   libvcruntimed:exsup4.obj
 0001:00005a80       @_EH4_GlobalUnwind2@8      40006a80 f   libvcruntimed:exsup4.obj
 0001:00005aa0       @_EH4_LocalUnwind@16       40006aa0 f   libvcruntimed:exsup4.obj
 0001:00005ad0       ___except_validate_context_record 40006ad0 f   libvcruntimed:jbcxrval.obj
 0001:00005b20       ___except_validate_jump_buffer 40006b20 f   libvcruntimed:jbcxrval.obj
 0001:00005b40       ___except_validate_jump_buffer_common 40006b40 f i libvcruntimed:jbcxrval.obj
 0001:00005ba0       ??$?0$00@DName@@QAE@PAVUnDecorator@@PBDU?$StringLifeSelector@$00@@@Z 40006ba0 f i libvcruntimed:undname.obj
 0001:00005c00       ??$?0$00@pcharNode@@QAE@PBDHU?$StringLifeSelector@$00@@AAV_HeapManager@@@Z 40006c00 f i libvcruntimed:undname.obj
 0001:00005c40       ??$?0$01@DName@@QAE@PAVUnDecorator@@PBDU?$StringLifeSelector@$01@@@Z 40006c40 f i libvcruntimed:undname.obj
 0001:00005ca0       ??$?0$01@pcharNode@@QAE@PBDHU?$StringLifeSelector@$01@@AAV_HeapManager@@@Z 40006ca0 f i libvcruntimed:undname.obj
 0001:00005d20       ??$?0$0A@@DName@@QAE@PAVUnDecorator@@PBDU?$StringLifeSelector@$0A@@@@Z 40006d20 f i libvcruntimed:undname.obj
 0001:00005d80       ??$?0$0A@@pcharNode@@QAE@PBDHU?$StringLifeSelector@$0A@@@AAV_HeapManager@@@Z 40006d80 f i libvcruntimed:undname.obj
 0001:00005e00       ??$?0_K$0A@@?$optional@_K@std@@QAE@$$QA_K@Z 40006e00 f i libvcruntimed:undname.obj
 0001:00005e30       ??$?0_K@?$_Optional_construct_base@_K@std@@QAE@Uin_place_t@1@$$QA_K@Z 40006e30 f i libvcruntimed:undname.obj
 0001:00005e60       ??$?0_K@?$_Optional_destruct_base@_K$00@std@@QAE@Uin_place_t@1@$$QA_K@Z 40006e60 f i libvcruntimed:undname.obj
 0001:00005e90       ??$append@VDNameNode@@@DName@@AAEXPBVDNameNode@@@Z 40006e90 f i libvcruntimed:undname.obj
 0001:00005f20       ??$append@VDNameStatusNode@@@DName@@AAEXPBVDNameStatusNode@@@Z 40006f20 f i libvcruntimed:undname.obj
 0001:00005fb0       ??$append@VcharNode@@@DName@@AAEXPBVcharNode@@@Z 40006fb0 f i libvcruntimed:undname.obj
 0001:00006040       ??$append@VpDNameNode@@@DName@@AAEXPBVpDNameNode@@@Z 40007040 f i libvcruntimed:undname.obj
 0001:000060d0       ??$append@VpcharNode@@@DName@@AAEXPBVpcharNode@@@Z 400070d0 f i libvcruntimed:undname.obj
 0001:00006160       ??$doPchar@$00@DName@@AAEXPBDH@Z 40007160 f i libvcruntimed:undname.obj
 0001:000062a0       ??$doPchar@$01@DName@@AAEXPBDH@Z 400072a0 f i libvcruntimed:undname.obj
 0001:000063e0       ??$doPchar@$0A@@DName@@AAEXPBDH@Z 400073e0 f i libvcruntimed:undname.obj
 0001:00006660       ??0?$_Optional_construct_base@_K@std@@QAE@XZ 40007660 f i libvcruntimed:undname.obj
 0001:00006680       ??0?$_Optional_destruct_base@_K$00@std@@QAE@XZ 40007680 f i libvcruntimed:undname.obj
 0001:000066a0       ??0?$optional@_K@std@@QAE@XZ 400076a0 f i libvcruntimed:undname.obj
 0001:000066c0       ??0Block@_HeapManager@@QAE@XZ 400076c0 f i libvcruntimed:undname.obj
 0001:000066e0       ??0DName@@QAE@ABV0@@Z      400076e0 f i libvcruntimed:undname.obj
 0001:00006720       ??0DName@@QAE@PAVUnDecorator@@@Z 40007720 f i libvcruntimed:undname.obj
 0001:00006750       ??0DName@@QAE@PAVUnDecorator@@AAPBDD@Z 40007750 f   libvcruntimed:undname.obj
 0001:000068d0       ??0DName@@QAE@PAVUnDecorator@@ABUStringLiteral@@@Z 400078d0 f   libvcruntimed:undname.obj
 0001:00006920       ??0DName@@QAE@PAVUnDecorator@@D@Z 40007920 f   libvcruntimed:undname.obj
 0001:00006960       ??0DName@@QAE@PAVUnDecorator@@PAV0@@Z 40007960 f   libvcruntimed:undname.obj
 0001:00006a20       ??0DName@@QAE@PAVUnDecorator@@W4DNameStatus@@@Z 40007a20 f   libvcruntimed:undname.obj
 0001:00006ac0       ??0DName@@QAE@PAVUnDecorator@@_J@Z 40007ac0 f   libvcruntimed:undname.obj
 0001:00006bb0       ??0DName@@QAE@PAVUnDecorator@@_K@Z 40007bb0 f   libvcruntimed:undname.obj
 0001:00006c60       ??0DNameNode@@IAE@XZ       40007c60 f i libvcruntimed:undname.obj
 0001:00006c80       ??0Replicator@@QAE@PAVUnDecorator@@@Z 40007c80 f i libvcruntimed:undname.obj
 0001:00006d00       ??0UnDecorator@@QAE@PBDP6APADJ@ZKP6APAXI@ZP6AXPAX@Z@Z 40007d00 f i libvcruntimed:undname.obj
 0001:00006e30       ??0_HeapManager@@QAE@P6APAXI@ZP6AXPAX@Z@Z 40007e30 f i libvcruntimed:undname.obj
 0001:00006e70       ??0_Nontrivial_dummy_type@std@@QAE@XZ 40007e70 f i libvcruntimed:undname.obj
 0001:00006e80       ??0charNode@@QAE@D@Z       40007e80 f i libvcruntimed:undname.obj
 0001:00006eb0       ??0pDNameNode@@QAE@PAVDName@@@Z 40007eb0 f   libvcruntimed:undname.obj
 0001:00006f10       ??0pairNode@@QAE@PBVDNameNode@@0@Z 40007f10 f i libvcruntimed:undname.obj
 0001:00006f70       ??2@YAPAXIAAV_HeapManager@@H@Z 40007f70 f   libvcruntimed:undname.obj
 0001:00006fb0       ??4DName@@QAEAAV0@ABUStringLiteral@@@Z 40007fb0 f   libvcruntimed:undname.obj
 0001:00006ff0       ??4DName@@QAEAAV0@ABV0@@Z  40007ff0 f   libvcruntimed:undname.obj
 0001:00007020       ??4DName@@QAEAAV0@D@Z      40008020 f i libvcruntimed:undname.obj
 0001:00007050       ??4DName@@QAEAAV0@PAV0@@Z  40008050 f   libvcruntimed:undname.obj
 0001:000070f0       ??4DName@@QAEAAV0@W4DNameStatus@@@Z 400080f0 f   libvcruntimed:undname.obj
 0001:00007170       ??AReplicator@@QBE?AVDName@@H@Z 40008170 f   libvcruntimed:undname.obj
 0001:000071f0       ??B?$optional@_K@std@@QBE_NXZ 400081f0 f i libvcruntimed:undname.obj
 0001:00007210       ??D?$_Optional_construct_base@_K@std@@QGAEAA_KXZ 40008210 f i libvcruntimed:undname.obj
 0001:00007260       ??H@YA?AVDName@@ABUStringLiteral@@ABV0@@Z 40008260 f i libvcruntimed:undname.obj
 0001:000072a0       ??H@YA?AVDName@@DABV0@@Z   400082a0 f i libvcruntimed:undname.obj
 0001:000072e0       ??H@YA?AVDName@@W4DNameStatus@@ABV0@@Z 400082e0 f i libvcruntimed:undname.obj
 0001:00007320       ??HDName@@QBE?AV0@ABUStringLiteral@@@Z 40008320 f   libvcruntimed:undname.obj
 0001:00007350       ??HDName@@QBE?AV0@ABV0@@Z  40008350 f   libvcruntimed:undname.obj
 0001:00007380       ??HDName@@QBE?AV0@D@Z      40008380 f   libvcruntimed:undname.obj
 0001:000073b0       ??HDName@@QBE?AV0@PAV0@@Z  400083b0 f   libvcruntimed:undname.obj
 0001:000073e0       ??HDName@@QBE?AV0@W4DNameStatus@@@Z 400083e0 f   libvcruntimed:undname.obj
 0001:00007410       ??HStringLiteral@@QBE?AU0@H@Z 40008410 f i libvcruntimed:undname.obj
 0001:00007440       ??YDName@@QAEAAV0@ABUStringLiteral@@@Z 40008440 f   libvcruntimed:undname.obj
 0001:00007510       ??YDName@@QAEAAV0@ABV0@@Z  40008510 f   libvcruntimed:undname.obj
 0001:000075b0       ??YDName@@QAEAAV0@D@Z      400085b0 f   libvcruntimed:undname.obj
 0001:00007640       ??YDName@@QAEAAV0@PAV0@@Z  40008640 f   libvcruntimed:undname.obj
 0001:00007700       ??YDName@@QAEAAV0@W4DNameStatus@@@Z 40008700 f   libvcruntimed:undname.obj
 0001:00007770       ??YReplicator@@QAEAAV0@ABVDName@@@Z 40008770 f   libvcruntimed:undname.obj
 0001:00007800       ??_5DName@@QAEAAV0@ABV0@@Z 40008800 f   libvcruntimed:undname.obj
 0001:00007860       ??__K_l@@YA?AUStringLiteral@@PBDI@Z 40008860 f i libvcruntimed:undname.obj
 0001:00007880       ?Destructor@UnDecorator@@QAEXXZ 40008880 f i libvcruntimed:undname.obj
 0001:000078a0       ?Destructor@_HeapManager@@QAEXXZ 400088a0 f i libvcruntimed:undname.obj
 0001:00007910       ?UScore@UnDecorator@@QAE?AUStringLiteral@@W4Tokens@@@Z 40008910 f   libvcruntimed:undname.obj
 0001:00007970       ?composeDeclaration@UnDecorator@@AAE?AVDName@@ABV2@@Z 40008970 f i libvcruntimed:undname.obj
 0001:000099c0       ?doAccessSpecifiers@UnDecorator@@QAEHXZ 4000a9c0 f i libvcruntimed:undname.obj
 0001:00009a00       ?doAllocationLanguage@UnDecorator@@QAEHXZ 4000aa00 f i libvcruntimed:undname.obj
 0001:00009a30       ?doAllocationModel@UnDecorator@@QAEHXZ 4000aa30 f i libvcruntimed:undname.obj
 0001:00009a60       ?doEcsu@UnDecorator@@QAEHXZ 4000aa60 f i libvcruntimed:undname.obj
 0001:00009aa0       ?doEllipsis@UnDecorator@@QAEHXZ 4000aaa0 f i libvcruntimed:undname.obj
 0001:00009ae0       ?doFunctionReturns@UnDecorator@@QAEHXZ 4000aae0 f i libvcruntimed:undname.obj
 0001:00009b10       ?doMSKeywords@UnDecorator@@QAEHXZ 4000ab10 f i libvcruntimed:undname.obj
 0001:00009b40       ?doMemberTypes@UnDecorator@@QAEHXZ 4000ab40 f i libvcruntimed:undname.obj
 0001:00009b80       ?doNameOnly@UnDecorator@@QAEHXZ 4000ab80 f i libvcruntimed:undname.obj
 0001:00009ba0       ?doNoIdentCharCheck@UnDecorator@@QAEHXZ 4000aba0 f i libvcruntimed:undname.obj
 0001:00009bc0       ?doPchar@DName@@AAEXD@Z    4000abc0 f   libvcruntimed:undname.obj
 0001:00009c40       ?doPtr64@UnDecorator@@QAEHXZ 4000ac40 f i libvcruntimed:undname.obj
 0001:00009c80       ?doRestrictionSpec@UnDecorator@@QAEHXZ 4000ac80 f i libvcruntimed:undname.obj
 0001:00009cc0       ?doThisTypes@UnDecorator@@QAEHXZ 4000acc0 f i libvcruntimed:undname.obj
 0001:00009d00       ?doThrowTypes@UnDecorator@@QAEHXZ 4000ad00 f i libvcruntimed:undname.obj
 0001:00009d40       ?doTypeOnly@UnDecorator@@QAEHXZ 4000ad40 f i libvcruntimed:undname.obj
 0001:00009d60       ?doUnderScore@UnDecorator@@QAEHXZ 4000ad60 f i libvcruntimed:undname.obj
 0001:00009d90       ?getAddressOf@UnDecorator@@AAE?AVDName@@XZ 4000ad90 f   libvcruntimed:undname.obj
 0001:00009e30       ?getArgumentList@UnDecorator@@AAE?AVDName@@XZ 4000ae30 f   libvcruntimed:undname.obj
 0001:00009fb0       ?getArgumentTypes@UnDecorator@@AAE?AVDName@@XZ 4000afb0 f   libvcruntimed:undname.obj
 0001:0000a190       ?getArrayAccess@UnDecorator@@AAE?AVDName@@XZ 4000b190 f   libvcruntimed:undname.obj
 0001:0000a240       ?getArrayObject@UnDecorator@@AAE?AVDName@@XZ 4000b240 f   libvcruntimed:undname.obj
 0001:0000a360       ?getArrayType@UnDecorator@@AAE?AVDName@@ABV2@@Z 4000b360 f i libvcruntimed:undname.obj
 0001:0000a630       ?getBasedType@UnDecorator@@AAE?AVDName@@XZ 4000b630 f   libvcruntimed:undname.obj
 0001:0000a760       ?getBasicDataType@UnDecorator@@AAE?AVDName@@ABV2@@Z 4000b760 f   libvcruntimed:undname.obj
 0001:0000b200       ?getCHPEName@UnDecorator@@QAEPADPADH@Z 4000c200 f i libvcruntimed:undname.obj
 0001:0000b390       ?getCallIndex@UnDecorator@@AAE?AVDName@@XZ 4000c390 f i libvcruntimed:undname.obj
 0001:0000b3b0       ?getCallingConvention@UnDecorator@@AAE?AVDName@@XZ 4000c3b0 f   libvcruntimed:undname.obj
 0001:0000b5e0       ?getDataIndirectType@UnDecorator@@AAE?AVDName@@ABV2@W4IndirectionKind@@0H@Z 4000c5e0 f   libvcruntimed:undname.obj
 0001:0000bf80       ?getDataIndirectType@UnDecorator@@AAE?AVDName@@XZ 4000cf80 f i libvcruntimed:undname.obj
 0001:0000bfd0       ?getDataType@UnDecorator@@AAE?AVDName@@PAV2@@Z 4000cfd0 f   libvcruntimed:undname.obj
 0001:0000c110       ?getDecoratedName@UnDecorator@@AAE?AVDName@@XZ 4000d110 f   libvcruntimed:undname.obj
 0001:0000c5b0       ?getDimension@UnDecorator@@AAE?AVDName@@_N@Z 4000d5b0 f   libvcruntimed:undname.obj
 0001:0000c820       ?getDispatchTarget@UnDecorator@@AAE?AVDName@@XZ 4000d820 f   libvcruntimed:undname.obj
 0001:0000c8d0       ?getDisplacement@UnDecorator@@AAE?AVDName@@XZ 4000d8d0 f i libvcruntimed:undname.obj
 0001:0000c8f0       ?getECSUDataType@UnDecorator@@AAE?AVDName@@XZ 4000d8f0 f   libvcruntimed:undname.obj
 0001:0000cc10       ?getECSUName@UnDecorator@@AAE?AVDName@@XZ 4000dc10 f i libvcruntimed:undname.obj
 0001:0000cc30       ?getEnumType@UnDecorator@@AAE?AVDName@@XZ 4000dc30 f i libvcruntimed:undname.obj
 0001:0000ce00       ?getExtendedDataIndirectType@UnDecorator@@AAE?AVDName@@AAW4IndirectionKind@@AA_NH@Z 4000de00 f   libvcruntimed:undname.obj
 0001:0000d0c0       ?getExternalDataType@UnDecorator@@AAE?AVDName@@ABV2@@Z 4000e0c0 f i libvcruntimed:undname.obj
 0001:0000d160       ?getFloatingPoint@UnDecorator@@AAE?AVDName@@H@Z 4000e160 f   libvcruntimed:undname.obj
 0001:0000d2c0       ?getFunctionIndirectType@UnDecorator@@AAE?AVDName@@ABV2@@Z 4000e2c0 f   libvcruntimed:undname.obj
 0001:0000d800       ?getGuardNumber@UnDecorator@@AAE?AVDName@@XZ 4000e800 f i libvcruntimed:undname.obj
 0001:0000d820       ?getHeap@UnDecorator@@QAEAAV_HeapManager@@XZ 4000e820 f i libvcruntimed:undname.obj
 0001:0000d840       ?getLastChar@DName@@QBEDXZ 4000e840 f i libvcruntimed:undname.obj
 0001:0000d880       ?getLastChar@DNameStatusNode@@UBEDXZ 4000e880 f i libvcruntimed:undname.obj
 0001:0000d8c0       ?getLastChar@charNode@@UBEDXZ 4000e8c0 f i libvcruntimed:undname.obj
 0001:0000d8e0       ?getLastChar@pDNameNode@@UBEDXZ 4000e8e0 f i libvcruntimed:undname.obj
 0001:0000d910       ?getLastChar@pairNode@@UBEDXZ 4000e910 f i libvcruntimed:undname.obj
 0001:0000d980       ?getLastChar@pcharNode@@UBEDXZ 4000e980 f i libvcruntimed:undname.obj
 0001:0000d9c0       ?getLexicalFrame@UnDecorator@@AAE?AVDName@@XZ 4000e9c0 f i libvcruntimed:undname.obj
 0001:0000da10       ?getMemberAccess@UnDecorator@@AAE?AVDName@@XZ 4000ea10 f   libvcruntimed:undname.obj
 0001:0000dab0       ?getMemoryWithBuffer@_HeapManager@@QAEPAXI@Z 4000eab0 f   libvcruntimed:undname.obj
 0001:0000dba0       ?getMemoryWithoutBuffer@_HeapManager@@QAEPAXI@Z 4000eba0 f   libvcruntimed:undname.obj
 0001:0000dbe0       ?getNoexcept@UnDecorator@@AAE?AVDName@@XZ 4000ebe0 f   libvcruntimed:undname.obj
 0001:0000dc60       ?getNumberOfDimensions@UnDecorator@@AAEHXZ 4000ec60 f   libvcruntimed:undname.obj
 0001:0000dd40       ?getOperatorName@UnDecorator@@AAE?AVDName@@_NPA_N@Z 4000ed40 f i libvcruntimed:undname.obj
 0001:0000e850       ?getPointerToMember@UnDecorator@@AAE?AVDName@@XZ 4000f850 f   libvcruntimed:undname.obj
 0001:0000e950       ?getPointerType@UnDecorator@@AAE?AVDName@@ABV2@0@Z 4000f950 f i libvcruntimed:undname.obj
 0001:0000e980       ?getPointerTypeArray@UnDecorator@@AAE?AVDName@@ABV2@0@Z 4000f980 f i libvcruntimed:undname.obj
 0001:0000e9b0       ?getPrimaryDataType@UnDecorator@@AAE?AVDName@@ABV2@@Z 4000f9b0 f   libvcruntimed:undname.obj
 0001:0000ee30       ?getPtrRefDataType@UnDecorator@@AAE?AVDName@@ABV2@H@Z 4000fe30 f   libvcruntimed:undname.obj
 0001:0000f100       ?getPtrRefType@UnDecorator@@AAE?AVDName@@ABV2@0W4IndirectionKind@@@Z 40010100 f   libvcruntimed:undname.obj
 0001:0000f2a0       ?getReferenceType@UnDecorator@@AAE?AVDName@@ABV2@0W4IndirectionKind@@@Z 400102a0 f i libvcruntimed:undname.obj
 0001:0000f2d0       ?getRestrictionSpec@UnDecorator@@AAE?AVDName@@XZ 400102d0 f   libvcruntimed:undname.obj
 0001:0000f490       ?getReturnType@UnDecorator@@AAE?AVDName@@PAV2@@Z 40010490 f   libvcruntimed:undname.obj
 0001:0000f4e0       ?getScope@UnDecorator@@AAE?AVDName@@XZ 400104e0 f   libvcruntimed:undname.obj
 0001:0000fa90       ?getScopedName@UnDecorator@@AAE?AVDName@@XZ 40010a90 f   libvcruntimed:undname.obj
 0001:0000fbf0       ?getSignedDimension@UnDecorator@@AAE?AVDName@@XZ 40010bf0 f   libvcruntimed:undname.obj
 0001:0000fc80       ?getStorageConvention@UnDecorator@@AAE?AVDName@@XZ 40010c80 f i libvcruntimed:undname.obj
 0001:0000fca0       ?getString@DName@@QBEPADPAD0@Z 40010ca0 f i libvcruntimed:undname.obj
 0001:0000fd00       ?getString@DName@@QBEPADPADH@Z 40010d00 f i libvcruntimed:undname.obj
 0001:0000fd90       ?getString@DNameStatusNode@@UBEPADPAD0@Z 40010d90 f i libvcruntimed:undname.obj
 0001:0000fdd0       ?getString@charNode@@UBEPADPAD0@Z 40010dd0 f i libvcruntimed:undname.obj
 0001:0000fe00       ?getString@pDNameNode@@UBEPADPAD0@Z 40010e00 f i libvcruntimed:undname.obj
 0001:0000fe40       ?getString@pairNode@@UBEPADPAD0@Z 40010e40 f i libvcruntimed:undname.obj
 0001:0000fed0       ?getString@pcharNode@@UBEPADPAD0@Z 40010ed0 f i libvcruntimed:undname.obj
 0001:0000ff00       ?getStringEncoding@UnDecorator@@AAE?AVDName@@W4PrefixKind@@H@Z 40010f00 f   libvcruntimed:undname.obj
 0001:00010020       ?getStringHelper@@YAPADPADPBD1H@Z 40011020 f i libvcruntimed:undname.obj
 0001:00010060       ?getStringObject@UnDecorator@@AAE?AVDName@@XZ 40011060 f   libvcruntimed:undname.obj
 0001:00010110       ?getSymbolName@UnDecorator@@AAE?AVDName@@XZ 40011110 f i libvcruntimed:undname.obj
 0001:000101a0       ?getTemplateArgumentList@UnDecorator@@AAE?AVDName@@XZ 400111a0 f   libvcruntimed:undname.obj
 0001:000104b0       ?getTemplateName@UnDecorator@@AAE?AVDName@@_N@Z 400114b0 f   libvcruntimed:undname.obj
 0001:00010690       ?getTemplateNonTypeArgument@UnDecorator@@AAE?AVDName@@XZ 40011690 f   libvcruntimed:undname.obj
 0001:00010d20       ?getTemplateTypeArgument@UnDecorator@@AAE?AVDName@@XZ 40011d20 f   libvcruntimed:undname.obj
 0001:00010ef0       ?getThisType@UnDecorator@@AAE?AVDName@@XZ 40011ef0 f i libvcruntimed:undname.obj
 0001:00010f40       ?getThrowTypes@UnDecorator@@AAE?AVDName@@XZ 40011f40 f   libvcruntimed:undname.obj
 0001:00010f80       ?getTypeEncoding@UnDecorator@@AAEHXZ 40011f80 f i libvcruntimed:undname.obj
 0001:00011a70       ?getUndecoratedName@UnDecorator@@QAEPADPADH@Z 40012a70 f i libvcruntimed:undname.obj
 0001:00011be0       ?getUnionObject@UnDecorator@@AAE?AVDName@@XZ 40012be0 f   libvcruntimed:undname.obj
 0001:00011cd0       ?getVCallThunkType@UnDecorator@@AAE?AVDName@@XZ 40012cd0 f i libvcruntimed:undname.obj
 0001:00011d60       ?getValue@UnDecorator@@AAE?AV?$optional@_K@std@@XZ 40012d60 f   libvcruntimed:undname.obj
 0001:00011e30       ?getValueObject@UnDecorator@@AAE?AVDName@@XZ 40012e30 f   libvcruntimed:undname.obj
 0001:00012060       ?getVbTableType@UnDecorator@@AAE?AVDName@@ABV2@@Z 40013060 f i libvcruntimed:undname.obj
 0001:00012080       ?getVdispMapType@UnDecorator@@AAE?AVDName@@ABV2@@Z 40013080 f i libvcruntimed:undname.obj
 0001:00012100       ?getVfTableType@UnDecorator@@AAE?AVDName@@ABV2@@Z 40013100 f i libvcruntimed:undname.obj
 0001:00012310       ?getZName@UnDecorator@@AAE?AVDName@@_N0@Z 40013310 f   libvcruntimed:undname.obj
 0001:00012680       ?get_current_character_and_increment_buffer@UnDecorator@@AAEDXZ 40013680 f i libvcruntimed:undname.obj
 0001:000126c0       ?haveTemplateParameters@UnDecorator@@QAEHXZ 400136c0 f i libvcruntimed:undname.obj
 0001:000126e0       ?increment_buffer@UnDecorator@@AAE_NI@Z 400136e0 f i libvcruntimed:undname.obj
 0001:00012740       ?increment_buffer_no_check@UnDecorator@@AAEXI@Z 40013740 f i libvcruntimed:undname.obj
 0001:00012780       ?increment_buffer_no_check@UnDecorator@@AAEXXZ 40013780 f i libvcruntimed:undname.obj
 0001:000127a0       ?isArray@DName@@QBEHXZ     400137a0 f i libvcruntimed:undname.obj
 0001:000127c0       ?isComArray@DName@@QBEHXZ  400137c0 f i libvcruntimed:undname.obj
 0001:000127e0       ?isEmpty@DName@@QBEHXZ     400137e0 f i libvcruntimed:undname.obj
 0001:00012810       ?isFull@Replicator@@QBEHXZ 40013810 f i libvcruntimed:undname.obj
 0001:00012840       ?isNoTE@DName@@QBEHXZ      40013840 f i libvcruntimed:undname.obj
 0001:00012860       ?isPinPtr@DName@@QBEHXZ    40013860 f i libvcruntimed:undname.obj
 0001:00012880       ?isPtrRef@DName@@QBEHXZ    40013880 f i libvcruntimed:undname.obj
 0001:000128a0       ?isUDC@DName@@QBEHXZ       400138a0 f i libvcruntimed:undname.obj
 0001:000128e0       ?isUDTThunk@DName@@QBEHXZ  400138e0 f i libvcruntimed:undname.obj
 0001:00012920       ?isVCallThunk@DName@@QBEHXZ 40013920 f i libvcruntimed:undname.obj
 0001:00012940       ?isValid@DName@@QBEHXZ     40013940 f i libvcruntimed:undname.obj
 0001:00012980       ?length@DName@@QBEHXZ      40013980 f i libvcruntimed:undname.obj
 0001:000129c0       ?length@DNameStatusNode@@UBEHXZ 400139c0 f i libvcruntimed:undname.obj
 0001:000129e0       ?length@charNode@@UBEHXZ   400139e0 f i libvcruntimed:undname.obj
 0001:000129f0       ?length@pDNameNode@@UBEHXZ 400139f0 f i libvcruntimed:undname.obj
 0001:00012a20       ?length@pairNode@@UBEHXZ   40013a20 f i libvcruntimed:undname.obj
 0001:00012a90       ?length@pcharNode@@UBEHXZ  40013a90 f i libvcruntimed:undname.obj
 0001:00012ab0       ?make@DNameStatusNode@@SAPBV1@W4DNameStatus@@@Z 40013ab0 f i libvcruntimed:undname.obj
 0001:00012ae0       ?parseDecoratedName@UnDecorator@@AAE?AVDName@@XZ 40013ae0 f   libvcruntimed:undname.obj
 0001:00012ca0       ?raw_length@DNameStatusNode@@UBEHXZ 40013ca0 f i libvcruntimed:undname.obj
 0001:00012cc0       ?raw_length@charNode@@UBEHXZ 40013cc0 f i libvcruntimed:undname.obj
 0001:00012ce0       ?raw_length@pDNameNode@@UBEHXZ 40013ce0 f i libvcruntimed:undname.obj
 0001:00012cf0       ?raw_length@pairNode@@UBEHXZ 40013cf0 f i libvcruntimed:undname.obj
 0001:00012d10       ?raw_length@pcharNode@@UBEHXZ 40013d10 f i libvcruntimed:undname.obj
 0001:00012d30       ?setIsArray@DName@@QAEXXZ  40013d30 f i libvcruntimed:undname.obj
 0001:00012d50       ?setIsComArray@DName@@QAEXXZ 40013d50 f i libvcruntimed:undname.obj
 0001:00012d70       ?setIsNoTE@DName@@QAEXXZ   40013d70 f i libvcruntimed:undname.obj
 0001:00012d90       ?setIsPinPtr@DName@@QAEXXZ 40013d90 f i libvcruntimed:undname.obj
 0001:00012db0       ?setIsUDC@DName@@QAEXXZ    40013db0 f i libvcruntimed:undname.obj
 0001:00012de0       ?setIsVCallThunk@DName@@QAEXXZ 40013de0 f i libvcruntimed:undname.obj
 0001:00012e00       ?setPtrRef@DName@@QAEAAV1@XZ 40013e00 f i libvcruntimed:undname.obj
 0001:00012e20       ?status@DName@@QBE?AW4DNameStatus@@XZ 40013e20 f i libvcruntimed:undname.obj
 0001:00012f20       ___unDName                 40013f20 f   libvcruntimed:undname.obj
 0001:00012f50       ___unDNameEx               40013f50 f   libvcruntimed:undname.obj
 0001:00013020       _snprintf                  40014020 f i libvcruntimed:undname.obj
 0001:00013060       _unDNameGenerateCHPE       40014060 f   libvcruntimed:undname.obj
 0001:000130c0       _vsnprintf                 400140c0 f i libvcruntimed:undname.obj
 0001:00013110       ??$?RU__vcrt_ptd@@@__crt_internal_free_policy@@QBEXQBU__vcrt_ptd@@@Z 40014110 f i libvcruntimed:per_thread_data.obj
 0001:00013130       ??0?$__crt_unique_heap_ptr@U__vcrt_ptd@@U__crt_internal_free_policy@@@@QAE@QAU__vcrt_ptd@@@Z 40014130 f i libvcruntimed:per_thread_data.obj
 0001:00013170       ??1?$__crt_unique_heap_ptr@U__vcrt_ptd@@U__crt_internal_free_policy@@@@QAE@XZ 40014170 f i libvcruntimed:per_thread_data.obj
 0001:000131b0       ??B?$__crt_unique_heap_ptr@U__vcrt_ptd@@U__crt_internal_free_policy@@@@QBE_NXZ 400141b0 f i libvcruntimed:per_thread_data.obj
 0001:000131d0       ?detach@?$__crt_unique_heap_ptr@U__vcrt_ptd@@U__crt_internal_free_policy@@@@QAEPAU__vcrt_ptd@@XZ 400141d0 f i libvcruntimed:per_thread_data.obj
 0001:00013200       ?get@?$__crt_unique_heap_ptr@U__vcrt_ptd@@U__crt_internal_free_policy@@@@QBEPAU__vcrt_ptd@@XZ 40014200 f i libvcruntimed:per_thread_data.obj
 0001:00013210       ?is_valid@?$__crt_unique_heap_ptr@U__vcrt_ptd@@U__crt_internal_free_policy@@@@QBE_NXZ 40014210 f i libvcruntimed:per_thread_data.obj
 0001:00013240       ?release@?$__crt_unique_heap_ptr@U__vcrt_ptd@@U__crt_internal_free_policy@@@@QAEXXZ 40014240 f i libvcruntimed:per_thread_data.obj
 0001:000132a0       ___vcrt_freefls@4          400142a0 f   libvcruntimed:per_thread_data.obj
 0001:000132d0       ___vcrt_freeptd_for_this_thread 400142d0 f   libvcruntimed:per_thread_data.obj
 0001:00013310       ___vcrt_getptd             40014310 f   libvcruntimed:per_thread_data.obj
 0001:00013330       ___vcrt_getptd_noexit      40014330 f   libvcruntimed:per_thread_data.obj
 0001:00013490       ___vcrt_getptd_noinit      40014490 f   libvcruntimed:per_thread_data.obj
 0001:000134f0       ___vcrt_initialize_ptd     400144f0 f   libvcruntimed:per_thread_data.obj
 0001:00013540       ___vcrt_uninitialize_ptd   40014540 f   libvcruntimed:per_thread_data.obj
 0001:00013570       ___vcrt_initialize_locks   40014570 f   libvcruntimed:locks.obj
 0001:000135d0       ___vcrt_lock               400145d0 f   libvcruntimed:locks.obj
 0001:000135f0       ___vcrt_uninitialize_locks 400145f0 f   libvcruntimed:locks.obj
 0001:00013640       ___vcrt_unlock             40014640 f   libvcruntimed:locks.obj
 0001:00013660       __global_unwind2           40014660 f   libvcruntimed:exsup.obj
 0001:000136e0       __local_unwind2            400146e0 f   libvcruntimed:exsup.obj
 0001:00013780       __abnormal_termination     40014780 f   libvcruntimed:exsup.obj
 0001:000137b0       __NLG_Notify1              400147b0 f   libvcruntimed:exsup.obj
 0001:000137c0       __NLG_Notify               400147c0 f   libvcruntimed:exsup.obj
 0001:000137d7       __NLG_Dispatch             400147d7     libvcruntimed:exsup.obj
 0001:000137d7       __NLG_Dispatch2            400147d7     libvcruntimed:exsup.obj
 0001:000137e0       __NLG_Call                 400147e0 f   libvcruntimed:exsup.obj
 0001:000137e2       __NLG_Return2              400147e2     libvcruntimed:exsup.obj
 0001:000137f0       ??$__crt_interlocked_exchange_pointer@$$A6AXXZP6AXXZ@@YAP6AXXZPDS6AXXZQ6AXXZ@Z 400147f0 f i libvcruntimed:purevirt.obj
 0001:00013800       ??$__crt_interlocked_read_pointer@$$A6AXXZ@@YAP6AXXZPDS6AXXZ@Z 40014800 f i libvcruntimed:purevirt.obj
 0001:00013820       __get_purecall_handler     40014820 f   libvcruntimed:purevirt.obj
 0001:00013840       __purecall                 40014840 f   libvcruntimed:purevirt.obj
 0001:00013880       __set_purecall_handler     40014880 f   libvcruntimed:purevirt.obj
 0001:000138a0       _memcpy                    400148a0 f   libvcruntimed:memcpy.obj
 0001:00013e20       ??$?0AAViterator@TryBlockMap@__FrameHandler3@@AAV012@$0A@@?$pair@Viterator@TryBlockMap@__FrameHandler3@@V123@@std@@QAE@AAViterator@TryBlockMap@__FrameHandler3@@0@Z 40014e20 f i libvcruntimed:trnsctrl.obj
 0001:00013e60       ??0iterator@TryBlockMap@__FrameHandler3@@QAE@AAV12@I@Z 40014e60 f i libvcruntimed:trnsctrl.obj
 0001:00013e90       ?GetRangeOfTrysToCheck@__FrameHandler3@@SA?AU?$pair@Viterator@TryBlockMap@__FrameHandler3@@V123@@std@@AAVTryBlockMap@1@HPAXPBU_s_FuncInfo@@H@Z 40014e90 f   libvcruntimed:trnsctrl.obj
 0001:00013f80       ?_CallCatchBlock2@@YAPAXPAUEHRegistrationNode@@PBU_s_FuncInfo@@PAXHK@Z 40014f80 f   libvcruntimed:trnsctrl.obj
 0001:00013ff0       ?_CallSETranslator@@YAHPAUEHExceptionRecord@@PAUEHRegistrationNode@@PAX2PBU_s_FuncInfo@@H1@Z 40014ff0 f   libvcruntimed:trnsctrl.obj
 0001:00014100       ?_JumpToContinuation@@YGXPAXPAUEHRegistrationNode@@@Z 40015100 f   libvcruntimed:trnsctrl.obj
 0001:00014140       ?_UnwindNestedFrames@@YGXPAUEHRegistrationNode@@PAUEHExceptionRecord@@@Z 40015140 f   libvcruntimed:trnsctrl.obj
 0001:000141a0       __CatchGuardHandler        400151a0 f   libvcruntimed:trnsctrl.obj
 0001:000141f0       __CreateFrameInfo          400151f0 f   libvcruntimed:trnsctrl.obj
 0001:00014220       __FindAndUnlinkFrame       40015220 f   libvcruntimed:trnsctrl.obj
 0001:00014290       __TranslatorGuardHandler   40015290 f   libvcruntimed:trnsctrl.obj
 0001:00014340       ___CxxFrameHandler         40015340 f   libvcruntimed:trnsctrl.obj
 0001:00014380       ___CxxFrameHandler2        40015380 f   libvcruntimed:trnsctrl.obj
 0001:000143c0       ___CxxFrameHandler3        400153c0 f   libvcruntimed:trnsctrl.obj
 0001:00014400       ___CxxLongjmpUnwind@4      40015400 f   libvcruntimed:trnsctrl.obj
 0001:00014440       ??$__crt_interlocked_exchange_pointer@UHINSTANCE__@@PAU1@@@YAPAUHINSTANCE__@@PDSAU0@QAU0@@Z 40015440 f i libvcruntimed:winapi_downlevel.obj
 0001:00014450       ??$__crt_interlocked_exchange_pointer@UHINSTANCE__@@PAX@@YAPAUHINSTANCE__@@PDSAU0@QAX@Z 40015450 f i libvcruntimed:winapi_downlevel.obj
 0001:00014460       ??$__crt_interlocked_exchange_pointer@XPAX@@YAPAXPDSAXQAX@Z 40015460 f i libvcruntimed:winapi_downlevel.obj
 0001:00014470       ??$__crt_interlocked_read_pointer@UHINSTANCE__@@@@YAPAUHINSTANCE__@@PDSAU0@@Z 40015470 f i libvcruntimed:winapi_downlevel.obj
 0001:00014490       ??$__crt_interlocked_read_pointer@X@@YAPAXPDSAX@Z 40015490 f i libvcruntimed:winapi_downlevel.obj
 0001:00014870       ___vcrt_FlsAlloc           40015870 f   libvcruntimed:winapi_downlevel.obj
 0001:000148b0       ___vcrt_FlsFree            400158b0 f   libvcruntimed:winapi_downlevel.obj
 0001:000148f0       ___vcrt_FlsGetValue        400158f0 f   libvcruntimed:winapi_downlevel.obj
 0001:00014930       ___vcrt_FlsSetValue        40015930 f   libvcruntimed:winapi_downlevel.obj
 0001:00014980       ___vcrt_InitializeCriticalSectionEx 40015980 f   libvcruntimed:winapi_downlevel.obj
 0001:00015540       ??$TypeMatchHelper@V__FrameHandler3@@@@YAHPBU_s_HandlerType@@PBU_s_CatchableType@@PBU_s_ThrowInfo@@@Z 40016540 f i libvcruntimed:frame.obj
 0001:00015620       ??$__InternalCxxFrameHandler@V__FrameHandler3@@@@YA?AW4_EXCEPTION_DISPOSITION@@PAUEHExceptionRecord@@PAUEHRegistrationNode@@PAU_CONTEXT@@PAXPBU_s_FuncInfo@@H1E@Z 40016620 f i libvcruntimed:frame.obj
 0001:000157e0       ??$__InternalCxxFrameHandlerWrapper@V__FrameHandler3@@@@YA?AW4_EXCEPTION_DISPOSITION@@PAUEHExceptionRecord@@PAUEHRegistrationNode@@PAU_CONTEXT@@PAXPBU_s_FuncInfo@@H1E@Z 400167e0 f i libvcruntimed:frame.obj
 0001:00015810       ??0HandlerMap@__FrameHandler3@@QAE@PBU_s_TryBlockMapEntry@@II@Z 40016810 f i libvcruntimed:frame.obj
 0001:00015840       ??0TryBlockMap@__FrameHandler3@@QAE@PBU_s_FuncInfo@@I@Z 40016840 f i libvcruntimed:frame.obj
 0001:00015870       ??0bad_exception@std@@QAE@ABV01@@Z 40016870 f i libvcruntimed:frame.obj
 0001:000158a0       ??0bad_exception@std@@QAE@XZ 400168a0 f i libvcruntimed:frame.obj
 0001:000158d0       ??0exception@std@@QAE@ABV01@@Z 400168d0 f i libvcruntimed:frame.obj
 0001:00015910       ??0exception@std@@QAE@QBDH@Z 40016910 f i libvcruntimed:frame.obj
 0001:00015940       ??0iterator@HandlerMap@__FrameHandler3@@QAE@AAV12@I@Z 40016940 f i libvcruntimed:frame.obj
 0001:00015970       ??1bad_exception@std@@UAE@XZ 40016970 f i libvcruntimed:frame.obj
 0001:00015990       ??1exception@std@@UAE@XZ   40016990 f i libvcruntimed:frame.obj
 0001:000159c0       ??8iterator@HandlerMap@__FrameHandler3@@QBE_NABV012@@Z 400169c0 f i libvcruntimed:frame.obj
 0001:00015a00       ??8type_info@@QBE_NABV0@@Z 40016a00 f i libvcruntimed:frame.obj
 0001:00015a70       ??9iterator@HandlerMap@__FrameHandler3@@QBE_NABV012@@Z 40016a70 f i libvcruntimed:frame.obj
 0001:00015ab0       ??Diterator@HandlerMap@__FrameHandler3@@QAE?BU_s_HandlerType@@XZ 40016ab0 f i libvcruntimed:frame.obj
 0001:00015af0       ??Diterator@TryBlockMap@__FrameHandler3@@QAE?BU_s_TryBlockMapEntry@@XZ 40016af0 f i libvcruntimed:frame.obj
 0001:00015b40       ??Eiterator@HandlerMap@__FrameHandler3@@QAEAAV012@XZ 40016b40 f i libvcruntimed:frame.obj
 0001:00015b60       ??Eiterator@TryBlockMap@__FrameHandler3@@QAEAAV012@XZ 40016b60 f i libvcruntimed:frame.obj
 0001:00015b80       ??Miterator@TryBlockMap@__FrameHandler3@@QBE_NABV012@@Z 40016b80 f i libvcruntimed:frame.obj
 0001:00015bc0       ??_Ebad_exception@std@@UAEPAXI@Z 40016bc0 f i libvcruntimed:frame.obj
 0001:00015bc0       ??_Gbad_exception@std@@UAEPAXI@Z 40016bc0 f i libvcruntimed:frame.obj
 0001:00015bf0       ??_Eexception@std@@UAEPAXI@Z 40016bf0 f i libvcruntimed:frame.obj
 0001:00015bf0       ??_Gexception@std@@UAEPAXI@Z 40016bf0 f i libvcruntimed:frame.obj
 0001:00015c20       ?BuildCatchObject@__FrameHandler3@@SAXPAUEHExceptionRecord@@PAXPBU_s_HandlerType@@PBU_s_CatchableType@@@Z 40016c20 f   libvcruntimed:frame.obj
 0001:00015c40       ?BuildCatchObjectHelper@__FrameHandler3@@SAHPAUEHExceptionRecord@@PAXPBU_s_HandlerType@@PBU_s_CatchableType@@@Z 40016c40 f   libvcruntimed:frame.obj
 0001:00015ff0       ?FrameUnwindToEmptyState@__FrameHandler3@@SAXPAUEHRegistrationNode@@PAXPBU_s_FuncInfo@@@Z 40016ff0 f   libvcruntimed:frame.obj
 0001:00016010       ?FrameUnwindToState@__FrameHandler3@@SAXPAUEHRegistrationNode@@PAXPBU_s_FuncInfo@@H@Z 40017010 f   libvcruntimed:frame.obj
 0001:00016190       ?GetMaxState@__FrameHandler3@@SAHPAXPBU_s_FuncInfo@@@Z 40017190 f i libvcruntimed:frame.obj
 0001:000162b0       ?TypeMatch@__FrameHandler3@@SAHPBU_s_HandlerType@@PBU_s_CatchableType@@PBU_s_ThrowInfo@@@Z 400172b0 f   libvcruntimed:frame.obj
 0001:000162d0       ?_CallMemberFunction1@@YGXQAX00@Z 400172d0 f i libvcruntimed:frame.obj
 0001:00016300       ?_CallMemberFunction2@@YGXQAX00H@Z 40017300 f i libvcruntimed:frame.obj
 0001:00016330       ?begin@HandlerMap@__FrameHandler3@@QAE?AViterator@12@XZ 40017330 f i libvcruntimed:frame.obj
 0001:00016350       ?end@HandlerMap@__FrameHandler3@@QAE?AViterator@12@XZ 40017350 f i libvcruntimed:frame.obj
 0001:00016380       ?getESTypes@__FrameHandler3@@SAPBU_s_ESTypeList@@PBU_s_FuncInfo@@@Z 40017380 f i libvcruntimed:frame.obj
 0001:00016390       ?getLastEntry@HandlerMap@__FrameHandler3@@QAEPBU_s_HandlerType@@XZ 40017390 f i libvcruntimed:frame.obj
 0001:000163b0       ?getMagicNum@__FrameHandler3@@SAIPBU_s_FuncInfo@@@Z 400173b0 f i libvcruntimed:frame.obj
 0001:000163c0       ?getNumTryBlocks@TryBlockMap@__FrameHandler3@@QAEIXZ 400173c0 f i libvcruntimed:frame.obj
 0001:000163e0       ?isEHs@__FrameHandler3@@SA_NPBU_s_FuncInfo@@@Z 400173e0 f i libvcruntimed:frame.obj
 0001:00016410       ?isNoExcept@__FrameHandler3@@SA_NPBU_s_FuncInfo@@@Z 40017410 f i libvcruntimed:frame.obj
 0001:00016440       ?what@exception@std@@UBEPBDXZ 40017440 f i libvcruntimed:frame.obj
 0001:00016470       ___BuildCatchObject        40017470 f   libvcruntimed:frame.obj
 0001:00016490       ___BuildCatchObjectHelper  40017490 f   libvcruntimed:frame.obj
 0001:000164b0       ___TypeMatch               400174b0 f   libvcruntimed:frame.obj
 0001:000164d0       ___vcrt_EncodePointer      400174d0 f i libvcruntimed:frame.obj
 0001:000164e0       __CallSettingFrame@12      400174e0 f   libvcruntimed:lowhelpr.obj
 0001:00016507       __NLG_Return               40017507     libvcruntimed:lowhelpr.obj
 0001:00016560       __get_unexpected           40017560 f   libvcruntimed:unexpected.obj
 0001:00016580       _set_unexpected            40017580 f   libvcruntimed:unexpected.obj
 0001:000165b0       _unexpected                400175b0 f   libvcruntimed:unexpected.obj
 0001:000165f0       _memmove                   400175f0 f   libvcruntimed:memmove.obj
 0001:00016b70       ?GetCurrentState@__FrameHandler3@@SAHPAUEHRegistrationNode@@PAXPBU_s_FuncInfo@@@Z 40017b70 f   libvcruntimed:ehstate.obj
 0001:00016ba0       ?SetState@__FrameHandler3@@SAXPAUEHRegistrationNode@@PBU_s_FuncInfo@@H@Z 40017ba0 f   libvcruntimed:ehstate.obj
 0001:00016bb0       ??$?RD@__crt_public_free_policy@@QBEXQBD@Z 40017bb0 f i libvcruntimed:std_exception.obj
 0001:00016bd0       ??0?$__crt_unique_heap_ptr@DU__crt_public_free_policy@@@@QAE@QAD@Z 40017bd0 f i libvcruntimed:std_exception.obj
 0001:00016bf0       ??1?$__crt_unique_heap_ptr@DU__crt_public_free_policy@@@@QAE@XZ 40017bf0 f i libvcruntimed:std_exception.obj
 0001:00016c10       ??B?$__crt_unique_heap_ptr@DU__crt_public_free_policy@@@@QBE_NXZ 40017c10 f i libvcruntimed:std_exception.obj
 0001:00016c30       ?detach@?$__crt_unique_heap_ptr@DU__crt_public_free_policy@@@@QAEPADXZ 40017c30 f i libvcruntimed:std_exception.obj
 0001:00016c60       ?get@?$__crt_unique_heap_ptr@DU__crt_public_free_policy@@@@QBEPADXZ 40017c60 f i libvcruntimed:std_exception.obj
 0001:00016c70       ?is_valid@?$__crt_unique_heap_ptr@DU__crt_public_free_policy@@@@QBE_NXZ 40017c70 f i libvcruntimed:std_exception.obj
 0001:00016ca0       ?release@?$__crt_unique_heap_ptr@DU__crt_public_free_policy@@@@QAEXXZ 40017ca0 f i libvcruntimed:std_exception.obj
 0001:00016cd0       ___std_exception_copy      40017cd0 f   libvcruntimed:std_exception.obj
 0001:00016dd0       ___std_exception_destroy   40017dd0 f   libvcruntimed:std_exception.obj
 0001:00016e00       __CxxThrowException@8      40017e00 f   libvcruntimed:throw.obj
 0001:00016eb0       ??$?RU?$__crt_report_hook_node@D@@@__crt_internal_free_policy@@QBEXQBU?$__crt_report_hook_node@D@@@Z 40017eb0 f i libucrtd:dbgrpt.obj
 0001:00016ed0       ??$?RU?$__crt_report_hook_node@_W@@@__crt_internal_free_policy@@QBEXQBU?$__crt_report_hook_node@_W@@@Z 40017ed0 f i libucrtd:dbgrpt.obj
 0001:00017dc0       ??$get_module_file_name@AAPAUHINSTANCE__@@AAY0BAF@DK@?$__crt_char_traits@D@@SAKAAPAUHINSTANCE__@@AAY0BAF@D$$QAK@Z 40018dc0 f i libucrtd:dbgrpt.obj
 0001:00017de0       ??$get_module_file_name@AAPAUHINSTANCE__@@AAY0BAF@_WK@?$__crt_char_traits@_W@@SAKAAPAUHINSTANCE__@@AAY0BAF@_W$$QAK@Z 40018de0 f i libucrtd:dbgrpt.obj
 0001:00017e00       ??$tcscpy_s@AAY0BAF@DIPBD@?$__crt_char_traits@D@@SAHAAY0BAF@D$$QAI$$QAPBD@Z 40018e00 f i libucrtd:dbgrpt.obj
 0001:00017e20       ??$tcscpy_s@AAY0BAF@_WIPB_W@?$__crt_char_traits@_W@@SAHAAY0BAF@_W$$QAI$$QAPB_W@Z 40018e20 f i libucrtd:dbgrpt.obj
 0001:00017e40       ??$tcslen@AAY0BAF@D@?$__crt_char_traits@D@@SAIAAY0BAF@D@Z 40018e40 f i libucrtd:dbgrpt.obj
 0001:00017e60       ??$tcslen@AAY0BAF@_W@?$__crt_char_traits@_W@@SAIAAY0BAF@_W@Z 40018e60 f i libucrtd:dbgrpt.obj
 0001:00017e80       ??$tcslen@ABQBD@?$__crt_char_traits@D@@SAIABQBD@Z 40018e80 f i libucrtd:dbgrpt.obj
 0001:00017ea0       ??$tcslen@ABQB_W@?$__crt_char_traits@_W@@SAIABQB_W@Z 40018ea0 f i libucrtd:dbgrpt.obj
 0001:00017fa0       ??0?$__crt_unique_heap_ptr@U?$__crt_report_hook_node@D@@U__crt_internal_free_policy@@@@QAE@QAU?$__crt_report_hook_node@D@@@Z 40018fa0 f i libucrtd:dbgrpt.obj
 0001:00017fc0       ??0?$__crt_unique_heap_ptr@U?$__crt_report_hook_node@_W@@U__crt_internal_free_policy@@@@QAE@QAU?$__crt_report_hook_node@_W@@@Z 40018fc0 f i libucrtd:dbgrpt.obj
 0001:00017fe0       ??1?$__crt_unique_heap_ptr@U?$__crt_report_hook_node@D@@U__crt_internal_free_policy@@@@QAE@XZ 40018fe0 f i libucrtd:dbgrpt.obj
 0001:00018000       ??1?$__crt_unique_heap_ptr@U?$__crt_report_hook_node@_W@@U__crt_internal_free_policy@@@@QAE@XZ 40019000 f i libucrtd:dbgrpt.obj
 0001:00018020       ??B?$__crt_unique_heap_ptr@U?$__crt_report_hook_node@D@@U__crt_internal_free_policy@@@@QBE_NXZ 40019020 f i libucrtd:dbgrpt.obj
 0001:00018040       ??B?$__crt_unique_heap_ptr@U?$__crt_report_hook_node@_W@@U__crt_internal_free_policy@@@@QBE_NXZ 40019040 f i libucrtd:dbgrpt.obj
 0001:000185a0       ?detach@?$__crt_unique_heap_ptr@U?$__crt_report_hook_node@D@@U__crt_internal_free_policy@@@@QAEPAU?$__crt_report_hook_node@D@@XZ 400195a0 f i libucrtd:dbgrpt.obj
 0001:000185d0       ?detach@?$__crt_unique_heap_ptr@U?$__crt_report_hook_node@_W@@U__crt_internal_free_policy@@@@QAEPAU?$__crt_report_hook_node@_W@@XZ 400195d0 f i libucrtd:dbgrpt.obj
 0001:00018600       ?get@?$__crt_unique_heap_ptr@U?$__crt_report_hook_node@D@@U__crt_internal_free_policy@@@@QBEPAU?$__crt_report_hook_node@D@@XZ 40019600 f i libucrtd:dbgrpt.obj
 0001:00018620       ?get@?$__crt_unique_heap_ptr@U?$__crt_report_hook_node@_W@@U__crt_internal_free_policy@@@@QBEPAU?$__crt_report_hook_node@_W@@XZ 40019620 f i libucrtd:dbgrpt.obj
 0001:000186a0       ?is_valid@?$__crt_unique_heap_ptr@U?$__crt_report_hook_node@D@@U__crt_internal_free_policy@@@@QBE_NXZ 400196a0 f i libucrtd:dbgrpt.obj
 0001:000186d0       ?is_valid@?$__crt_unique_heap_ptr@U?$__crt_report_hook_node@_W@@U__crt_internal_free_policy@@@@QBE_NXZ 400196d0 f i libucrtd:dbgrpt.obj
 0001:00018700       ?release@?$__crt_unique_heap_ptr@U?$__crt_report_hook_node@D@@U__crt_internal_free_policy@@@@QAEXXZ 40019700 f i libucrtd:dbgrpt.obj
 0001:00018730       ?release@?$__crt_unique_heap_ptr@U?$__crt_report_hook_node@_W@@U__crt_internal_free_policy@@@@QAEXXZ 40019730 f i libucrtd:dbgrpt.obj
 0001:00018760       __CrtDbgReport             40019760 f   libucrtd:dbgrpt.obj
 0001:000187b0       __CrtDbgReportW            400197b0 f   libucrtd:dbgrpt.obj
 0001:00018800       __CrtSetReportHook2        40019800 f   libucrtd:dbgrpt.obj
 0001:00018820       __CrtSetReportHookW2       40019820 f   libucrtd:dbgrpt.obj
 0001:00018840       ___acrt_MessageWindowA     40019840 f   libucrtd:dbgrpt.obj
 0001:00018870       ___acrt_MessageWindowW     40019870 f   libucrtd:dbgrpt.obj
 0001:000188a0       __invoke_watson_if_error   400198a0 f i libucrtd:dbgrpt.obj
 0001:000188d0       __invoke_watson_if_oneof   400198d0 f i libucrtd:dbgrpt.obj
 0001:00018910       __snwprintf_s              40019910 f i libucrtd:dbgrpt.obj
 0001:00018950       __vsnwprintf_s_l           40019950 f i libucrtd:dbgrpt.obj
 0001:000189b0       __initterm                 400199b0 f   libucrtd:initterm.obj
 0001:00018a00       __initterm_e               40019a00 f   libucrtd:initterm.obj
 0001:00018d70       _strcpy_s                  40019d70 f   libucrtd:strcpy_s.obj
 0001:000191a0       _strcat_s                  4001a1a0 f   libucrtd:strcat_s.obj
 0001:000191c0       ??$?0ABV?$stream_output_adapter@D@__crt_stdio_output@@AB_KABQBDAAV__crt_cached_ptd_host@@ABQAD@?$format_validation_base@DV?$stream_output_adapter@D@__crt_stdio_output@@@__crt_stdio_output@@IAE@ABV?$stream_output_adapter@D@1@AB_KABQBDAAV__crt_cached_ptd_host@@ABQAD@Z 4001a1c0 f i libucrtd:output.obj
 0001:000191f0       ??$?0ABV?$stream_output_adapter@D@__crt_stdio_output@@AB_KABQBDAAV__crt_cached_ptd_host@@ABQAD@?$positional_parameter_base@DV?$stream_output_adapter@D@__crt_stdio_output@@@__crt_stdio_output@@IAE@ABV?$stream_output_adapter@D@1@AB_KABQBDAAV__crt_cached_ptd_host@@ABQAD@Z 4001a1f0 f i libucrtd:output.obj
 0001:00019270       ??$?0ABV?$stream_output_adapter@D@__crt_stdio_output@@AB_KABQBDAAV__crt_cached_ptd_host@@ABQAD@?$standard_base@DV?$stream_output_adapter@D@__crt_stdio_output@@@__crt_stdio_output@@IAE@ABV?$stream_output_adapter@D@1@AB_KABQBDAAV__crt_cached_ptd_host@@ABQAD@Z 4001a270 f i libucrtd:output.obj
 0001:000192c0       ??$?0ABV?$stream_output_adapter@_W@__crt_stdio_output@@AB_KABQB_WAAV__crt_cached_ptd_host@@ABQAD@?$format_validation_base@_WV?$stream_output_adapter@_W@__crt_stdio_output@@@__crt_stdio_output@@IAE@ABV?$stream_output_adapter@_W@1@AB_KABQB_WAAV__crt_cached_ptd_host@@ABQAD@Z 4001a2c0 f i libucrtd:output.obj
 0001:000192f0       ??$?0ABV?$stream_output_adapter@_W@__crt_stdio_output@@AB_KABQB_WAAV__crt_cached_ptd_host@@ABQAD@?$positional_parameter_base@_WV?$stream_output_adapter@_W@__crt_stdio_output@@@__crt_stdio_output@@IAE@ABV?$stream_output_adapter@_W@1@AB_KABQB_WAAV__crt_cached_ptd_host@@ABQAD@Z 4001a2f0 f i libucrtd:output.obj
 0001:00019370       ??$?0ABV?$stream_output_adapter@_W@__crt_stdio_output@@AB_KABQB_WAAV__crt_cached_ptd_host@@ABQAD@?$standard_base@_WV?$stream_output_adapter@_W@__crt_stdio_output@@@__crt_stdio_output@@IAE@ABV?$stream_output_adapter@_W@1@AB_KABQB_WAAV__crt_cached_ptd_host@@ABQAD@Z 4001a370 f i libucrtd:output.obj
 0001:000193c0       ??$?0ABV?$string_output_adapter@D@__crt_stdio_output@@AB_KABQBDAAV__crt_cached_ptd_host@@ABQAD@?$format_validation_base@DV?$string_output_adapter@D@__crt_stdio_output@@@__crt_stdio_output@@IAE@ABV?$string_output_adapter@D@1@AB_KABQBDAAV__crt_cached_ptd_host@@ABQAD@Z 4001a3c0 f i libucrtd:output.obj
 0001:000193f0       ??$?0ABV?$string_output_adapter@D@__crt_stdio_output@@AB_KABQBDAAV__crt_cached_ptd_host@@ABQAD@?$positional_parameter_base@DV?$string_output_adapter@D@__crt_stdio_output@@@__crt_stdio_output@@IAE@ABV?$string_output_adapter@D@1@AB_KABQBDAAV__crt_cached_ptd_host@@ABQAD@Z 4001a3f0 f i libucrtd:output.obj
 0001:00019470       ??$?0ABV?$string_output_adapter@D@__crt_stdio_output@@AB_KABQBDAAV__crt_cached_ptd_host@@ABQAD@?$standard_base@DV?$string_output_adapter@D@__crt_stdio_output@@@__crt_stdio_output@@IAE@ABV?$string_output_adapter@D@1@AB_KABQBDAAV__crt_cached_ptd_host@@ABQAD@Z 4001a470 f i libucrtd:output.obj
 0001:000194c0       ??$?0ABV?$string_output_adapter@_W@__crt_stdio_output@@AB_KABQB_WAAV__crt_cached_ptd_host@@ABQAD@?$format_validation_base@_WV?$string_output_adapter@_W@__crt_stdio_output@@@__crt_stdio_output@@IAE@ABV?$string_output_adapter@_W@1@AB_KABQB_WAAV__crt_cached_ptd_host@@ABQAD@Z 4001a4c0 f i libucrtd:output.obj
 0001:000194f0       ??$?0ABV?$string_output_adapter@_W@__crt_stdio_output@@AB_KABQB_WAAV__crt_cached_ptd_host@@ABQAD@?$positional_parameter_base@_WV?$string_output_adapter@_W@__crt_stdio_output@@@__crt_stdio_output@@IAE@ABV?$string_output_adapter@_W@1@AB_KABQB_WAAV__crt_cached_ptd_host@@ABQAD@Z 4001a4f0 f i libucrtd:output.obj
 0001:00019570       ??$?0ABV?$string_output_adapter@_W@__crt_stdio_output@@AB_KABQB_WAAV__crt_cached_ptd_host@@ABQAD@?$standard_base@_WV?$string_output_adapter@_W@__crt_stdio_output@@@__crt_stdio_output@@IAE@ABV?$string_output_adapter@_W@1@AB_KABQB_WAAV__crt_cached_ptd_host@@ABQAD@Z 4001a570 f i libucrtd:output.obj
 0001:00019bc0       ??$__crt_interlocked_read@J@@YAJPDJ@Z 4001abc0 f i libucrtd:output.obj
 0001:00019be0       ??$_tcstol_internal@DPAPAD$0A@@@YAJAAV__crt_cached_ptd_host@@QBDQAPADH@Z 4001abe0 f i libucrtd:output.obj
 0001:00019c20       ??$_tcstol_internal@_WPAPA_W$0A@@@YAJAAV__crt_cached_ptd_host@@QB_WQAPA_WH@Z 4001ac20 f i libucrtd:output.obj
 0001:0001cbc0       ??$count@D@formatting_buffer@__crt_stdio_output@@QBEIXZ 4001dbc0 f i libucrtd:output.obj
 0001:0001cc00       ??$count@_W@formatting_buffer@__crt_stdio_output@@QBEIXZ 4001dc00 f i libucrtd:output.obj
 0001:0001cc40       ??$data@D@formatting_buffer@__crt_stdio_output@@QAEPADXZ 4001dc40 f i libucrtd:output.obj
 0001:0001cc80       ??$data@_W@formatting_buffer@__crt_stdio_output@@QAEPA_WXZ 4001dc80 f i libucrtd:output.obj
 0001:0001ccc0       ??$ensure_buffer_is_big_enough@D@formatting_buffer@__crt_stdio_output@@QAE_NIAAV__crt_cached_ptd_host@@@Z 4001dcc0 f i libucrtd:output.obj
 0001:0001cdb0       ??$ensure_buffer_is_big_enough@_W@formatting_buffer@__crt_stdio_output@@QAE_NIAAV__crt_cached_ptd_host@@@Z 4001ddb0 f i libucrtd:output.obj
 0001:0001cea0       ??$extract_argument_from_va_list@C_J@?$positional_parameter_base@DV?$stream_output_adapter@D@__crt_stdio_output@@@__crt_stdio_output@@IAE_NAA_J@Z 4001dea0 f i libucrtd:output.obj
 0001:0001d000       ??$extract_argument_from_va_list@C_J@?$positional_parameter_base@DV?$string_output_adapter@D@__crt_stdio_output@@@__crt_stdio_output@@IAE_NAA_J@Z 4001e000 f i libucrtd:output.obj
 0001:0001d160       ??$extract_argument_from_va_list@C_J@?$positional_parameter_base@_WV?$stream_output_adapter@_W@__crt_stdio_output@@@__crt_stdio_output@@IAE_NAA_J@Z 4001e160 f i libucrtd:output.obj
 0001:0001d2d0       ??$extract_argument_from_va_list@C_J@?$positional_parameter_base@_WV?$string_output_adapter@_W@__crt_stdio_output@@@__crt_stdio_output@@IAE_NAA_J@Z 4001e2d0 f i libucrtd:output.obj
 0001:0001d440       ??$extract_argument_from_va_list@C_J@?$standard_base@DV?$stream_output_adapter@D@__crt_stdio_output@@@__crt_stdio_output@@IAE_NAA_J@Z 4001e440 f i libucrtd:output.obj
 0001:0001d470       ??$extract_argument_from_va_list@C_J@?$standard_base@DV?$string_output_adapter@D@__crt_stdio_output@@@__crt_stdio_output@@IAE_NAA_J@Z 4001e470 f i libucrtd:output.obj
 0001:0001d4a0       ??$extract_argument_from_va_list@C_J@?$standard_base@_WV?$stream_output_adapter@_W@__crt_stdio_output@@@__crt_stdio_output@@IAE_NAA_J@Z 4001e4a0 f i libucrtd:output.obj
 0001:0001d4d0       ??$extract_argument_from_va_list@C_J@?$standard_base@_WV?$string_output_adapter@_W@__crt_stdio_output@@@__crt_stdio_output@@IAE_NAA_J@Z 4001e4d0 f i libucrtd:output.obj
 0001:0001d500       ??$extract_argument_from_va_list@E_J@?$positional_parameter_base@DV?$stream_output_adapter@D@__crt_stdio_output@@@__crt_stdio_output@@IAE_NAA_J@Z 4001e500 f i libucrtd:output.obj
 0001:0001d660       ??$extract_argument_from_va_list@E_J@?$positional_parameter_base@DV?$string_output_adapter@D@__crt_stdio_output@@@__crt_stdio_output@@IAE_NAA_J@Z 4001e660 f i libucrtd:output.obj
 0001:0001d7c0       ??$extract_argument_from_va_list@E_J@?$positional_parameter_base@_WV?$stream_output_adapter@_W@__crt_stdio_output@@@__crt_stdio_output@@IAE_NAA_J@Z 4001e7c0 f i libucrtd:output.obj
 0001:0001d930       ??$extract_argument_from_va_list@E_J@?$positional_parameter_base@_WV?$string_output_adapter@_W@__crt_stdio_output@@@__crt_stdio_output@@IAE_NAA_J@Z 4001e930 f i libucrtd:output.obj
 0001:0001daa0       ??$extract_argument_from_va_list@E_J@?$standard_base@DV?$stream_output_adapter@D@__crt_stdio_output@@@__crt_stdio_output@@IAE_NAA_J@Z 4001eaa0 f i libucrtd:output.obj
 0001:0001dad0       ??$extract_argument_from_va_list@E_J@?$standard_base@DV?$string_output_adapter@D@__crt_stdio_output@@@__crt_stdio_output@@IAE_NAA_J@Z 4001ead0 f i libucrtd:output.obj
 0001:0001db00       ??$extract_argument_from_va_list@E_J@?$standard_base@_WV?$stream_output_adapter@_W@__crt_stdio_output@@@__crt_stdio_output@@IAE_NAA_J@Z 4001eb00 f i libucrtd:output.obj
 0001:0001db30       ??$extract_argument_from_va_list@E_J@?$standard_base@_WV?$string_output_adapter@_W@__crt_stdio_output@@@__crt_stdio_output@@IAE_NAA_J@Z 4001eb30 f i libucrtd:output.obj
 0001:0001db60       ??$extract_argument_from_va_list@F_J@?$positional_parameter_base@DV?$stream_output_adapter@D@__crt_stdio_output@@@__crt_stdio_output@@IAE_NAA_J@Z 4001eb60 f i libucrtd:output.obj
 0001:0001dcc0       ??$extract_argument_from_va_list@F_J@?$positional_parameter_base@DV?$string_output_adapter@D@__crt_stdio_output@@@__crt_stdio_output@@IAE_NAA_J@Z 4001ecc0 f i libucrtd:output.obj
 0001:0001de20       ??$extract_argument_from_va_list@F_J@?$positional_parameter_base@_WV?$stream_output_adapter@_W@__crt_stdio_output@@@__crt_stdio_output@@IAE_NAA_J@Z 4001ee20 f i libucrtd:output.obj
 0001:0001df80       ??$extract_argument_from_va_list@F_J@?$positional_parameter_base@_WV?$string_output_adapter@_W@__crt_stdio_output@@@__crt_stdio_output@@IAE_NAA_J@Z 4001ef80 f i libucrtd:output.obj
 0001:0001e0e0       ??$extract_argument_from_va_list@F_J@?$standard_base@DV?$stream_output_adapter@D@__crt_stdio_output@@@__crt_stdio_output@@IAE_NAA_J@Z 4001f0e0 f i libucrtd:output.obj
 0001:0001e110       ??$extract_argument_from_va_list@F_J@?$standard_base@DV?$string_output_adapter@D@__crt_stdio_output@@@__crt_stdio_output@@IAE_NAA_J@Z 4001f110 f i libucrtd:output.obj
 0001:0001e140       ??$extract_argument_from_va_list@F_J@?$standard_base@_WV?$stream_output_adapter@_W@__crt_stdio_output@@@__crt_stdio_output@@IAE_NAA_J@Z 4001f140 f i libucrtd:output.obj
 0001:0001e170       ??$extract_argument_from_va_list@F_J@?$standard_base@_WV?$string_output_adapter@_W@__crt_stdio_output@@@__crt_stdio_output@@IAE_NAA_J@Z 4001f170 f i libucrtd:output.obj
 0001:0001e1a0       ??$extract_argument_from_va_list@GD@?$positional_parameter_base@DV?$stream_output_adapter@D@__crt_stdio_output@@@__crt_stdio_output@@IAE_NAAD@Z 4001f1a0 f i libucrtd:output.obj
 0001:0001e300       ??$extract_argument_from_va_list@GD@?$positional_parameter_base@DV?$string_output_adapter@D@__crt_stdio_output@@@__crt_stdio_output@@IAE_NAAD@Z 4001f300 f i libucrtd:output.obj
 0001:0001e460       ??$extract_argument_from_va_list@GD@?$standard_base@DV?$stream_output_adapter@D@__crt_stdio_output@@@__crt_stdio_output@@IAE_NAAD@Z 4001f460 f i libucrtd:output.obj
 0001:0001e490       ??$extract_argument_from_va_list@GD@?$standard_base@DV?$string_output_adapter@D@__crt_stdio_output@@@__crt_stdio_output@@IAE_NAAD@Z 4001f490 f i libucrtd:output.obj
 0001:0001e4c0       ??$extract_argument_from_va_list@G_J@?$positional_parameter_base@DV?$stream_output_adapter@D@__crt_stdio_output@@@__crt_stdio_output@@IAE_NAA_J@Z 4001f4c0 f i libucrtd:output.obj
 0001:0001e620       ??$extract_argument_from_va_list@G_J@?$positional_parameter_base@DV?$string_output_adapter@D@__crt_stdio_output@@@__crt_stdio_output@@IAE_NAA_J@Z 4001f620 f i libucrtd:output.obj
 0001:0001e780       ??$extract_argument_from_va_list@G_J@?$positional_parameter_base@_WV?$stream_output_adapter@_W@__crt_stdio_output@@@__crt_stdio_output@@IAE_NAA_J@Z 4001f780 f i libucrtd:output.obj
 0001:0001e8f0       ??$extract_argument_from_va_list@G_J@?$positional_parameter_base@_WV?$string_output_adapter@_W@__crt_stdio_output@@@__crt_stdio_output@@IAE_NAA_J@Z 4001f8f0 f i libucrtd:output.obj
 0001:0001ea60       ??$extract_argument_from_va_list@G_J@?$standard_base@DV?$stream_output_adapter@D@__crt_stdio_output@@@__crt_stdio_output@@IAE_NAA_J@Z 4001fa60 f i libucrtd:output.obj
 0001:0001ea90       ??$extract_argument_from_va_list@G_J@?$standard_base@DV?$string_output_adapter@D@__crt_stdio_output@@@__crt_stdio_output@@IAE_NAA_J@Z 4001fa90 f i libucrtd:output.obj
 0001:0001eac0       ??$extract_argument_from_va_list@G_J@?$standard_base@_WV?$stream_output_adapter@_W@__crt_stdio_output@@@__crt_stdio_output@@IAE_NAA_J@Z 4001fac0 f i libucrtd:output.obj
 0001:0001eaf0       ??$extract_argument_from_va_list@G_J@?$standard_base@_WV?$string_output_adapter@_W@__crt_stdio_output@@@__crt_stdio_output@@IAE_NAA_J@Z 4001faf0 f i libucrtd:output.obj
 0001:0001eb20       ??$extract_argument_from_va_list@H_J@?$positional_parameter_base@DV?$stream_output_adapter@D@__crt_stdio_output@@@__crt_stdio_output@@IAE_NAA_J@Z 4001fb20 f i libucrtd:output.obj
 0001:0001ec80       ??$extract_argument_from_va_list@H_J@?$positional_parameter_base@DV?$string_output_adapter@D@__crt_stdio_output@@@__crt_stdio_output@@IAE_NAA_J@Z 4001fc80 f i libucrtd:output.obj
 0001:0001ede0       ??$extract_argument_from_va_list@H_J@?$positional_parameter_base@_WV?$stream_output_adapter@_W@__crt_stdio_output@@@__crt_stdio_output@@IAE_NAA_J@Z 4001fde0 f i libucrtd:output.obj
 0001:0001ef40       ??$extract_argument_from_va_list@H_J@?$positional_parameter_base@_WV?$string_output_adapter@_W@__crt_stdio_output@@@__crt_stdio_output@@IAE_NAA_J@Z 4001ff40 f i libucrtd:output.obj
 0001:0001f0a0       ??$extract_argument_from_va_list@H_J@?$standard_base@DV?$stream_output_adapter@D@__crt_stdio_output@@@__crt_stdio_output@@IAE_NAA_J@Z 400200a0 f i libucrtd:output.obj
 0001:0001f0d0       ??$extract_argument_from_va_list@H_J@?$standard_base@DV?$string_output_adapter@D@__crt_stdio_output@@@__crt_stdio_output@@IAE_NAA_J@Z 400200d0 f i libucrtd:output.obj
 0001:0001f100       ??$extract_argument_from_va_list@H_J@?$standard_base@_WV?$stream_output_adapter@_W@__crt_stdio_output@@@__crt_stdio_output@@IAE_NAA_J@Z 40020100 f i libucrtd:output.obj
 0001:0001f130       ??$extract_argument_from_va_list@H_J@?$standard_base@_WV?$string_output_adapter@_W@__crt_stdio_output@@@__crt_stdio_output@@IAE_NAA_J@Z 40020130 f i libucrtd:output.obj
 0001:0001f160       ??$extract_argument_from_va_list@I_J@?$positional_parameter_base@DV?$stream_output_adapter@D@__crt_stdio_output@@@__crt_stdio_output@@IAE_NAA_J@Z 40020160 f i libucrtd:output.obj
 0001:0001f2c0       ??$extract_argument_from_va_list@I_J@?$positional_parameter_base@DV?$string_output_adapter@D@__crt_stdio_output@@@__crt_stdio_output@@IAE_NAA_J@Z 400202c0 f i libucrtd:output.obj
 0001:0001f420       ??$extract_argument_from_va_list@I_J@?$positional_parameter_base@_WV?$stream_output_adapter@_W@__crt_stdio_output@@@__crt_stdio_output@@IAE_NAA_J@Z 40020420 f i libucrtd:output.obj
 0001:0001f580       ??$extract_argument_from_va_list@I_J@?$positional_parameter_base@_WV?$string_output_adapter@_W@__crt_stdio_output@@@__crt_stdio_output@@IAE_NAA_J@Z 40020580 f i libucrtd:output.obj
 0001:0001f6e0       ??$extract_argument_from_va_list@I_J@?$standard_base@DV?$stream_output_adapter@D@__crt_stdio_output@@@__crt_stdio_output@@IAE_NAA_J@Z 400206e0 f i libucrtd:output.obj
 0001:0001f710       ??$extract_argument_from_va_list@I_J@?$standard_base@DV?$string_output_adapter@D@__crt_stdio_output@@@__crt_stdio_output@@IAE_NAA_J@Z 40020710 f i libucrtd:output.obj
 0001:0001f740       ??$extract_argument_from_va_list@I_J@?$standard_base@_WV?$stream_output_adapter@_W@__crt_stdio_output@@@__crt_stdio_output@@IAE_NAA_J@Z 40020740 f i libucrtd:output.obj
 0001:0001f770       ??$extract_argument_from_va_list@I_J@?$standard_base@_WV?$string_output_adapter@_W@__crt_stdio_output@@@__crt_stdio_output@@IAE_NAA_J@Z 40020770 f i libucrtd:output.obj
 0001:0001f7a0       ??$extract_argument_from_va_list@PADPAD@?$positional_parameter_base@DV?$stream_output_adapter@D@__crt_stdio_output@@@__crt_stdio_output@@IAE_NAAPAD@Z 400207a0 f i libucrtd:output.obj
 0001:0001f900       ??$extract_argument_from_va_list@PADPAD@?$positional_parameter_base@DV?$string_output_adapter@D@__crt_stdio_output@@@__crt_stdio_output@@IAE_NAAPAD@Z 40020900 f i libucrtd:output.obj
 0001:0001fa60       ??$extract_argument_from_va_list@PADPAD@?$positional_parameter_base@_WV?$stream_output_adapter@_W@__crt_stdio_output@@@__crt_stdio_output@@IAE_NAAPAD@Z 40020a60 f i libucrtd:output.obj
 0001:0001fbc0       ??$extract_argument_from_va_list@PADPAD@?$positional_parameter_base@_WV?$string_output_adapter@_W@__crt_stdio_output@@@__crt_stdio_output@@IAE_NAAPAD@Z 40020bc0 f i libucrtd:output.obj
 0001:0001fd20       ??$extract_argument_from_va_list@PADPAD@?$standard_base@DV?$stream_output_adapter@D@__crt_stdio_output@@@__crt_stdio_output@@IAE_NAAPAD@Z 40020d20 f i libucrtd:output.obj
 0001:0001fd50       ??$extract_argument_from_va_list@PADPAD@?$standard_base@DV?$string_output_adapter@D@__crt_stdio_output@@@__crt_stdio_output@@IAE_NAAPAD@Z 40020d50 f i libucrtd:output.obj
 0001:0001fd80       ??$extract_argument_from_va_list@PADPAD@?$standard_base@_WV?$stream_output_adapter@_W@__crt_stdio_output@@@__crt_stdio_output@@IAE_NAAPAD@Z 40020d80 f i libucrtd:output.obj
 0001:0001fdb0       ??$extract_argument_from_va_list@PADPAD@?$standard_base@_WV?$string_output_adapter@_W@__crt_stdio_output@@@__crt_stdio_output@@IAE_NAAPAD@Z 40020db0 f i libucrtd:output.obj
 0001:0001fde0       ??$extract_argument_from_va_list@PAUansi_string@?1??type_case_Z@?$output_processor@DV?$stream_output_adapter@D@__crt_stdio_output@@V?$format_validation_base@DV?$stream_output_adapter@D@__crt_stdio_output@@@2@@__crt_stdio_output@@AAE_NXZ@PAU1?1??234@AAE_NXZ@@?$standard_base@DV?$stream_output_adapter@D@__crt_stdio_output@@@__crt_stdio_output@@IAE_NAAPAUansi_string@?1??type_case_Z@?$output_processor@DV?$stream_output_adapter@D@__crt_stdio_output@@V?$format_validation_base@DV?$stream_output_adapter@D@__crt_stdio_output@@@2@@1@AAE_NXZ@@Z 40020de0 f i libucrtd:output.obj
 0001:0001fe10       ??$extract_argument_from_va_list@PAUansi_string@?1??type_case_Z@?$output_processor@DV?$stream_output_adapter@D@__crt_stdio_output@@V?$positional_parameter_base@DV?$stream_output_adapter@D@__crt_stdio_output@@@2@@__crt_stdio_output@@AAE_NXZ@PAU1?1??234@AAE_NXZ@@?$positional_parameter_base@DV?$stream_output_adapter@D@__crt_stdio_output@@@__crt_stdio_output@@IAE_NAAPAUansi_string@?1??type_case_Z@?$output_processor@DV?$stream_output_adapter@D@__crt_stdio_output@@V?$positional_parameter_base@DV?$stream_output_adapter@D@__crt_stdio_output@@@2@@1@AAE_NXZ@@Z 40020e10 f i libucrtd:output.obj
 0001:0001ff70       ??$extract_argument_from_va_list@PAUansi_string@?1??type_case_Z@?$output_processor@DV?$stream_output_adapter@D@__crt_stdio_output@@V?$positional_parameter_base@DV?$stream_output_adapter@D@__crt_stdio_output@@@2@@__crt_stdio_output@@AAE_NXZ@PAU1?1??234@AAE_NXZ@@?$standard_base@DV?$stream_output_adapter@D@__crt_stdio_output@@@__crt_stdio_output@@IAE_NAAPAUansi_string@?1??type_case_Z@?$output_processor@DV?$stream_output_adapter@D@__crt_stdio_output@@V?$positional_parameter_base@DV?$stream_output_adapter@D@__crt_stdio_output@@@2@@1@AAE_NXZ@@Z 40020f70 f i libucrtd:output.obj
 0001:0001ffa0       ??$extract_argument_from_va_list@PAUansi_string@?1??type_case_Z@?$output_processor@DV?$stream_output_adapter@D@__crt_stdio_output@@V?$standard_base@DV?$stream_output_adapter@D@__crt_stdio_output@@@2@@__crt_stdio_output@@AAE_NXZ@PAU1?1??234@AAE_NXZ@@?$standard_base@DV?$stream_output_adapter@D@__crt_stdio_output@@@__crt_stdio_output@@IAE_NAAPAUansi_string@?1??type_case_Z@?$output_processor@DV?$stream_output_adapter@D@__crt_stdio_output@@V?$standard_base@DV?$stream_output_adapter@D@__crt_stdio_output@@@2@@1@AAE_NXZ@@Z 40020fa0 f i libucrtd:output.obj
 0001:0001ffd0       ??$extract_argument_from_va_list@PAUansi_string@?1??type_case_Z@?$output_processor@DV?$string_output_adapter@D@__crt_stdio_output@@V?$format_validation_base@DV?$string_output_adapter@D@__crt_stdio_output@@@2@@__crt_stdio_output@@AAE_NXZ@PAU1?1??234@AAE_NXZ@@?$standard_base@DV?$string_output_adapter@D@__crt_stdio_output@@@__crt_stdio_output@@IAE_NAAPAUansi_string@?1??type_case_Z@?$output_processor@DV?$string_output_adapter@D@__crt_stdio_output@@V?$format_validation_base@DV?$string_output_adapter@D@__crt_stdio_output@@@2@@1@AAE_NXZ@@Z 40020fd0 f i libucrtd:output.obj
 0001:00020000       ??$extract_argument_from_va_list@PAUansi_string@?1??type_case_Z@?$output_processor@DV?$string_output_adapter@D@__crt_stdio_output@@V?$positional_parameter_base@DV?$string_output_adapter@D@__crt_stdio_output@@@2@@__crt_stdio_output@@AAE_NXZ@PAU1?1??234@AAE_NXZ@@?$positional_parameter_base@DV?$string_output_adapter@D@__crt_stdio_output@@@__crt_stdio_output@@IAE_NAAPAUansi_string@?1??type_case_Z@?$output_processor@DV?$string_output_adapter@D@__crt_stdio_output@@V?$positional_parameter_base@DV?$string_output_adapter@D@__crt_stdio_output@@@2@@1@AAE_NXZ@@Z 40021000 f i libucrtd:output.obj
 0001:00020160       ??$extract_argument_from_va_list@PAUansi_string@?1??type_case_Z@?$output_processor@DV?$string_output_adapter@D@__crt_stdio_output@@V?$positional_parameter_base@DV?$string_output_adapter@D@__crt_stdio_output@@@2@@__crt_stdio_output@@AAE_NXZ@PAU1?1??234@AAE_NXZ@@?$standard_base@DV?$string_output_adapter@D@__crt_stdio_output@@@__crt_stdio_output@@IAE_NAAPAUansi_string@?1??type_case_Z@?$output_processor@DV?$string_output_adapter@D@__crt_stdio_output@@V?$positional_parameter_base@DV?$string_output_adapter@D@__crt_stdio_output@@@2@@1@AAE_NXZ@@Z 40021160 f i libucrtd:output.obj
 0001:00020190       ??$extract_argument_from_va_list@PAUansi_string@?1??type_case_Z@?$output_processor@DV?$string_output_adapter@D@__crt_stdio_output@@V?$standard_base@DV?$string_output_adapter@D@__crt_stdio_output@@@2@@__crt_stdio_output@@AAE_NXZ@PAU1?1??234@AAE_NXZ@@?$standard_base@DV?$string_output_adapter@D@__crt_stdio_output@@@__crt_stdio_output@@IAE_NAAPAUansi_string@?1??type_case_Z@?$output_processor@DV?$string_output_adapter@D@__crt_stdio_output@@V?$standard_base@DV?$string_output_adapter@D@__crt_stdio_output@@@2@@1@AAE_NXZ@@Z 40021190 f i libucrtd:output.obj
 0001:000201c0       ??$extract_argument_from_va_list@PAUansi_string@?1??type_case_Z@?$output_processor@_WV?$stream_output_adapter@_W@__crt_stdio_output@@V?$format_validation_base@_WV?$stream_output_adapter@_W@__crt_stdio_output@@@2@@__crt_stdio_output@@AAE_NXZ@PAU1?1??234@AAE_NXZ@@?$standard_base@_WV?$stream_output_adapter@_W@__crt_stdio_output@@@__crt_stdio_output@@IAE_NAAPAUansi_string@?1??type_case_Z@?$output_processor@_WV?$stream_output_adapter@_W@__crt_stdio_output@@V?$format_validation_base@_WV?$stream_output_adapter@_W@__crt_stdio_output@@@2@@1@AAE_NXZ@@Z 400211c0 f i libucrtd:output.obj
 0001:000201f0       ??$extract_argument_from_va_list@PAUansi_string@?1??type_case_Z@?$output_processor@_WV?$stream_output_adapter@_W@__crt_stdio_output@@V?$positional_parameter_base@_WV?$stream_output_adapter@_W@__crt_stdio_output@@@2@@__crt_stdio_output@@AAE_NXZ@PAU1?1??234@AAE_NXZ@@?$positional_parameter_base@_WV?$stream_output_adapter@_W@__crt_stdio_output@@@__crt_stdio_output@@IAE_NAAPAUansi_string@?1??type_case_Z@?$output_processor@_WV?$stream_output_adapter@_W@__crt_stdio_output@@V?$positional_parameter_base@_WV?$stream_output_adapter@_W@__crt_stdio_output@@@2@@1@AAE_NXZ@@Z 400211f0 f i libucrtd:output.obj
 0001:00020350       ??$extract_argument_from_va_list@PAUansi_string@?1??type_case_Z@?$output_processor@_WV?$stream_output_adapter@_W@__crt_stdio_output@@V?$positional_parameter_base@_WV?$stream_output_adapter@_W@__crt_stdio_output@@@2@@__crt_stdio_output@@AAE_NXZ@PAU1?1??234@AAE_NXZ@@?$standard_base@_WV?$stream_output_adapter@_W@__crt_stdio_output@@@__crt_stdio_output@@IAE_NAAPAUansi_string@?1??type_case_Z@?$output_processor@_WV?$stream_output_adapter@_W@__crt_stdio_output@@V?$positional_parameter_base@_WV?$stream_output_adapter@_W@__crt_stdio_output@@@2@@1@AAE_NXZ@@Z 40021350 f i libucrtd:output.obj
 0001:00020380       ??$extract_argument_from_va_list@PAUansi_string@?1??type_case_Z@?$output_processor@_WV?$stream_output_adapter@_W@__crt_stdio_output@@V?$standard_base@_WV?$stream_output_adapter@_W@__crt_stdio_output@@@2@@__crt_stdio_output@@AAE_NXZ@PAU1?1??234@AAE_NXZ@@?$standard_base@_WV?$stream_output_adapter@_W@__crt_stdio_output@@@__crt_stdio_output@@IAE_NAAPAUansi_string@?1??type_case_Z@?$output_processor@_WV?$stream_output_adapter@_W@__crt_stdio_output@@V?$standard_base@_WV?$stream_output_adapter@_W@__crt_stdio_output@@@2@@1@AAE_NXZ@@Z 40021380 f i libucrtd:output.obj
 0001:000203b0       ??$extract_argument_from_va_list@PAUansi_string@?1??type_case_Z@?$output_processor@_WV?$string_output_adapter@_W@__crt_stdio_output@@V?$format_validation_base@_WV?$string_output_adapter@_W@__crt_stdio_output@@@2@@__crt_stdio_output@@AAE_NXZ@PAU1?1??234@AAE_NXZ@@?$standard_base@_WV?$string_output_adapter@_W@__crt_stdio_output@@@__crt_stdio_output@@IAE_NAAPAUansi_string@?1??type_case_Z@?$output_processor@_WV?$string_output_adapter@_W@__crt_stdio_output@@V?$format_validation_base@_WV?$string_output_adapter@_W@__crt_stdio_output@@@2@@1@AAE_NXZ@@Z 400213b0 f i libucrtd:output.obj
 0001:000203e0       ??$extract_argument_from_va_list@PAUansi_string@?1??type_case_Z@?$output_processor@_WV?$string_output_adapter@_W@__crt_stdio_output@@V?$positional_parameter_base@_WV?$string_output_adapter@_W@__crt_stdio_output@@@2@@__crt_stdio_output@@AAE_NXZ@PAU1?1??234@AAE_NXZ@@?$positional_parameter_base@_WV?$string_output_adapter@_W@__crt_stdio_output@@@__crt_stdio_output@@IAE_NAAPAUansi_string@?1??type_case_Z@?$output_processor@_WV?$string_output_adapter@_W@__crt_stdio_output@@V?$positional_parameter_base@_WV?$string_output_adapter@_W@__crt_stdio_output@@@2@@1@AAE_NXZ@@Z 400213e0 f i libucrtd:output.obj
 0001:00020540       ??$extract_argument_from_va_list@PAUansi_string@?1??type_case_Z@?$output_processor@_WV?$string_output_adapter@_W@__crt_stdio_output@@V?$positional_parameter_base@_WV?$string_output_adapter@_W@__crt_stdio_output@@@2@@__crt_stdio_output@@AAE_NXZ@PAU1?1??234@AAE_NXZ@@?$standard_base@_WV?$string_output_adapter@_W@__crt_stdio_output@@@__crt_stdio_output@@IAE_NAAPAUansi_string@?1??type_case_Z@?$output_processor@_WV?$string_output_adapter@_W@__crt_stdio_output@@V?$positional_parameter_base@_WV?$string_output_adapter@_W@__crt_stdio_output@@@2@@1@AAE_NXZ@@Z 40021540 f i libucrtd:output.obj
 0001:00020570       ??$extract_argument_from_va_list@PAUansi_string@?1??type_case_Z@?$output_processor@_WV?$string_output_adapter@_W@__crt_stdio_output@@V?$standard_base@_WV?$string_output_adapter@_W@__crt_stdio_output@@@2@@__crt_stdio_output@@AAE_NXZ@PAU1?1??234@AAE_NXZ@@?$standard_base@_WV?$string_output_adapter@_W@__crt_stdio_output@@@__crt_stdio_output@@IAE_NAAPAUansi_string@?1??type_case_Z@?$output_processor@_WV?$string_output_adapter@_W@__crt_stdio_output@@V?$standard_base@_WV?$string_output_adapter@_W@__crt_stdio_output@@@2@@1@AAE_NXZ@@Z 40021570 f i libucrtd:output.obj
 0001:000205a0       ??$extract_argument_from_va_list@PAXPAX@?$positional_parameter_base@DV?$stream_output_adapter@D@__crt_stdio_output@@@__crt_stdio_output@@IAE_NAAPAX@Z 400215a0 f i libucrtd:output.obj
 0001:00020700       ??$extract_argument_from_va_list@PAXPAX@?$positional_parameter_base@DV?$string_output_adapter@D@__crt_stdio_output@@@__crt_stdio_output@@IAE_NAAPAX@Z 40021700 f i libucrtd:output.obj
 0001:00020860       ??$extract_argument_from_va_list@PAXPAX@?$positional_parameter_base@_WV?$stream_output_adapter@_W@__crt_stdio_output@@@__crt_stdio_output@@IAE_NAAPAX@Z 40021860 f i libucrtd:output.obj
 0001:000209c0       ??$extract_argument_from_va_list@PAXPAX@?$positional_parameter_base@_WV?$string_output_adapter@_W@__crt_stdio_output@@@__crt_stdio_output@@IAE_NAAPAX@Z 400219c0 f i libucrtd:output.obj
 0001:00020b20       ??$extract_argument_from_va_list@PAXPAX@?$standard_base@DV?$stream_output_adapter@D@__crt_stdio_output@@@__crt_stdio_output@@IAE_NAAPAX@Z 40021b20 f i libucrtd:output.obj
 0001:00020b50       ??$extract_argument_from_va_list@PAXPAX@?$standard_base@DV?$string_output_adapter@D@__crt_stdio_output@@@__crt_stdio_output@@IAE_NAAPAX@Z 40021b50 f i libucrtd:output.obj
 0001:00020b80       ??$extract_argument_from_va_list@PAXPAX@?$standard_base@_WV?$stream_output_adapter@_W@__crt_stdio_output@@@__crt_stdio_output@@IAE_NAAPAX@Z 40021b80 f i libucrtd:output.obj
 0001:00020bb0       ??$extract_argument_from_va_list@PAXPAX@?$standard_base@_WV?$string_output_adapter@_W@__crt_stdio_output@@@__crt_stdio_output@@IAE_NAAPAX@Z 40021bb0 f i libucrtd:output.obj
 0001:00020be0       ??$extract_argument_from_va_list@U_CRT_DOUBLE@@U1@@?$positional_parameter_base@DV?$stream_output_adapter@D@__crt_stdio_output@@@__crt_stdio_output@@IAE_NAAU_CRT_DOUBLE@@@Z 40021be0 f i libucrtd:output.obj
 0001:00020d60       ??$extract_argument_from_va_list@U_CRT_DOUBLE@@U1@@?$positional_parameter_base@DV?$string_output_adapter@D@__crt_stdio_output@@@__crt_stdio_output@@IAE_NAAU_CRT_DOUBLE@@@Z 40021d60 f i libucrtd:output.obj
 0001:00020ee0       ??$extract_argument_from_va_list@U_CRT_DOUBLE@@U1@@?$positional_parameter_base@_WV?$stream_output_adapter@_W@__crt_stdio_output@@@__crt_stdio_output@@IAE_NAAU_CRT_DOUBLE@@@Z 40021ee0 f i libucrtd:output.obj
 0001:00021060       ??$extract_argument_from_va_list@U_CRT_DOUBLE@@U1@@?$positional_parameter_base@_WV?$string_output_adapter@_W@__crt_stdio_output@@@__crt_stdio_output@@IAE_NAAU_CRT_DOUBLE@@@Z 40022060 f i libucrtd:output.obj
 0001:000211e0       ??$extract_argument_from_va_list@U_CRT_DOUBLE@@U1@@?$standard_base@DV?$stream_output_adapter@D@__crt_stdio_output@@@__crt_stdio_output@@IAE_NAAU_CRT_DOUBLE@@@Z 400221e0 f i libucrtd:output.obj
 0001:00021220       ??$extract_argument_from_va_list@U_CRT_DOUBLE@@U1@@?$standard_base@DV?$string_output_adapter@D@__crt_stdio_output@@@__crt_stdio_output@@IAE_NAAU_CRT_DOUBLE@@@Z 40022220 f i libucrtd:output.obj
 0001:00021260       ??$extract_argument_from_va_list@U_CRT_DOUBLE@@U1@@?$standard_base@_WV?$stream_output_adapter@_W@__crt_stdio_output@@@__crt_stdio_output@@IAE_NAAU_CRT_DOUBLE@@@Z 40022260 f i libucrtd:output.obj
 0001:000212a0       ??$extract_argument_from_va_list@U_CRT_DOUBLE@@U1@@?$standard_base@_WV?$string_output_adapter@_W@__crt_stdio_output@@@__crt_stdio_output@@IAE_NAAU_CRT_DOUBLE@@@Z 400222a0 f i libucrtd:output.obj
 0001:000212e0       ??$extract_argument_from_va_list@_J_J@?$positional_parameter_base@DV?$stream_output_adapter@D@__crt_stdio_output@@@__crt_stdio_output@@IAE_NAA_J@Z 400222e0 f i libucrtd:output.obj
 0001:00021440       ??$extract_argument_from_va_list@_J_J@?$positional_parameter_base@DV?$string_output_adapter@D@__crt_stdio_output@@@__crt_stdio_output@@IAE_NAA_J@Z 40022440 f i libucrtd:output.obj
 0001:000215a0       ??$extract_argument_from_va_list@_J_J@?$positional_parameter_base@_WV?$stream_output_adapter@_W@__crt_stdio_output@@@__crt_stdio_output@@IAE_NAA_J@Z 400225a0 f i libucrtd:output.obj
 0001:00021700       ??$extract_argument_from_va_list@_J_J@?$positional_parameter_base@_WV?$string_output_adapter@_W@__crt_stdio_output@@@__crt_stdio_output@@IAE_NAA_J@Z 40022700 f i libucrtd:output.obj
 0001:00021860       ??$extract_argument_from_va_list@_J_J@?$standard_base@DV?$stream_output_adapter@D@__crt_stdio_output@@@__crt_stdio_output@@IAE_NAA_J@Z 40022860 f i libucrtd:output.obj
 0001:00021890       ??$extract_argument_from_va_list@_J_J@?$standard_base@DV?$string_output_adapter@D@__crt_stdio_output@@@__crt_stdio_output@@IAE_NAA_J@Z 40022890 f i libucrtd:output.obj
 0001:000218c0       ??$extract_argument_from_va_list@_J_J@?$standard_base@_WV?$stream_output_adapter@_W@__crt_stdio_output@@@__crt_stdio_output@@IAE_NAA_J@Z 400228c0 f i libucrtd:output.obj
 0001:000218f0       ??$extract_argument_from_va_list@_J_J@?$standard_base@_WV?$string_output_adapter@_W@__crt_stdio_output@@@__crt_stdio_output@@IAE_NAA_J@Z 400228f0 f i libucrtd:output.obj
 0001:00021920       ??$extract_argument_from_va_list@_K_J@?$positional_parameter_base@DV?$stream_output_adapter@D@__crt_stdio_output@@@__crt_stdio_output@@IAE_NAA_J@Z 40022920 f i libucrtd:output.obj
 0001:00021a80       ??$extract_argument_from_va_list@_K_J@?$positional_parameter_base@DV?$string_output_adapter@D@__crt_stdio_output@@@__crt_stdio_output@@IAE_NAA_J@Z 40022a80 f i libucrtd:output.obj
 0001:00021be0       ??$extract_argument_from_va_list@_K_J@?$positional_parameter_base@_WV?$stream_output_adapter@_W@__crt_stdio_output@@@__crt_stdio_output@@IAE_NAA_J@Z 40022be0 f i libucrtd:output.obj
 0001:00021d40       ??$extract_argument_from_va_list@_K_J@?$positional_parameter_base@_WV?$string_output_adapter@_W@__crt_stdio_output@@@__crt_stdio_output@@IAE_NAA_J@Z 40022d40 f i libucrtd:output.obj
 0001:00021ea0       ??$extract_argument_from_va_list@_K_J@?$standard_base@DV?$stream_output_adapter@D@__crt_stdio_output@@@__crt_stdio_output@@IAE_NAA_J@Z 40022ea0 f i libucrtd:output.obj
 0001:00021ed0       ??$extract_argument_from_va_list@_K_J@?$standard_base@DV?$string_output_adapter@D@__crt_stdio_output@@@__crt_stdio_output@@IAE_NAA_J@Z 40022ed0 f i libucrtd:output.obj
 0001:00021f00       ??$extract_argument_from_va_list@_K_J@?$standard_base@_WV?$stream_output_adapter@_W@__crt_stdio_output@@@__crt_stdio_output@@IAE_NAA_J@Z 40022f00 f i libucrtd:output.obj
 0001:00021f30       ??$extract_argument_from_va_list@_K_J@?$standard_base@_WV?$string_output_adapter@_W@__crt_stdio_output@@@__crt_stdio_output@@IAE_NAA_J@Z 40022f30 f i libucrtd:output.obj
 0001:00021f60       ??$extract_argument_from_va_list@_W_W@?$positional_parameter_base@DV?$stream_output_adapter@D@__crt_stdio_output@@@__crt_stdio_output@@IAE_NAA_W@Z 40022f60 f i libucrtd:output.obj
 0001:000220c0       ??$extract_argument_from_va_list@_W_W@?$positional_parameter_base@DV?$string_output_adapter@D@__crt_stdio_output@@@__crt_stdio_output@@IAE_NAA_W@Z 400230c0 f i libucrtd:output.obj
 0001:00022220       ??$extract_argument_from_va_list@_W_W@?$positional_parameter_base@_WV?$stream_output_adapter@_W@__crt_stdio_output@@@__crt_stdio_output@@IAE_NAA_W@Z 40023220 f i libucrtd:output.obj
 0001:00022380       ??$extract_argument_from_va_list@_W_W@?$positional_parameter_base@_WV?$string_output_adapter@_W@__crt_stdio_output@@@__crt_stdio_output@@IAE_NAA_W@Z 40023380 f i libucrtd:output.obj
 0001:000224e0       ??$extract_argument_from_va_list@_W_W@?$standard_base@DV?$stream_output_adapter@D@__crt_stdio_output@@@__crt_stdio_output@@IAE_NAA_W@Z 400234e0 f i libucrtd:output.obj
 0001:00022510       ??$extract_argument_from_va_list@_W_W@?$standard_base@DV?$string_output_adapter@D@__crt_stdio_output@@@__crt_stdio_output@@IAE_NAA_W@Z 40023510 f i libucrtd:output.obj
 0001:00022540       ??$extract_argument_from_va_list@_W_W@?$standard_base@_WV?$stream_output_adapter@_W@__crt_stdio_output@@@__crt_stdio_output@@IAE_NAA_W@Z 40023540 f i libucrtd:output.obj
 0001:00022570       ??$extract_argument_from_va_list@_W_W@?$standard_base@_WV?$string_output_adapter@_W@__crt_stdio_output@@@__crt_stdio_output@@IAE_NAA_W@Z 40023570 f i libucrtd:output.obj
 0001:000225a0       ??$get_parameter_type@D@?$positional_parameter_base@DV?$stream_output_adapter@D@__crt_stdio_output@@@__crt_stdio_output@@CA?AW4parameter_type@01@PAD@Z 400235a0 f i libucrtd:output.obj
 0001:000225b0       ??$get_parameter_type@D@?$positional_parameter_base@DV?$string_output_adapter@D@__crt_stdio_output@@@__crt_stdio_output@@CA?AW4parameter_type@01@PAD@Z 400235b0 f i libucrtd:output.obj
 0001:000225c0       ??$get_parameter_type@D@?$positional_parameter_base@_WV?$stream_output_adapter@_W@__crt_stdio_output@@@__crt_stdio_output@@CA?AW4parameter_type@01@PAD@Z 400235c0 f i libucrtd:output.obj
 0001:000225d0       ??$get_parameter_type@D@?$positional_parameter_base@_WV?$string_output_adapter@_W@__crt_stdio_output@@@__crt_stdio_output@@CA?AW4parameter_type@01@PAD@Z 400235d0 f i libucrtd:output.obj
 0001:000225e0       ??$get_parameter_type@Uansi_string@?1??type_case_Z@?$output_processor@DV?$stream_output_adapter@D@__crt_stdio_output@@V?$positional_parameter_base@DV?$stream_output_adapter@D@__crt_stdio_output@@@2@@__crt_stdio_output@@AAE_NXZ@@?$positional_parameter_base@DV?$stream_output_adapter@D@__crt_stdio_output@@@__crt_stdio_output@@CA?AW4parameter_type@01@PAUansi_string@?1??type_case_Z@?$output_processor@DV?$stream_output_adapter@D@__crt_stdio_output@@V?$positional_parameter_base@DV?$stream_output_adapter@D@__crt_stdio_output@@@2@@1@AAE_NXZ@@Z 400235e0 f i libucrtd:output.obj
 0001:000225f0       ??$get_parameter_type@Uansi_string@?1??type_case_Z@?$output_processor@DV?$string_output_adapter@D@__crt_stdio_output@@V?$positional_parameter_base@DV?$string_output_adapter@D@__crt_stdio_output@@@2@@__crt_stdio_output@@AAE_NXZ@@?$positional_parameter_base@DV?$string_output_adapter@D@__crt_stdio_output@@@__crt_stdio_output@@CA?AW4parameter_type@01@PAUansi_string@?1??type_case_Z@?$output_processor@DV?$string_output_adapter@D@__crt_stdio_output@@V?$positional_parameter_base@DV?$string_output_adapter@D@__crt_stdio_output@@@2@@1@AAE_NXZ@@Z 400235f0 f i libucrtd:output.obj
 0001:00022600       ??$get_parameter_type@Uansi_string@?1??type_case_Z@?$output_processor@_WV?$stream_output_adapter@_W@__crt_stdio_output@@V?$positional_parameter_base@_WV?$stream_output_adapter@_W@__crt_stdio_output@@@2@@__crt_stdio_output@@AAE_NXZ@@?$positional_parameter_base@_WV?$stream_output_adapter@_W@__crt_stdio_output@@@__crt_stdio_output@@CA?AW4parameter_type@01@PAUansi_string@?1??type_case_Z@?$output_processor@_WV?$stream_output_adapter@_W@__crt_stdio_output@@V?$positional_parameter_base@_WV?$stream_output_adapter@_W@__crt_stdio_output@@@2@@1@AAE_NXZ@@Z 40023600 f i libucrtd:output.obj
 0001:00022610       ??$get_parameter_type@Uansi_string@?1??type_case_Z@?$output_processor@_WV?$string_output_adapter@_W@__crt_stdio_output@@V?$positional_parameter_base@_WV?$string_output_adapter@_W@__crt_stdio_output@@@2@@__crt_stdio_output@@AAE_NXZ@@?$positional_parameter_base@_WV?$string_output_adapter@_W@__crt_stdio_output@@@__crt_stdio_output@@CA?AW4parameter_type@01@PAUansi_string@?1??type_case_Z@?$output_processor@_WV?$string_output_adapter@_W@__crt_stdio_output@@V?$positional_parameter_base@_WV?$string_output_adapter@_W@__crt_stdio_output@@@2@@1@AAE_NXZ@@Z 40023610 f i libucrtd:output.obj
 0001:00022620       ??$get_parameter_type@X@?$positional_parameter_base@DV?$stream_output_adapter@D@__crt_stdio_output@@@__crt_stdio_output@@CA?AW4parameter_type@01@PAX@Z 40023620 f i libucrtd:output.obj
 0001:00022630       ??$get_parameter_type@X@?$positional_parameter_base@DV?$string_output_adapter@D@__crt_stdio_output@@@__crt_stdio_output@@CA?AW4parameter_type@01@PAX@Z 40023630 f i libucrtd:output.obj
 0001:00022640       ??$get_parameter_type@X@?$positional_parameter_base@_WV?$stream_output_adapter@_W@__crt_stdio_output@@@__crt_stdio_output@@CA?AW4parameter_type@01@PAX@Z 40023640 f i libucrtd:output.obj
 0001:00022650       ??$get_parameter_type@X@?$positional_parameter_base@_WV?$string_output_adapter@_W@__crt_stdio_output@@@__crt_stdio_output@@CA?AW4parameter_type@01@PAX@Z 40023650 f i libucrtd:output.obj
 0001:00022660       ??$is_character_specifier@D@?$positional_parameter_base@DV?$stream_output_adapter@D@__crt_stdio_output@@@__crt_stdio_output@@CA_ND@Z 40023660 f i libucrtd:output.obj
 0001:00022690       ??$is_character_specifier@D@?$positional_parameter_base@DV?$string_output_adapter@D@__crt_stdio_output@@@__crt_stdio_output@@CA_ND@Z 40023690 f i libucrtd:output.obj
 0001:000226c0       ??$is_character_specifier@_W@?$positional_parameter_base@_WV?$stream_output_adapter@_W@__crt_stdio_output@@@__crt_stdio_output@@CA_N_W@Z 400236c0 f i libucrtd:output.obj
 0001:000226f0       ??$is_character_specifier@_W@?$positional_parameter_base@_WV?$string_output_adapter@_W@__crt_stdio_output@@@__crt_stdio_output@@CA_N_W@Z 400236f0 f i libucrtd:output.obj
 0001:00022720       ??$is_integral_specifier@D@?$positional_parameter_base@DV?$stream_output_adapter@D@__crt_stdio_output@@@__crt_stdio_output@@CA_ND@Z 40023720 f i libucrtd:output.obj
 0001:00022780       ??$is_integral_specifier@D@?$positional_parameter_base@DV?$string_output_adapter@D@__crt_stdio_output@@@__crt_stdio_output@@CA_ND@Z 40023780 f i libucrtd:output.obj
 0001:000227e0       ??$is_integral_specifier@_W@?$positional_parameter_base@_WV?$stream_output_adapter@_W@__crt_stdio_output@@@__crt_stdio_output@@CA_N_W@Z 400237e0 f i libucrtd:output.obj
 0001:00022840       ??$is_integral_specifier@_W@?$positional_parameter_base@_WV?$string_output_adapter@_W@__crt_stdio_output@@@__crt_stdio_output@@CA_N_W@Z 40023840 f i libucrtd:output.obj
 0001:000228a0       ??$is_overflow_condition@K@__crt_strtox@@YA_NIK@Z 400238a0 f i libucrtd:output.obj
 0001:00022900       ??$is_pointer_specifier@D@?$positional_parameter_base@DV?$stream_output_adapter@D@__crt_stdio_output@@@__crt_stdio_output@@CA_ND@Z 40023900 f i libucrtd:output.obj
 0001:00022930       ??$is_pointer_specifier@D@?$positional_parameter_base@DV?$string_output_adapter@D@__crt_stdio_output@@@__crt_stdio_output@@CA_ND@Z 40023930 f i libucrtd:output.obj
 0001:00022960       ??$is_pointer_specifier@_W@?$positional_parameter_base@_WV?$stream_output_adapter@_W@__crt_stdio_output@@@__crt_stdio_output@@CA_N_W@Z 40023960 f i libucrtd:output.obj
 0001:00022990       ??$is_pointer_specifier@_W@?$positional_parameter_base@_WV?$string_output_adapter@_W@__crt_stdio_output@@@__crt_stdio_output@@CA_N_W@Z 40023990 f i libucrtd:output.obj
 0001:000229c0       ??$is_string_specifier@D@?$positional_parameter_base@DV?$stream_output_adapter@D@__crt_stdio_output@@@__crt_stdio_output@@CA_ND@Z 400239c0 f i libucrtd:output.obj
 0001:000229f0       ??$is_string_specifier@D@?$positional_parameter_base@DV?$string_output_adapter@D@__crt_stdio_output@@@__crt_stdio_output@@CA_ND@Z 400239f0 f i libucrtd:output.obj
 0001:00022a20       ??$is_string_specifier@_W@?$positional_parameter_base@_WV?$stream_output_adapter@_W@__crt_stdio_output@@@__crt_stdio_output@@CA_N_W@Z 40023a20 f i libucrtd:output.obj
 0001:00022a50       ??$is_string_specifier@_W@?$positional_parameter_base@_WV?$string_output_adapter@_W@__crt_stdio_output@@@__crt_stdio_output@@CA_N_W@Z 40023a50 f i libucrtd:output.obj
 0001:00022a80       ??$is_wide_character_specifier@D@__crt_stdio_output@@YA_N_KDW4length_modifier@0@@Z 40023a80 f i libucrtd:output.obj
 0001:00022b00       ??$is_wide_character_specifier@_W@__crt_stdio_output@@YA_N_K_WW4length_modifier@0@@Z 40023b00 f i libucrtd:output.obj
 0001:00022bc0       ??$make_c_string_character_source@DPAPAD@__crt_strtox@@YA?AV?$c_string_character_source@D@0@QBDQAPAD@Z 40023bc0 f i libucrtd:output.obj
 0001:00022be0       ??$make_c_string_character_source@_WPAPA_W@__crt_strtox@@YA?AV?$c_string_character_source@_W@0@QB_WQAPA_W@Z 40023be0 f i libucrtd:output.obj
 0001:00022c00       ??$parse_integer@KV?$c_string_character_source@D@__crt_strtox@@$0A@@__crt_strtox@@YAKAAV__crt_cached_ptd_host@@V?$c_string_character_source@D@0@H_N@Z 40023c00 f i libucrtd:output.obj
 0001:00022f30       ??$parse_integer@KV?$c_string_character_source@_W@__crt_strtox@@$0A@@__crt_strtox@@YAKAAV__crt_cached_ptd_host@@V?$c_string_character_source@_W@0@H_N@Z 40023f30 f i libucrtd:output.obj
 0001:00023270       ??$peek_va_arg@C@__crt_stdio_output@@YACPAD@Z 40024270 f i libucrtd:output.obj
 0001:00023290       ??$peek_va_arg@E@__crt_stdio_output@@YAEPAD@Z 40024290 f i libucrtd:output.obj
 0001:000232b0       ??$peek_va_arg@F@__crt_stdio_output@@YAFPAD@Z 400242b0 f i libucrtd:output.obj
 0001:000232d0       ??$peek_va_arg@G@__crt_stdio_output@@YAGPAD@Z 400242d0 f i libucrtd:output.obj
 0001:000232f0       ??$peek_va_arg@H@__crt_stdio_output@@YAHPAD@Z 400242f0 f i libucrtd:output.obj
 0001:00023310       ??$peek_va_arg@I@__crt_stdio_output@@YAIPAD@Z 40024310 f i libucrtd:output.obj
 0001:00023330       ??$peek_va_arg@PAD@__crt_stdio_output@@YAPADPAD@Z 40024330 f i libucrtd:output.obj
 0001:00023350       ??$peek_va_arg@PAUansi_string@?1??type_case_Z@?$output_processor@DV?$stream_output_adapter@D@__crt_stdio_output@@V?$positional_parameter_base@DV?$stream_output_adapter@D@__crt_stdio_output@@@2@@__crt_stdio_output@@AAE_NXZ@@__crt_stdio_output@@YAPAUansi_string@?1??type_case_Z@?$output_processor@DV?$stream_output_adapter@D@__crt_stdio_output@@V?$positional_parameter_base@DV?$stream_output_adapter@D@__crt_stdio_output@@@2@@0@AAE_NXZ@PAD@Z 40024350 f i libucrtd:output.obj
 0001:00023370       ??$peek_va_arg@PAUansi_string@?1??type_case_Z@?$output_processor@DV?$string_output_adapter@D@__crt_stdio_output@@V?$positional_parameter_base@DV?$string_output_adapter@D@__crt_stdio_output@@@2@@__crt_stdio_output@@AAE_NXZ@@__crt_stdio_output@@YAPAUansi_string@?1??type_case_Z@?$output_processor@DV?$string_output_adapter@D@__crt_stdio_output@@V?$positional_parameter_base@DV?$string_output_adapter@D@__crt_stdio_output@@@2@@0@AAE_NXZ@PAD@Z 40024370 f i libucrtd:output.obj
 0001:00023390       ??$peek_va_arg@PAUansi_string@?1??type_case_Z@?$output_processor@_WV?$stream_output_adapter@_W@__crt_stdio_output@@V?$positional_parameter_base@_WV?$stream_output_adapter@_W@__crt_stdio_output@@@2@@__crt_stdio_output@@AAE_NXZ@@__crt_stdio_output@@YAPAUansi_string@?1??type_case_Z@?$output_processor@_WV?$stream_output_adapter@_W@__crt_stdio_output@@V?$positional_parameter_base@_WV?$stream_output_adapter@_W@__crt_stdio_output@@@2@@0@AAE_NXZ@PAD@Z 40024390 f i libucrtd:output.obj
 0001:000233b0       ??$peek_va_arg@PAUansi_string@?1??type_case_Z@?$output_processor@_WV?$string_output_adapter@_W@__crt_stdio_output@@V?$positional_parameter_base@_WV?$string_output_adapter@_W@__crt_stdio_output@@@2@@__crt_stdio_output@@AAE_NXZ@@__crt_stdio_output@@YAPAUansi_string@?1??type_case_Z@?$output_processor@_WV?$string_output_adapter@_W@__crt_stdio_output@@V?$positional_parameter_base@_WV?$string_output_adapter@_W@__crt_stdio_output@@@2@@0@AAE_NXZ@PAD@Z 400243b0 f i libucrtd:output.obj
 0001:000233d0       ??$peek_va_arg@PAX@__crt_stdio_output@@YAPAXPAD@Z 400243d0 f i libucrtd:output.obj
 0001:000233f0       ??$peek_va_arg@U_CRT_DOUBLE@@@__crt_stdio_output@@YA?AU_CRT_DOUBLE@@PAD@Z 400243f0 f i libucrtd:output.obj
 0001:00023410       ??$peek_va_arg@_J@__crt_stdio_output@@YA_JPAD@Z 40024410 f i libucrtd:output.obj
 0001:00023430       ??$peek_va_arg@_K@__crt_stdio_output@@YA_KPAD@Z 40024430 f i libucrtd:output.obj
 0001:00023450       ??$peek_va_arg@_W@__crt_stdio_output@@YA_WPAD@Z 40024450 f i libucrtd:output.obj
 0001:00023470       ??$puttc_nolock_internal@ABDPAU_iobuf@@AAV__crt_cached_ptd_host@@@?$__crt_char_traits@D@@SAHABD$$QAPAU_iobuf@@AAV__crt_cached_ptd_host@@@Z 40024470 f i libucrtd:output.obj
 0001:00023490       ??$puttc_nolock_internal@AB_WPAU_iobuf@@AAV__crt_cached_ptd_host@@@?$__crt_char_traits@_W@@SAGAB_W$$QAPAU_iobuf@@AAV__crt_cached_ptd_host@@@Z 40024490 f i libucrtd:output.obj
 0001:000234b0       ??$read_va_arg@C@__crt_stdio_output@@YACAAPAD@Z 400244b0 f i libucrtd:output.obj
 0001:000234d0       ??$read_va_arg@E@__crt_stdio_output@@YAEAAPAD@Z 400244d0 f i libucrtd:output.obj
 0001:000234f0       ??$read_va_arg@F@__crt_stdio_output@@YAFAAPAD@Z 400244f0 f i libucrtd:output.obj
 0001:00023510       ??$read_va_arg@G@__crt_stdio_output@@YAGAAPAD@Z 40024510 f i libucrtd:output.obj
 0001:00023530       ??$read_va_arg@H@__crt_stdio_output@@YAHAAPAD@Z 40024530 f i libucrtd:output.obj
 0001:00023550       ??$read_va_arg@I@__crt_stdio_output@@YAIAAPAD@Z 40024550 f i libucrtd:output.obj
 0001:00023570       ??$read_va_arg@PAD@__crt_stdio_output@@YAPADAAPAD@Z 40024570 f i libucrtd:output.obj
 0001:00023590       ??$read_va_arg@PAUansi_string@?1??type_case_Z@?$output_processor@DV?$stream_output_adapter@D@__crt_stdio_output@@V?$format_validation_base@DV?$stream_output_adapter@D@__crt_stdio_output@@@2@@__crt_stdio_output@@AAE_NXZ@@__crt_stdio_output@@YAPAUansi_string@?1??type_case_Z@?$output_processor@DV?$stream_output_adapter@D@__crt_stdio_output@@V?$format_validation_base@DV?$stream_output_adapter@D@__crt_stdio_output@@@2@@0@AAE_NXZ@AAPAD@Z 40024590 f i libucrtd:output.obj
 0001:000235b0       ??$read_va_arg@PAUansi_string@?1??type_case_Z@?$output_processor@DV?$stream_output_adapter@D@__crt_stdio_output@@V?$positional_parameter_base@DV?$stream_output_adapter@D@__crt_stdio_output@@@2@@__crt_stdio_output@@AAE_NXZ@@__crt_stdio_output@@YAPAUansi_string@?1??type_case_Z@?$output_processor@DV?$stream_output_adapter@D@__crt_stdio_output@@V?$positional_parameter_base@DV?$stream_output_adapter@D@__crt_stdio_output@@@2@@0@AAE_NXZ@AAPAD@Z 400245b0 f i libucrtd:output.obj
 0001:000235d0       ??$read_va_arg@PAUansi_string@?1??type_case_Z@?$output_processor@DV?$stream_output_adapter@D@__crt_stdio_output@@V?$standard_base@DV?$stream_output_adapter@D@__crt_stdio_output@@@2@@__crt_stdio_output@@AAE_NXZ@@__crt_stdio_output@@YAPAUansi_string@?1??type_case_Z@?$output_processor@DV?$stream_output_adapter@D@__crt_stdio_output@@V?$standard_base@DV?$stream_output_adapter@D@__crt_stdio_output@@@2@@0@AAE_NXZ@AAPAD@Z 400245d0 f i libucrtd:output.obj
 0001:000235f0       ??$read_va_arg@PAUansi_string@?1??type_case_Z@?$output_processor@DV?$string_output_adapter@D@__crt_stdio_output@@V?$format_validation_base@DV?$string_output_adapter@D@__crt_stdio_output@@@2@@__crt_stdio_output@@AAE_NXZ@@__crt_stdio_output@@YAPAUansi_string@?1??type_case_Z@?$output_processor@DV?$string_output_adapter@D@__crt_stdio_output@@V?$format_validation_base@DV?$string_output_adapter@D@__crt_stdio_output@@@2@@0@AAE_NXZ@AAPAD@Z 400245f0 f i libucrtd:output.obj
 0001:00023610       ??$read_va_arg@PAUansi_string@?1??type_case_Z@?$output_processor@DV?$string_output_adapter@D@__crt_stdio_output@@V?$positional_parameter_base@DV?$string_output_adapter@D@__crt_stdio_output@@@2@@__crt_stdio_output@@AAE_NXZ@@__crt_stdio_output@@YAPAUansi_string@?1??type_case_Z@?$output_processor@DV?$string_output_adapter@D@__crt_stdio_output@@V?$positional_parameter_base@DV?$string_output_adapter@D@__crt_stdio_output@@@2@@0@AAE_NXZ@AAPAD@Z 40024610 f i libucrtd:output.obj
 0001:00023630       ??$read_va_arg@PAUansi_string@?1??type_case_Z@?$output_processor@DV?$string_output_adapter@D@__crt_stdio_output@@V?$standard_base@DV?$string_output_adapter@D@__crt_stdio_output@@@2@@__crt_stdio_output@@AAE_NXZ@@__crt_stdio_output@@YAPAUansi_string@?1??type_case_Z@?$output_processor@DV?$string_output_adapter@D@__crt_stdio_output@@V?$standard_base@DV?$string_output_adapter@D@__crt_stdio_output@@@2@@0@AAE_NXZ@AAPAD@Z 40024630 f i libucrtd:output.obj
 0001:00023650       ??$read_va_arg@PAUansi_string@?1??type_case_Z@?$output_processor@_WV?$stream_output_adapter@_W@__crt_stdio_output@@V?$format_validation_base@_WV?$stream_output_adapter@_W@__crt_stdio_output@@@2@@__crt_stdio_output@@AAE_NXZ@@__crt_stdio_output@@YAPAUansi_string@?1??type_case_Z@?$output_processor@_WV?$stream_output_adapter@_W@__crt_stdio_output@@V?$format_validation_base@_WV?$stream_output_adapter@_W@__crt_stdio_output@@@2@@0@AAE_NXZ@AAPAD@Z 40024650 f i libucrtd:output.obj
 0001:00023670       ??$read_va_arg@PAUansi_string@?1??type_case_Z@?$output_processor@_WV?$stream_output_adapter@_W@__crt_stdio_output@@V?$positional_parameter_base@_WV?$stream_output_adapter@_W@__crt_stdio_output@@@2@@__crt_stdio_output@@AAE_NXZ@@__crt_stdio_output@@YAPAUansi_string@?1??type_case_Z@?$output_processor@_WV?$stream_output_adapter@_W@__crt_stdio_output@@V?$positional_parameter_base@_WV?$stream_output_adapter@_W@__crt_stdio_output@@@2@@0@AAE_NXZ@AAPAD@Z 40024670 f i libucrtd:output.obj
 0001:00023690       ??$read_va_arg@PAUansi_string@?1??type_case_Z@?$output_processor@_WV?$stream_output_adapter@_W@__crt_stdio_output@@V?$standard_base@_WV?$stream_output_adapter@_W@__crt_stdio_output@@@2@@__crt_stdio_output@@AAE_NXZ@@__crt_stdio_output@@YAPAUansi_string@?1??type_case_Z@?$output_processor@_WV?$stream_output_adapter@_W@__crt_stdio_output@@V?$standard_base@_WV?$stream_output_adapter@_W@__crt_stdio_output@@@2@@0@AAE_NXZ@AAPAD@Z 40024690 f i libucrtd:output.obj
 0001:000236b0       ??$read_va_arg@PAUansi_string@?1??type_case_Z@?$output_processor@_WV?$string_output_adapter@_W@__crt_stdio_output@@V?$format_validation_base@_WV?$string_output_adapter@_W@__crt_stdio_output@@@2@@__crt_stdio_output@@AAE_NXZ@@__crt_stdio_output@@YAPAUansi_string@?1??type_case_Z@?$output_processor@_WV?$string_output_adapter@_W@__crt_stdio_output@@V?$format_validation_base@_WV?$string_output_adapter@_W@__crt_stdio_output@@@2@@0@AAE_NXZ@AAPAD@Z 400246b0 f i libucrtd:output.obj
 0001:000236d0       ??$read_va_arg@PAUansi_string@?1??type_case_Z@?$output_processor@_WV?$string_output_adapter@_W@__crt_stdio_output@@V?$positional_parameter_base@_WV?$string_output_adapter@_W@__crt_stdio_output@@@2@@__crt_stdio_output@@AAE_NXZ@@__crt_stdio_output@@YAPAUansi_string@?1??type_case_Z@?$output_processor@_WV?$string_output_adapter@_W@__crt_stdio_output@@V?$positional_parameter_base@_WV?$string_output_adapter@_W@__crt_stdio_output@@@2@@0@AAE_NXZ@AAPAD@Z 400246d0 f i libucrtd:output.obj
 0001:000236f0       ??$read_va_arg@PAUansi_string@?1??type_case_Z@?$output_processor@_WV?$string_output_adapter@_W@__crt_stdio_output@@V?$standard_base@_WV?$string_output_adapter@_W@__crt_stdio_output@@@2@@__crt_stdio_output@@AAE_NXZ@@__crt_stdio_output@@YAPAUansi_string@?1??type_case_Z@?$output_processor@_WV?$string_output_adapter@_W@__crt_stdio_output@@V?$standard_base@_WV?$string_output_adapter@_W@__crt_stdio_output@@@2@@0@AAE_NXZ@AAPAD@Z 400246f0 f i libucrtd:output.obj
 0001:00023710       ??$read_va_arg@PAX@__crt_stdio_output@@YAPAXAAPAD@Z 40024710 f i libucrtd:output.obj
 0001:00023730       ??$read_va_arg@U_CRT_DOUBLE@@@__crt_stdio_output@@YA?AU_CRT_DOUBLE@@AAPAD@Z 40024730 f i libucrtd:output.obj
 0001:00023750       ??$read_va_arg@_J@__crt_stdio_output@@YA_JAAPAD@Z 40024750 f i libucrtd:output.obj
 0001:00023770       ??$read_va_arg@_K@__crt_stdio_output@@YA_KAAPAD@Z 40024770 f i libucrtd:output.obj
 0001:00023790       ??$read_va_arg@_W@__crt_stdio_output@@YA_WAAPAD@Z 40024790 f i libucrtd:output.obj
 0001:000237b0       ??$scratch_count@D@formatting_buffer@__crt_stdio_output@@QBEIXZ 400247b0 f i libucrtd:output.obj
 0001:000237d0       ??$scratch_data@D@formatting_buffer@__crt_stdio_output@@QAEPADXZ 400247d0 f i libucrtd:output.obj
 0001:00023820       ??$type_case_integer@$07@?$output_processor@DV?$stream_output_adapter@D@__crt_stdio_output@@V?$format_validation_base@DV?$stream_output_adapter@D@__crt_stdio_output@@@2@@__crt_stdio_output@@AAE_N_N@Z 40024820 f i libucrtd:output.obj
 0001:00023b80       ??$type_case_integer@$07@?$output_processor@DV?$stream_output_adapter@D@__crt_stdio_output@@V?$positional_parameter_base@DV?$stream_output_adapter@D@__crt_stdio_output@@@2@@__crt_stdio_output@@AAE_N_N@Z 40024b80 f i libucrtd:output.obj
 0001:00023ee0       ??$type_case_integer@$07@?$output_processor@DV?$stream_output_adapter@D@__crt_stdio_output@@V?$standard_base@DV?$stream_output_adapter@D@__crt_stdio_output@@@2@@__crt_stdio_output@@AAE_N_N@Z 40024ee0 f i libucrtd:output.obj
 0001:00024240       ??$type_case_integer@$07@?$output_processor@DV?$string_output_adapter@D@__crt_stdio_output@@V?$format_validation_base@DV?$string_output_adapter@D@__crt_stdio_output@@@2@@__crt_stdio_output@@AAE_N_N@Z 40025240 f i libucrtd:output.obj
 0001:000245a0       ??$type_case_integer@$07@?$output_processor@DV?$string_output_adapter@D@__crt_stdio_output@@V?$positional_parameter_base@DV?$string_output_adapter@D@__crt_stdio_output@@@2@@__crt_stdio_output@@AAE_N_N@Z 400255a0 f i libucrtd:output.obj
 0001:00024900       ??$type_case_integer@$07@?$output_processor@DV?$string_output_adapter@D@__crt_stdio_output@@V?$standard_base@DV?$string_output_adapter@D@__crt_stdio_output@@@2@@__crt_stdio_output@@AAE_N_N@Z 40025900 f i libucrtd:output.obj
 0001:00024c60       ??$type_case_integer@$07@?$output_processor@_WV?$stream_output_adapter@_W@__crt_stdio_output@@V?$format_validation_base@_WV?$stream_output_adapter@_W@__crt_stdio_output@@@2@@__crt_stdio_output@@AAE_N_N@Z 40025c60 f i libucrtd:output.obj
 0001:00024fc0       ??$type_case_integer@$07@?$output_processor@_WV?$stream_output_adapter@_W@__crt_stdio_output@@V?$positional_parameter_base@_WV?$stream_output_adapter@_W@__crt_stdio_output@@@2@@__crt_stdio_output@@AAE_N_N@Z 40025fc0 f i libucrtd:output.obj
 0001:00025320       ??$type_case_integer@$07@?$output_processor@_WV?$stream_output_adapter@_W@__crt_stdio_output@@V?$standard_base@_WV?$stream_output_adapter@_W@__crt_stdio_output@@@2@@__crt_stdio_output@@AAE_N_N@Z 40026320 f i libucrtd:output.obj
 0001:00025680       ??$type_case_integer@$07@?$output_processor@_WV?$string_output_adapter@_W@__crt_stdio_output@@V?$format_validation_base@_WV?$string_output_adapter@_W@__crt_stdio_output@@@2@@__crt_stdio_output@@AAE_N_N@Z 40026680 f i libucrtd:output.obj
 0001:000259e0       ??$type_case_integer@$07@?$output_processor@_WV?$string_output_adapter@_W@__crt_stdio_output@@V?$positional_parameter_base@_WV?$string_output_adapter@_W@__crt_stdio_output@@@2@@__crt_stdio_output@@AAE_N_N@Z 400269e0 f i libucrtd:output.obj
 0001:00025d40       ??$type_case_integer@$07@?$output_processor@_WV?$string_output_adapter@_W@__crt_stdio_output@@V?$standard_base@_WV?$string_output_adapter@_W@__crt_stdio_output@@@2@@__crt_stdio_output@@AAE_N_N@Z 40026d40 f i libucrtd:output.obj
 0001:000260a0       ??$type_case_integer@$09@?$output_processor@DV?$stream_output_adapter@D@__crt_stdio_output@@V?$format_validation_base@DV?$stream_output_adapter@D@__crt_stdio_output@@@2@@__crt_stdio_output@@AAE_N_N@Z 400270a0 f i libucrtd:output.obj
 0001:00026400       ??$type_case_integer@$09@?$output_processor@DV?$stream_output_adapter@D@__crt_stdio_output@@V?$positional_parameter_base@DV?$stream_output_adapter@D@__crt_stdio_output@@@2@@__crt_stdio_output@@AAE_N_N@Z 40027400 f i libucrtd:output.obj
 0001:00026760       ??$type_case_integer@$09@?$output_processor@DV?$stream_output_adapter@D@__crt_stdio_output@@V?$standard_base@DV?$stream_output_adapter@D@__crt_stdio_output@@@2@@__crt_stdio_output@@AAE_N_N@Z 40027760 f i libucrtd:output.obj
 0001:00026ac0       ??$type_case_integer@$09@?$output_processor@DV?$string_output_adapter@D@__crt_stdio_output@@V?$format_validation_base@DV?$string_output_adapter@D@__crt_stdio_output@@@2@@__crt_stdio_output@@AAE_N_N@Z 40027ac0 f i libucrtd:output.obj
 0001:00026e20       ??$type_case_integer@$09@?$output_processor@DV?$string_output_adapter@D@__crt_stdio_output@@V?$positional_parameter_base@DV?$string_output_adapter@D@__crt_stdio_output@@@2@@__crt_stdio_output@@AAE_N_N@Z 40027e20 f i libucrtd:output.obj
 0001:00027180       ??$type_case_integer@$09@?$output_processor@DV?$string_output_adapter@D@__crt_stdio_output@@V?$standard_base@DV?$string_output_adapter@D@__crt_stdio_output@@@2@@__crt_stdio_output@@AAE_N_N@Z 40028180 f i libucrtd:output.obj
 0001:000274e0       ??$type_case_integer@$09@?$output_processor@_WV?$stream_output_adapter@_W@__crt_stdio_output@@V?$format_validation_base@_WV?$stream_output_adapter@_W@__crt_stdio_output@@@2@@__crt_stdio_output@@AAE_N_N@Z 400284e0 f i libucrtd:output.obj
 0001:00027840       ??$type_case_integer@$09@?$output_processor@_WV?$stream_output_adapter@_W@__crt_stdio_output@@V?$positional_parameter_base@_WV?$stream_output_adapter@_W@__crt_stdio_output@@@2@@__crt_stdio_output@@AAE_N_N@Z 40028840 f i libucrtd:output.obj
 0001:00027ba0       ??$type_case_integer@$09@?$output_processor@_WV?$stream_output_adapter@_W@__crt_stdio_output@@V?$standard_base@_WV?$stream_output_adapter@_W@__crt_stdio_output@@@2@@__crt_stdio_output@@AAE_N_N@Z 40028ba0 f i libucrtd:output.obj
 0001:00027f00       ??$type_case_integer@$09@?$output_processor@_WV?$string_output_adapter@_W@__crt_stdio_output@@V?$format_validation_base@_WV?$string_output_adapter@_W@__crt_stdio_output@@@2@@__crt_stdio_output@@AAE_N_N@Z 40028f00 f i libucrtd:output.obj
 0001:00028260       ??$type_case_integer@$09@?$output_processor@_WV?$string_output_adapter@_W@__crt_stdio_output@@V?$positional_parameter_base@_WV?$string_output_adapter@_W@__crt_stdio_output@@@2@@__crt_stdio_output@@AAE_N_N@Z 40029260 f i libucrtd:output.obj
 0001:000285c0       ??$type_case_integer@$09@?$output_processor@_WV?$string_output_adapter@_W@__crt_stdio_output@@V?$standard_base@_WV?$string_output_adapter@_W@__crt_stdio_output@@@2@@__crt_stdio_output@@AAE_N_N@Z 400295c0 f i libucrtd:output.obj
 0001:00028920       ??$type_case_integer@$0BA@@?$output_processor@DV?$stream_output_adapter@D@__crt_stdio_output@@V?$format_validation_base@DV?$stream_output_adapter@D@__crt_stdio_output@@@2@@__crt_stdio_output@@AAE_N_N@Z 40029920 f i libucrtd:output.obj
 0001:00028c80       ??$type_case_integer@$0BA@@?$output_processor@DV?$stream_output_adapter@D@__crt_stdio_output@@V?$positional_parameter_base@DV?$stream_output_adapter@D@__crt_stdio_output@@@2@@__crt_stdio_output@@AAE_N_N@Z 40029c80 f i libucrtd:output.obj
 0001:00028fe0       ??$type_case_integer@$0BA@@?$output_processor@DV?$stream_output_adapter@D@__crt_stdio_output@@V?$standard_base@DV?$stream_output_adapter@D@__crt_stdio_output@@@2@@__crt_stdio_output@@AAE_N_N@Z 40029fe0 f i libucrtd:output.obj
 0001:00029340       ??$type_case_integer@$0BA@@?$output_processor@DV?$string_output_adapter@D@__crt_stdio_output@@V?$format_validation_base@DV?$string_output_adapter@D@__crt_stdio_output@@@2@@__crt_stdio_output@@AAE_N_N@Z 4002a340 f i libucrtd:output.obj
 0001:000296a0       ??$type_case_integer@$0BA@@?$output_processor@DV?$string_output_adapter@D@__crt_stdio_output@@V?$positional_parameter_base@DV?$string_output_adapter@D@__crt_stdio_output@@@2@@__crt_stdio_output@@AAE_N_N@Z 4002a6a0 f i libucrtd:output.obj
 0001:00029a00       ??$type_case_integer@$0BA@@?$output_processor@DV?$string_output_adapter@D@__crt_stdio_output@@V?$standard_base@DV?$string_output_adapter@D@__crt_stdio_output@@@2@@__crt_stdio_output@@AAE_N_N@Z 4002aa00 f i libucrtd:output.obj
 0001:00029d60       ??$type_case_integer@$0BA@@?$output_processor@_WV?$stream_output_adapter@_W@__crt_stdio_output@@V?$format_validation_base@_WV?$stream_output_adapter@_W@__crt_stdio_output@@@2@@__crt_stdio_output@@AAE_N_N@Z 4002ad60 f i libucrtd:output.obj
 0001:0002a0c0       ??$type_case_integer@$0BA@@?$output_processor@_WV?$stream_output_adapter@_W@__crt_stdio_output@@V?$positional_parameter_base@_WV?$stream_output_adapter@_W@__crt_stdio_output@@@2@@__crt_stdio_output@@AAE_N_N@Z 4002b0c0 f i libucrtd:output.obj
 0001:0002a420       ??$type_case_integer@$0BA@@?$output_processor@_WV?$stream_output_adapter@_W@__crt_stdio_output@@V?$standard_base@_WV?$stream_output_adapter@_W@__crt_stdio_output@@@2@@__crt_stdio_output@@AAE_N_N@Z 4002b420 f i libucrtd:output.obj
 0001:0002a780       ??$type_case_integer@$0BA@@?$output_processor@_WV?$string_output_adapter@_W@__crt_stdio_output@@V?$format_validation_base@_WV?$string_output_adapter@_W@__crt_stdio_output@@@2@@__crt_stdio_output@@AAE_N_N@Z 4002b780 f i libucrtd:output.obj
 0001:0002aae0       ??$type_case_integer@$0BA@@?$output_processor@_WV?$string_output_adapter@_W@__crt_stdio_output@@V?$positional_parameter_base@_WV?$string_output_adapter@_W@__crt_stdio_output@@@2@@__crt_stdio_output@@AAE_N_N@Z 4002bae0 f i libucrtd:output.obj
 0001:0002ae40       ??$type_case_integer@$0BA@@?$output_processor@_WV?$string_output_adapter@_W@__crt_stdio_output@@V?$standard_base@_WV?$string_output_adapter@_W@__crt_stdio_output@@@2@@__crt_stdio_output@@AAE_N_N@Z 4002be40 f i libucrtd:output.obj
 0001:0002b1a0       ??$type_case_integer_parse_into_buffer@I$07@?$output_processor@DV?$stream_output_adapter@D@__crt_stdio_output@@V?$format_validation_base@DV?$stream_output_adapter@D@__crt_stdio_output@@@2@@__crt_stdio_output@@AAEXI_N@Z 4002c1a0 f i libucrtd:output.obj
 0001:0002b270       ??$type_case_integer_parse_into_buffer@I$07@?$output_processor@DV?$stream_output_adapter@D@__crt_stdio_output@@V?$positional_parameter_base@DV?$stream_output_adapter@D@__crt_stdio_output@@@2@@__crt_stdio_output@@AAEXI_N@Z 4002c270 f i libucrtd:output.obj
 0001:0002b340       ??$type_case_integer_parse_into_buffer@I$07@?$output_processor@DV?$stream_output_adapter@D@__crt_stdio_output@@V?$standard_base@DV?$stream_output_adapter@D@__crt_stdio_output@@@2@@__crt_stdio_output@@AAEXI_N@Z 4002c340 f i libucrtd:output.obj
 0001:0002b410       ??$type_case_integer_parse_into_buffer@I$07@?$output_processor@DV?$string_output_adapter@D@__crt_stdio_output@@V?$format_validation_base@DV?$string_output_adapter@D@__crt_stdio_output@@@2@@__crt_stdio_output@@AAEXI_N@Z 4002c410 f i libucrtd:output.obj
 0001:0002b4e0       ??$type_case_integer_parse_into_buffer@I$07@?$output_processor@DV?$string_output_adapter@D@__crt_stdio_output@@V?$positional_parameter_base@DV?$string_output_adapter@D@__crt_stdio_output@@@2@@__crt_stdio_output@@AAEXI_N@Z 4002c4e0 f i libucrtd:output.obj
 0001:0002b5b0       ??$type_case_integer_parse_into_buffer@I$07@?$output_processor@DV?$string_output_adapter@D@__crt_stdio_output@@V?$standard_base@DV?$string_output_adapter@D@__crt_stdio_output@@@2@@__crt_stdio_output@@AAEXI_N@Z 4002c5b0 f i libucrtd:output.obj
 0001:0002b680       ??$type_case_integer_parse_into_buffer@I$07@?$output_processor@_WV?$stream_output_adapter@_W@__crt_stdio_output@@V?$format_validation_base@_WV?$stream_output_adapter@_W@__crt_stdio_output@@@2@@__crt_stdio_output@@AAEXI_N@Z 4002c680 f i libucrtd:output.obj
 0001:0002b760       ??$type_case_integer_parse_into_buffer@I$07@?$output_processor@_WV?$stream_output_adapter@_W@__crt_stdio_output@@V?$positional_parameter_base@_WV?$stream_output_adapter@_W@__crt_stdio_output@@@2@@__crt_stdio_output@@AAEXI_N@Z 4002c760 f i libucrtd:output.obj
 0001:0002b840       ??$type_case_integer_parse_into_buffer@I$07@?$output_processor@_WV?$stream_output_adapter@_W@__crt_stdio_output@@V?$standard_base@_WV?$stream_output_adapter@_W@__crt_stdio_output@@@2@@__crt_stdio_output@@AAEXI_N@Z 4002c840 f i libucrtd:output.obj
 0001:0002b920       ??$type_case_integer_parse_into_buffer@I$07@?$output_processor@_WV?$string_output_adapter@_W@__crt_stdio_output@@V?$format_validation_base@_WV?$string_output_adapter@_W@__crt_stdio_output@@@2@@__crt_stdio_output@@AAEXI_N@Z 4002c920 f i libucrtd:output.obj
 0001:0002ba00       ??$type_case_integer_parse_into_buffer@I$07@?$output_processor@_WV?$string_output_adapter@_W@__crt_stdio_output@@V?$positional_parameter_base@_WV?$string_output_adapter@_W@__crt_stdio_output@@@2@@__crt_stdio_output@@AAEXI_N@Z 4002ca00 f i libucrtd:output.obj
 0001:0002bae0       ??$type_case_integer_parse_into_buffer@I$07@?$output_processor@_WV?$string_output_adapter@_W@__crt_stdio_output@@V?$standard_base@_WV?$string_output_adapter@_W@__crt_stdio_output@@@2@@__crt_stdio_output@@AAEXI_N@Z 4002cae0 f i libucrtd:output.obj
 0001:0002bbc0       ??$type_case_integer_parse_into_buffer@I$09@?$output_processor@DV?$stream_output_adapter@D@__crt_stdio_output@@V?$format_validation_base@DV?$stream_output_adapter@D@__crt_stdio_output@@@2@@__crt_stdio_output@@AAEXI_N@Z 4002cbc0 f i libucrtd:output.obj
 0001:0002bca0       ??$type_case_integer_parse_into_buffer@I$09@?$output_processor@DV?$stream_output_adapter@D@__crt_stdio_output@@V?$positional_parameter_base@DV?$stream_output_adapter@D@__crt_stdio_output@@@2@@__crt_stdio_output@@AAEXI_N@Z 4002cca0 f i libucrtd:output.obj
 0001:0002bd80       ??$type_case_integer_parse_into_buffer@I$09@?$output_processor@DV?$stream_output_adapter@D@__crt_stdio_output@@V?$standard_base@DV?$stream_output_adapter@D@__crt_stdio_output@@@2@@__crt_stdio_output@@AAEXI_N@Z 4002cd80 f i libucrtd:output.obj
 0001:0002be60       ??$type_case_integer_parse_into_buffer@I$09@?$output_processor@DV?$string_output_adapter@D@__crt_stdio_output@@V?$format_validation_base@DV?$string_output_adapter@D@__crt_stdio_output@@@2@@__crt_stdio_output@@AAEXI_N@Z 4002ce60 f i libucrtd:output.obj
 0001:0002bf40       ??$type_case_integer_parse_into_buffer@I$09@?$output_processor@DV?$string_output_adapter@D@__crt_stdio_output@@V?$positional_parameter_base@DV?$string_output_adapter@D@__crt_stdio_output@@@2@@__crt_stdio_output@@AAEXI_N@Z 4002cf40 f i libucrtd:output.obj
 0001:0002c020       ??$type_case_integer_parse_into_buffer@I$09@?$output_processor@DV?$string_output_adapter@D@__crt_stdio_output@@V?$standard_base@DV?$string_output_adapter@D@__crt_stdio_output@@@2@@__crt_stdio_output@@AAEXI_N@Z 4002d020 f i libucrtd:output.obj
 0001:0002c100       ??$type_case_integer_parse_into_buffer@I$09@?$output_processor@_WV?$stream_output_adapter@_W@__crt_stdio_output@@V?$format_validation_base@_WV?$stream_output_adapter@_W@__crt_stdio_output@@@2@@__crt_stdio_output@@AAEXI_N@Z 4002d100 f i libucrtd:output.obj
 0001:0002c1f0       ??$type_case_integer_parse_into_buffer@I$09@?$output_processor@_WV?$stream_output_adapter@_W@__crt_stdio_output@@V?$positional_parameter_base@_WV?$stream_output_adapter@_W@__crt_stdio_output@@@2@@__crt_stdio_output@@AAEXI_N@Z 4002d1f0 f i libucrtd:output.obj
 0001:0002c2e0       ??$type_case_integer_parse_into_buffer@I$09@?$output_processor@_WV?$stream_output_adapter@_W@__crt_stdio_output@@V?$standard_base@_WV?$stream_output_adapter@_W@__crt_stdio_output@@@2@@__crt_stdio_output@@AAEXI_N@Z 4002d2e0 f i libucrtd:output.obj
 0001:0002c3d0       ??$type_case_integer_parse_into_buffer@I$09@?$output_processor@_WV?$string_output_adapter@_W@__crt_stdio_output@@V?$format_validation_base@_WV?$string_output_adapter@_W@__crt_stdio_output@@@2@@__crt_stdio_output@@AAEXI_N@Z 4002d3d0 f i libucrtd:output.obj
 0001:0002c4c0       ??$type_case_integer_parse_into_buffer@I$09@?$output_processor@_WV?$string_output_adapter@_W@__crt_stdio_output@@V?$positional_parameter_base@_WV?$string_output_adapter@_W@__crt_stdio_output@@@2@@__crt_stdio_output@@AAEXI_N@Z 4002d4c0 f i libucrtd:output.obj
 0001:0002c5b0       ??$type_case_integer_parse_into_buffer@I$09@?$output_processor@_WV?$string_output_adapter@_W@__crt_stdio_output@@V?$standard_base@_WV?$string_output_adapter@_W@__crt_stdio_output@@@2@@__crt_stdio_output@@AAEXI_N@Z 4002d5b0 f i libucrtd:output.obj
 0001:0002c6a0       ??$type_case_integer_parse_into_buffer@I$0BA@@?$output_processor@DV?$stream_output_adapter@D@__crt_stdio_output@@V?$format_validation_base@DV?$stream_output_adapter@D@__crt_stdio_output@@@2@@__crt_stdio_output@@AAEXI_N@Z 4002d6a0 f i libucrtd:output.obj
 0001:0002c770       ??$type_case_integer_parse_into_buffer@I$0BA@@?$output_processor@DV?$stream_output_adapter@D@__crt_stdio_output@@V?$positional_parameter_base@DV?$stream_output_adapter@D@__crt_stdio_output@@@2@@__crt_stdio_output@@AAEXI_N@Z 4002d770 f i libucrtd:output.obj
 0001:0002c840       ??$type_case_integer_parse_into_buffer@I$0BA@@?$output_processor@DV?$stream_output_adapter@D@__crt_stdio_output@@V?$standard_base@DV?$stream_output_adapter@D@__crt_stdio_output@@@2@@__crt_stdio_output@@AAEXI_N@Z 4002d840 f i libucrtd:output.obj
 0001:0002c910       ??$type_case_integer_parse_into_buffer@I$0BA@@?$output_processor@DV?$string_output_adapter@D@__crt_stdio_output@@V?$format_validation_base@DV?$string_output_adapter@D@__crt_stdio_output@@@2@@__crt_stdio_output@@AAEXI_N@Z 4002d910 f i libucrtd:output.obj
 0001:0002c9e0       ??$type_case_integer_parse_into_buffer@I$0BA@@?$output_processor@DV?$string_output_adapter@D@__crt_stdio_output@@V?$positional_parameter_base@DV?$string_output_adapter@D@__crt_stdio_output@@@2@@__crt_stdio_output@@AAEXI_N@Z 4002d9e0 f i libucrtd:output.obj
 0001:0002cab0       ??$type_case_integer_parse_into_buffer@I$0BA@@?$output_processor@DV?$string_output_adapter@D@__crt_stdio_output@@V?$standard_base@DV?$string_output_adapter@D@__crt_stdio_output@@@2@@__crt_stdio_output@@AAEXI_N@Z 4002dab0 f i libucrtd:output.obj
 0001:0002cb80       ??$type_case_integer_parse_into_buffer@I$0BA@@?$output_processor@_WV?$stream_output_adapter@_W@__crt_stdio_output@@V?$format_validation_base@_WV?$stream_output_adapter@_W@__crt_stdio_output@@@2@@__crt_stdio_output@@AAEXI_N@Z 4002db80 f i libucrtd:output.obj
 0001:0002cc60       ??$type_case_integer_parse_into_buffer@I$0BA@@?$output_processor@_WV?$stream_output_adapter@_W@__crt_stdio_output@@V?$positional_parameter_base@_WV?$stream_output_adapter@_W@__crt_stdio_output@@@2@@__crt_stdio_output@@AAEXI_N@Z 4002dc60 f i libucrtd:output.obj
 0001:0002cd40       ??$type_case_integer_parse_into_buffer@I$0BA@@?$output_processor@_WV?$stream_output_adapter@_W@__crt_stdio_output@@V?$standard_base@_WV?$stream_output_adapter@_W@__crt_stdio_output@@@2@@__crt_stdio_output@@AAEXI_N@Z 4002dd40 f i libucrtd:output.obj
 0001:0002ce20       ??$type_case_integer_parse_into_buffer@I$0BA@@?$output_processor@_WV?$string_output_adapter@_W@__crt_stdio_output@@V?$format_validation_base@_WV?$string_output_adapter@_W@__crt_stdio_output@@@2@@__crt_stdio_output@@AAEXI_N@Z 4002de20 f i libucrtd:output.obj
 0001:0002cf00       ??$type_case_integer_parse_into_buffer@I$0BA@@?$output_processor@_WV?$string_output_adapter@_W@__crt_stdio_output@@V?$positional_parameter_base@_WV?$string_output_adapter@_W@__crt_stdio_output@@@2@@__crt_stdio_output@@AAEXI_N@Z 4002df00 f i libucrtd:output.obj
 0001:0002cfe0       ??$type_case_integer_parse_into_buffer@I$0BA@@?$output_processor@_WV?$string_output_adapter@_W@__crt_stdio_output@@V?$standard_base@_WV?$string_output_adapter@_W@__crt_stdio_output@@@2@@__crt_stdio_output@@AAEXI_N@Z 4002dfe0 f i libucrtd:output.obj
 0001:0002d0c0       ??$type_case_integer_parse_into_buffer@_K$07@?$output_processor@DV?$stream_output_adapter@D@__crt_stdio_output@@V?$format_validation_base@DV?$stream_output_adapter@D@__crt_stdio_output@@@2@@__crt_stdio_output@@AAEX_K_N@Z 4002e0c0 f i libucrtd:output.obj
 0001:0002d1b0       ??$type_case_integer_parse_into_buffer@_K$07@?$output_processor@DV?$stream_output_adapter@D@__crt_stdio_output@@V?$positional_parameter_base@DV?$stream_output_adapter@D@__crt_stdio_output@@@2@@__crt_stdio_output@@AAEX_K_N@Z 4002e1b0 f i libucrtd:output.obj
 0001:0002d2a0       ??$type_case_integer_parse_into_buffer@_K$07@?$output_processor@DV?$stream_output_adapter@D@__crt_stdio_output@@V?$standard_base@DV?$stream_output_adapter@D@__crt_stdio_output@@@2@@__crt_stdio_output@@AAEX_K_N@Z 4002e2a0 f i libucrtd:output.obj
 0001:0002d390       ??$type_case_integer_parse_into_buffer@_K$07@?$output_processor@DV?$string_output_adapter@D@__crt_stdio_output@@V?$format_validation_base@DV?$string_output_adapter@D@__crt_stdio_output@@@2@@__crt_stdio_output@@AAEX_K_N@Z 4002e390 f i libucrtd:output.obj
 0001:0002d480       ??$type_case_integer_parse_into_buffer@_K$07@?$output_processor@DV?$string_output_adapter@D@__crt_stdio_output@@V?$positional_parameter_base@DV?$string_output_adapter@D@__crt_stdio_output@@@2@@__crt_stdio_output@@AAEX_K_N@Z 4002e480 f i libucrtd:output.obj
 0001:0002d570       ??$type_case_integer_parse_into_buffer@_K$07@?$output_processor@DV?$string_output_adapter@D@__crt_stdio_output@@V?$standard_base@DV?$string_output_adapter@D@__crt_stdio_output@@@2@@__crt_stdio_output@@AAEX_K_N@Z 4002e570 f i libucrtd:output.obj
 0001:0002d660       ??$type_case_integer_parse_into_buffer@_K$07@?$output_processor@_WV?$stream_output_adapter@_W@__crt_stdio_output@@V?$format_validation_base@_WV?$stream_output_adapter@_W@__crt_stdio_output@@@2@@__crt_stdio_output@@AAEX_K_N@Z 4002e660 f i libucrtd:output.obj
 0001:0002d760       ??$type_case_integer_parse_into_buffer@_K$07@?$output_processor@_WV?$stream_output_adapter@_W@__crt_stdio_output@@V?$positional_parameter_base@_WV?$stream_output_adapter@_W@__crt_stdio_output@@@2@@__crt_stdio_output@@AAEX_K_N@Z 4002e760 f i libucrtd:output.obj
 0001:0002d860       ??$type_case_integer_parse_into_buffer@_K$07@?$output_processor@_WV?$stream_output_adapter@_W@__crt_stdio_output@@V?$standard_base@_WV?$stream_output_adapter@_W@__crt_stdio_output@@@2@@__crt_stdio_output@@AAEX_K_N@Z 4002e860 f i libucrtd:output.obj
 0001:0002d960       ??$type_case_integer_parse_into_buffer@_K$07@?$output_processor@_WV?$string_output_adapter@_W@__crt_stdio_output@@V?$format_validation_base@_WV?$string_output_adapter@_W@__crt_stdio_output@@@2@@__crt_stdio_output@@AAEX_K_N@Z 4002e960 f i libucrtd:output.obj
 0001:0002da60       ??$type_case_integer_parse_into_buffer@_K$07@?$output_processor@_WV?$string_output_adapter@_W@__crt_stdio_output@@V?$positional_parameter_base@_WV?$string_output_adapter@_W@__crt_stdio_output@@@2@@__crt_stdio_output@@AAEX_K_N@Z 4002ea60 f i libucrtd:output.obj
 0001:0002db60       ??$type_case_integer_parse_into_buffer@_K$07@?$output_processor@_WV?$string_output_adapter@_W@__crt_stdio_output@@V?$standard_base@_WV?$string_output_adapter@_W@__crt_stdio_output@@@2@@__crt_stdio_output@@AAEX_K_N@Z 4002eb60 f i libucrtd:output.obj
 0001:0002dc60       ??$type_case_integer_parse_into_buffer@_K$09@?$output_processor@DV?$stream_output_adapter@D@__crt_stdio_output@@V?$format_validation_base@DV?$stream_output_adapter@D@__crt_stdio_output@@@2@@__crt_stdio_output@@AAEX_K_N@Z 4002ec60 f i libucrtd:output.obj
 0001:0002dd50       ??$type_case_integer_parse_into_buffer@_K$09@?$output_processor@DV?$stream_output_adapter@D@__crt_stdio_output@@V?$positional_parameter_base@DV?$stream_output_adapter@D@__crt_stdio_output@@@2@@__crt_stdio_output@@AAEX_K_N@Z 4002ed50 f i libucrtd:output.obj
 0001:0002de40       ??$type_case_integer_parse_into_buffer@_K$09@?$output_processor@DV?$stream_output_adapter@D@__crt_stdio_output@@V?$standard_base@DV?$stream_output_adapter@D@__crt_stdio_output@@@2@@__crt_stdio_output@@AAEX_K_N@Z 4002ee40 f i libucrtd:output.obj
 0001:0002df30       ??$type_case_integer_parse_into_buffer@_K$09@?$output_processor@DV?$string_output_adapter@D@__crt_stdio_output@@V?$format_validation_base@DV?$string_output_adapter@D@__crt_stdio_output@@@2@@__crt_stdio_output@@AAEX_K_N@Z 4002ef30 f i libucrtd:output.obj
 0001:0002e020       ??$type_case_integer_parse_into_buffer@_K$09@?$output_processor@DV?$string_output_adapter@D@__crt_stdio_output@@V?$positional_parameter_base@DV?$string_output_adapter@D@__crt_stdio_output@@@2@@__crt_stdio_output@@AAEX_K_N@Z 4002f020 f i libucrtd:output.obj
 0001:0002e110       ??$type_case_integer_parse_into_buffer@_K$09@?$output_processor@DV?$string_output_adapter@D@__crt_stdio_output@@V?$standard_base@DV?$string_output_adapter@D@__crt_stdio_output@@@2@@__crt_stdio_output@@AAEX_K_N@Z 4002f110 f i libucrtd:output.obj
 0001:0002e200       ??$type_case_integer_parse_into_buffer@_K$09@?$output_processor@_WV?$stream_output_adapter@_W@__crt_stdio_output@@V?$format_validation_base@_WV?$stream_output_adapter@_W@__crt_stdio_output@@@2@@__crt_stdio_output@@AAEX_K_N@Z 4002f200 f i libucrtd:output.obj
 0001:0002e300       ??$type_case_integer_parse_into_buffer@_K$09@?$output_processor@_WV?$stream_output_adapter@_W@__crt_stdio_output@@V?$positional_parameter_base@_WV?$stream_output_adapter@_W@__crt_stdio_output@@@2@@__crt_stdio_output@@AAEX_K_N@Z 4002f300 f i libucrtd:output.obj
 0001:0002e400       ??$type_case_integer_parse_into_buffer@_K$09@?$output_processor@_WV?$stream_output_adapter@_W@__crt_stdio_output@@V?$standard_base@_WV?$stream_output_adapter@_W@__crt_stdio_output@@@2@@__crt_stdio_output@@AAEX_K_N@Z 4002f400 f i libucrtd:output.obj
 0001:0002e500       ??$type_case_integer_parse_into_buffer@_K$09@?$output_processor@_WV?$string_output_adapter@_W@__crt_stdio_output@@V?$format_validation_base@_WV?$string_output_adapter@_W@__crt_stdio_output@@@2@@__crt_stdio_output@@AAEX_K_N@Z 4002f500 f i libucrtd:output.obj
 0001:0002e600       ??$type_case_integer_parse_into_buffer@_K$09@?$output_processor@_WV?$string_output_adapter@_W@__crt_stdio_output@@V?$positional_parameter_base@_WV?$string_output_adapter@_W@__crt_stdio_output@@@2@@__crt_stdio_output@@AAEX_K_N@Z 4002f600 f i libucrtd:output.obj
 0001:0002e700       ??$type_case_integer_parse_into_buffer@_K$09@?$output_processor@_WV?$string_output_adapter@_W@__crt_stdio_output@@V?$standard_base@_WV?$string_output_adapter@_W@__crt_stdio_output@@@2@@__crt_stdio_output@@AAEX_K_N@Z 4002f700 f i libucrtd:output.obj
 0001:0002e800       ??$type_case_integer_parse_into_buffer@_K$0BA@@?$output_processor@DV?$stream_output_adapter@D@__crt_stdio_output@@V?$format_validation_base@DV?$stream_output_adapter@D@__crt_stdio_output@@@2@@__crt_stdio_output@@AAEX_K_N@Z 4002f800 f i libucrtd:output.obj
 0001:0002e8f0       ??$type_case_integer_parse_into_buffer@_K$0BA@@?$output_processor@DV?$stream_output_adapter@D@__crt_stdio_output@@V?$positional_parameter_base@DV?$stream_output_adapter@D@__crt_stdio_output@@@2@@__crt_stdio_output@@AAEX_K_N@Z 4002f8f0 f i libucrtd:output.obj
 0001:0002e9e0       ??$type_case_integer_parse_into_buffer@_K$0BA@@?$output_processor@DV?$stream_output_adapter@D@__crt_stdio_output@@V?$standard_base@DV?$stream_output_adapter@D@__crt_stdio_output@@@2@@__crt_stdio_output@@AAEX_K_N@Z 4002f9e0 f i libucrtd:output.obj
 0001:0002ead0       ??$type_case_integer_parse_into_buffer@_K$0BA@@?$output_processor@DV?$string_output_adapter@D@__crt_stdio_output@@V?$format_validation_base@DV?$string_output_adapter@D@__crt_stdio_output@@@2@@__crt_stdio_output@@AAEX_K_N@Z 4002fad0 f i libucrtd:output.obj
 0001:0002ebc0       ??$type_case_integer_parse_into_buffer@_K$0BA@@?$output_processor@DV?$string_output_adapter@D@__crt_stdio_output@@V?$positional_parameter_base@DV?$string_output_adapter@D@__crt_stdio_output@@@2@@__crt_stdio_output@@AAEX_K_N@Z 4002fbc0 f i libucrtd:output.obj
 0001:0002ecb0       ??$type_case_integer_parse_into_buffer@_K$0BA@@?$output_processor@DV?$string_output_adapter@D@__crt_stdio_output@@V?$standard_base@DV?$string_output_adapter@D@__crt_stdio_output@@@2@@__crt_stdio_output@@AAEX_K_N@Z 4002fcb0 f i libucrtd:output.obj
 0001:0002eda0       ??$type_case_integer_parse_into_buffer@_K$0BA@@?$output_processor@_WV?$stream_output_adapter@_W@__crt_stdio_output@@V?$format_validation_base@_WV?$stream_output_adapter@_W@__crt_stdio_output@@@2@@__crt_stdio_output@@AAEX_K_N@Z 4002fda0 f i libucrtd:output.obj
 0001:0002eea0       ??$type_case_integer_parse_into_buffer@_K$0BA@@?$output_processor@_WV?$stream_output_adapter@_W@__crt_stdio_output@@V?$positional_parameter_base@_WV?$stream_output_adapter@_W@__crt_stdio_output@@@2@@__crt_stdio_output@@AAEX_K_N@Z 4002fea0 f i libucrtd:output.obj
 0001:0002efa0       ??$type_case_integer_parse_into_buffer@_K$0BA@@?$output_processor@_WV?$stream_output_adapter@_W@__crt_stdio_output@@V?$standard_base@_WV?$stream_output_adapter@_W@__crt_stdio_output@@@2@@__crt_stdio_output@@AAEX_K_N@Z 4002ffa0 f i libucrtd:output.obj
 0001:0002f0a0       ??$type_case_integer_parse_into_buffer@_K$0BA@@?$output_processor@_WV?$string_output_adapter@_W@__crt_stdio_output@@V?$format_validation_base@_WV?$string_output_adapter@_W@__crt_stdio_output@@@2@@__crt_stdio_output@@AAEX_K_N@Z 400300a0 f i libucrtd:output.obj
 0001:0002f1a0       ??$type_case_integer_parse_into_buffer@_K$0BA@@?$output_processor@_WV?$string_output_adapter@_W@__crt_stdio_output@@V?$positional_parameter_base@_WV?$string_output_adapter@_W@__crt_stdio_output@@@2@@__crt_stdio_output@@AAEX_K_N@Z 400301a0 f i libucrtd:output.obj
 0001:0002f2a0       ??$type_case_integer_parse_into_buffer@_K$0BA@@?$output_processor@_WV?$string_output_adapter@_W@__crt_stdio_output@@V?$standard_base@_WV?$string_output_adapter@_W@__crt_stdio_output@@@2@@__crt_stdio_output@@AAEX_K_N@Z 400302a0 f i libucrtd:output.obj
 0001:0002f3a0       ??$write_multiple_characters@V?$stream_output_adapter@D@__crt_stdio_output@@D@__crt_stdio_output@@YAXABV?$stream_output_adapter@D@0@DHQAHAAV__crt_cached_ptd_host@@@Z 400303a0 f i libucrtd:output.obj
 0001:0002f3f0       ??$write_multiple_characters@V?$stream_output_adapter@_W@__crt_stdio_output@@D@__crt_stdio_output@@YAXABV?$stream_output_adapter@_W@0@DHQAHAAV__crt_cached_ptd_host@@@Z 400303f0 f i libucrtd:output.obj
 0001:0002f440       ??$write_multiple_characters@V?$string_output_adapter@D@__crt_stdio_output@@D@__crt_stdio_output@@YAXABV?$string_output_adapter@D@0@DHQAHAAV__crt_cached_ptd_host@@@Z 40030440 f i libucrtd:output.obj
 0001:0002f490       ??$write_multiple_characters@V?$string_output_adapter@_W@__crt_stdio_output@@D@__crt_stdio_output@@YAXABV?$string_output_adapter@_W@0@DHQAHAAV__crt_cached_ptd_host@@@Z 40030490 f i libucrtd:output.obj
 0001:0002f7e0       ??0?$c_string_character_source@D@__crt_strtox@@QAE@QBDQAPBD@Z 400307e0 f i libucrtd:output.obj
 0001:0002f820       ??0?$c_string_character_source@_W@__crt_strtox@@QAE@QB_WQAPB_W@Z 40030820 f i libucrtd:output.obj
 0001:0002f860       ??0?$cached@H@__crt_cached_ptd_host@@QAE@XZ 40030860 f i libucrtd:output.obj
 0001:0002f880       ??0?$cached@K@__crt_cached_ptd_host@@QAE@XZ 40030880 f i libucrtd:output.obj
 0001:0002f8a0       ??0?$common_data@D@__crt_stdio_output@@IAE@AAV__crt_cached_ptd_host@@@Z 400308a0 f i libucrtd:output.obj
 0001:0002f940       ??0?$common_data@_W@__crt_stdio_output@@IAE@AAV__crt_cached_ptd_host@@@Z 40030940 f i libucrtd:output.obj
 0001:0002f9e0       ??0?$output_adapter_data@DV?$stream_output_adapter@D@__crt_stdio_output@@@__crt_stdio_output@@IAE@ABV?$stream_output_adapter@D@1@_KQBDAAV__crt_cached_ptd_host@@QAD@Z 400309e0 f i libucrtd:output.obj
 0001:0002fa60       ??0?$output_adapter_data@DV?$string_output_adapter@D@__crt_stdio_output@@@__crt_stdio_output@@IAE@ABV?$string_output_adapter@D@1@_KQBDAAV__crt_cached_ptd_host@@QAD@Z 40030a60 f i libucrtd:output.obj
 0001:0002fae0       ??0?$output_adapter_data@_WV?$stream_output_adapter@_W@__crt_stdio_output@@@__crt_stdio_output@@IAE@ABV?$stream_output_adapter@_W@1@_KQB_WAAV__crt_cached_ptd_host@@QAD@Z 40030ae0 f i libucrtd:output.obj
 0001:0002fb60       ??0?$output_adapter_data@_WV?$string_output_adapter@_W@__crt_stdio_output@@@__crt_stdio_output@@IAE@ABV?$string_output_adapter@_W@1@_KQB_WAAV__crt_cached_ptd_host@@QAD@Z 40030b60 f i libucrtd:output.obj
 0001:0002fbe0       ??0?$output_processor@DV?$stream_output_adapter@D@__crt_stdio_output@@V?$format_validation_base@DV?$stream_output_adapter@D@__crt_stdio_output@@@2@@__crt_stdio_output@@QAE@ABV?$stream_output_adapter@D@1@_KQBDAAV__crt_cached_ptd_host@@QAD@Z 40030be0 f i libucrtd:output.obj
 0001:0002fc10       ??0?$output_processor@DV?$stream_output_adapter@D@__crt_stdio_output@@V?$positional_parameter_base@DV?$stream_output_adapter@D@__crt_stdio_output@@@2@@__crt_stdio_output@@QAE@ABV?$stream_output_adapter@D@1@_KQBDAAV__crt_cached_ptd_host@@QAD@Z 40030c10 f i libucrtd:output.obj
 0001:0002fc40       ??0?$output_processor@DV?$stream_output_adapter@D@__crt_stdio_output@@V?$standard_base@DV?$stream_output_adapter@D@__crt_stdio_output@@@2@@__crt_stdio_output@@QAE@ABV?$stream_output_adapter@D@1@_KQBDAAV__crt_cached_ptd_host@@QAD@Z 40030c40 f i libucrtd:output.obj
 0001:0002fc70       ??0?$output_processor@DV?$string_output_adapter@D@__crt_stdio_output@@V?$format_validation_base@DV?$string_output_adapter@D@__crt_stdio_output@@@2@@__crt_stdio_output@@QAE@ABV?$string_output_adapter@D@1@_KQBDAAV__crt_cached_ptd_host@@QAD@Z 40030c70 f i libucrtd:output.obj
 0001:0002fca0       ??0?$output_processor@DV?$string_output_adapter@D@__crt_stdio_output@@V?$positional_parameter_base@DV?$string_output_adapter@D@__crt_stdio_output@@@2@@__crt_stdio_output@@QAE@ABV?$string_output_adapter@D@1@_KQBDAAV__crt_cached_ptd_host@@QAD@Z 40030ca0 f i libucrtd:output.obj
 0001:0002fcd0       ??0?$output_processor@DV?$string_output_adapter@D@__crt_stdio_output@@V?$standard_base@DV?$string_output_adapter@D@__crt_stdio_output@@@2@@__crt_stdio_output@@QAE@ABV?$string_output_adapter@D@1@_KQBDAAV__crt_cached_ptd_host@@QAD@Z 40030cd0 f i libucrtd:output.obj
 0001:0002fd00       ??0?$output_processor@_WV?$stream_output_adapter@_W@__crt_stdio_output@@V?$format_validation_base@_WV?$stream_output_adapter@_W@__crt_stdio_output@@@2@@__crt_stdio_output@@QAE@ABV?$stream_output_adapter@_W@1@_KQB_WAAV__crt_cached_ptd_host@@QAD@Z 40030d00 f i libucrtd:output.obj
 0001:0002fd30       ??0?$output_processor@_WV?$stream_output_adapter@_W@__crt_stdio_output@@V?$positional_parameter_base@_WV?$stream_output_adapter@_W@__crt_stdio_output@@@2@@__crt_stdio_output@@QAE@ABV?$stream_output_adapter@_W@1@_KQB_WAAV__crt_cached_ptd_host@@QAD@Z 40030d30 f i libucrtd:output.obj
 0001:0002fd60       ??0?$output_processor@_WV?$stream_output_adapter@_W@__crt_stdio_output@@V?$standard_base@_WV?$stream_output_adapter@_W@__crt_stdio_output@@@2@@__crt_stdio_output@@QAE@ABV?$stream_output_adapter@_W@1@_KQB_WAAV__crt_cached_ptd_host@@QAD@Z 40030d60 f i libucrtd:output.obj
 0001:0002fd90       ??0?$output_processor@_WV?$string_output_adapter@_W@__crt_stdio_output@@V?$format_validation_base@_WV?$string_output_adapter@_W@__crt_stdio_output@@@2@@__crt_stdio_output@@QAE@ABV?$string_output_adapter@_W@1@_KQB_WAAV__crt_cached_ptd_host@@QAD@Z 40030d90 f i libucrtd:output.obj
 0001:0002fdc0       ??0?$output_processor@_WV?$string_output_adapter@_W@__crt_stdio_output@@V?$positional_parameter_base@_WV?$string_output_adapter@_W@__crt_stdio_output@@@2@@__crt_stdio_output@@QAE@ABV?$string_output_adapter@_W@1@_KQB_WAAV__crt_cached_ptd_host@@QAD@Z 40030dc0 f i libucrtd:output.obj
 0001:0002fdf0       ??0?$output_processor@_WV?$string_output_adapter@_W@__crt_stdio_output@@V?$standard_base@_WV?$string_output_adapter@_W@__crt_stdio_output@@@2@@__crt_stdio_output@@QAE@ABV?$string_output_adapter@_W@1@_KQB_WAAV__crt_cached_ptd_host@@QAD@Z 40030df0 f i libucrtd:output.obj
 0001:0002fe20       ??0?$stream_output_adapter@D@__crt_stdio_output@@QAE@QAU_iobuf@@@Z 40030e20 f i libucrtd:output.obj
 0001:0002fe50       ??0?$stream_output_adapter@_W@__crt_stdio_output@@QAE@QAU_iobuf@@@Z 40030e50 f i libucrtd:output.obj
 0001:0002fe80       ??0?$string_output_adapter@D@__crt_stdio_output@@QAE@QAU?$string_output_adapter_context@D@1@@Z 40030e80 f i libucrtd:output.obj
 0001:0002fea0       ??0?$string_output_adapter@_W@__crt_stdio_output@@QAE@QAU?$string_output_adapter_context@_W@1@@Z 40030ea0 f i libucrtd:output.obj
 0001:0002fec0       ??0__acrt_stdio_temporary_buffering_guard@@QAE@QAU_iobuf@@AAV__crt_cached_ptd_host@@@Z 40030ec0 f i libucrtd:output.obj
 0001:0002ff00       ??0__crt_cached_ptd_host@@QAE@QAU__crt_locale_pointers@@@Z 40030f00 f i libucrtd:output.obj
 0001:0002ff90       ??0__crt_scoped_get_last_error_reset@@QAE@XZ 40030f90 f i libucrtd:output.obj
 0001:0002ffb0       ??0__crt_stdio_stream@@QAE@QAU_iobuf@@@Z 40030fb0 f i libucrtd:output.obj
 0001:0002ffd0       ??0formatting_buffer@__crt_stdio_output@@QAE@XZ 40030fd0 f i libucrtd:output.obj
 0001:00030010       ??0guard@?$cached@H@__crt_cached_ptd_host@@QAE@AAU12@@Z 40031010 f i libucrtd:output.obj
 0001:00030050       ??1?$c_string_character_source@D@__crt_strtox@@QAE@XZ 40031050 f i libucrtd:output.obj
 0001:00030080       ??1?$c_string_character_source@_W@__crt_strtox@@QAE@XZ 40031080 f i libucrtd:output.obj
 0001:000300b0       ??1?$common_data@D@__crt_stdio_output@@QAE@XZ 400310b0 f i libucrtd:output.obj
 0001:000300d0       ??1?$common_data@_W@__crt_stdio_output@@QAE@XZ 400310d0 f i libucrtd:output.obj
 0001:000300f0       ??1?$format_validation_base@DV?$stream_output_adapter@D@__crt_stdio_output@@@__crt_stdio_output@@QAE@XZ 400310f0 f i libucrtd:output.obj
 0001:00030110       ??1?$format_validation_base@DV?$string_output_adapter@D@__crt_stdio_output@@@__crt_stdio_output@@QAE@XZ 40031110 f i libucrtd:output.obj
 0001:00030130       ??1?$format_validation_base@_WV?$stream_output_adapter@_W@__crt_stdio_output@@@__crt_stdio_output@@QAE@XZ 40031130 f i libucrtd:output.obj
 0001:00030150       ??1?$format_validation_base@_WV?$string_output_adapter@_W@__crt_stdio_output@@@__crt_stdio_output@@QAE@XZ 40031150 f i libucrtd:output.obj
 0001:00030170       ??1?$output_adapter_data@DV?$stream_output_adapter@D@__crt_stdio_output@@@__crt_stdio_output@@QAE@XZ 40031170 f i libucrtd:output.obj
 0001:00030190       ??1?$output_adapter_data@DV?$string_output_adapter@D@__crt_stdio_output@@@__crt_stdio_output@@QAE@XZ 40031190 f i libucrtd:output.obj
 0001:000301b0       ??1?$output_adapter_data@_WV?$stream_output_adapter@_W@__crt_stdio_output@@@__crt_stdio_output@@QAE@XZ 400311b0 f i libucrtd:output.obj
 0001:000301d0       ??1?$output_adapter_data@_WV?$string_output_adapter@_W@__crt_stdio_output@@@__crt_stdio_output@@QAE@XZ 400311d0 f i libucrtd:output.obj
 0001:000301f0       ??1?$output_processor@DV?$stream_output_adapter@D@__crt_stdio_output@@V?$format_validation_base@DV?$stream_output_adapter@D@__crt_stdio_output@@@2@@__crt_stdio_output@@QAE@XZ 400311f0 f i libucrtd:output.obj
 0001:00030210       ??1?$output_processor@DV?$stream_output_adapter@D@__crt_stdio_output@@V?$positional_parameter_base@DV?$stream_output_adapter@D@__crt_stdio_output@@@2@@__crt_stdio_output@@QAE@XZ 40031210 f i libucrtd:output.obj
 0001:00030230       ??1?$output_processor@DV?$stream_output_adapter@D@__crt_stdio_output@@V?$standard_base@DV?$stream_output_adapter@D@__crt_stdio_output@@@2@@__crt_stdio_output@@QAE@XZ 40031230 f i libucrtd:output.obj
 0001:00030250       ??1?$output_processor@DV?$string_output_adapter@D@__crt_stdio_output@@V?$format_validation_base@DV?$string_output_adapter@D@__crt_stdio_output@@@2@@__crt_stdio_output@@QAE@XZ 40031250 f i libucrtd:output.obj
 0001:00030270       ??1?$output_processor@DV?$string_output_adapter@D@__crt_stdio_output@@V?$positional_parameter_base@DV?$string_output_adapter@D@__crt_stdio_output@@@2@@__crt_stdio_output@@QAE@XZ 40031270 f i libucrtd:output.obj
 0001:00030290       ??1?$output_processor@DV?$string_output_adapter@D@__crt_stdio_output@@V?$standard_base@DV?$string_output_adapter@D@__crt_stdio_output@@@2@@__crt_stdio_output@@QAE@XZ 40031290 f i libucrtd:output.obj
 0001:000302b0       ??1?$output_processor@_WV?$stream_output_adapter@_W@__crt_stdio_output@@V?$format_validation_base@_WV?$stream_output_adapter@_W@__crt_stdio_output@@@2@@__crt_stdio_output@@QAE@XZ 400312b0 f i libucrtd:output.obj
 0001:000302d0       ??1?$output_processor@_WV?$stream_output_adapter@_W@__crt_stdio_output@@V?$positional_parameter_base@_WV?$stream_output_adapter@_W@__crt_stdio_output@@@2@@__crt_stdio_output@@QAE@XZ 400312d0 f i libucrtd:output.obj
 0001:000302f0       ??1?$output_processor@_WV?$stream_output_adapter@_W@__crt_stdio_output@@V?$standard_base@_WV?$stream_output_adapter@_W@__crt_stdio_output@@@2@@__crt_stdio_output@@QAE@XZ 400312f0 f i libucrtd:output.obj
 0001:00030310       ??1?$output_processor@_WV?$string_output_adapter@_W@__crt_stdio_output@@V?$format_validation_base@_WV?$string_output_adapter@_W@__crt_stdio_output@@@2@@__crt_stdio_output@@QAE@XZ 40031310 f i libucrtd:output.obj
 0001:00030330       ??1?$output_processor@_WV?$string_output_adapter@_W@__crt_stdio_output@@V?$positional_parameter_base@_WV?$string_output_adapter@_W@__crt_stdio_output@@@2@@__crt_stdio_output@@QAE@XZ 40031330 f i libucrtd:output.obj
 0001:00030350       ??1?$output_processor@_WV?$string_output_adapter@_W@__crt_stdio_output@@V?$standard_base@_WV?$string_output_adapter@_W@__crt_stdio_output@@@2@@__crt_stdio_output@@QAE@XZ 40031350 f i libucrtd:output.obj
 0001:00030370       ??1?$positional_parameter_base@DV?$stream_output_adapter@D@__crt_stdio_output@@@__crt_stdio_output@@QAE@XZ 40031370 f i libucrtd:output.obj
 0001:00030390       ??1?$positional_parameter_base@DV?$string_output_adapter@D@__crt_stdio_output@@@__crt_stdio_output@@QAE@XZ 40031390 f i libucrtd:output.obj
 0001:000303b0       ??1?$positional_parameter_base@_WV?$stream_output_adapter@_W@__crt_stdio_output@@@__crt_stdio_output@@QAE@XZ 400313b0 f i libucrtd:output.obj
 0001:000303d0       ??1?$positional_parameter_base@_WV?$string_output_adapter@_W@__crt_stdio_output@@@__crt_stdio_output@@QAE@XZ 400313d0 f i libucrtd:output.obj
 0001:000303f0       ??1?$standard_base@DV?$stream_output_adapter@D@__crt_stdio_output@@@__crt_stdio_output@@QAE@XZ 400313f0 f i libucrtd:output.obj
 0001:00030410       ??1?$standard_base@DV?$string_output_adapter@D@__crt_stdio_output@@@__crt_stdio_output@@QAE@XZ 40031410 f i libucrtd:output.obj
 0001:00030430       ??1?$standard_base@_WV?$stream_output_adapter@_W@__crt_stdio_output@@@__crt_stdio_output@@QAE@XZ 40031430 f i libucrtd:output.obj
 0001:00030450       ??1?$standard_base@_WV?$string_output_adapter@_W@__crt_stdio_output@@@__crt_stdio_output@@QAE@XZ 40031450 f i libucrtd:output.obj
 0001:00030470       ??1__acrt_stdio_temporary_buffering_guard@@QAE@XZ 40031470 f i libucrtd:output.obj
 0001:000304a0       ??1__crt_cached_ptd_host@@QAE@XZ 400314a0 f i libucrtd:output.obj
 0001:00030530       ??1__crt_scoped_get_last_error_reset@@QAE@XZ 40031530 f i libucrtd:output.obj
 0001:00030550       ??1formatting_buffer@__crt_stdio_output@@QAE@XZ 40031550 f i libucrtd:output.obj
 0001:00030570       ??1guard@?$cached@H@__crt_cached_ptd_host@@QAE@XZ 40031570 f i libucrtd:output.obj
 0001:000305a0       ??4?$__crt_unique_heap_ptr@DU__crt_internal_free_policy@@@@QAEAAV0@$$QAV0@@Z 400315a0 f i libucrtd:output.obj
 0001:000305d0       ??A?$spectre_mitigated_lookup_table@Ustate_transition_pair@__crt_stdio_output@@$0IA@@__crt_stdio_output@@QBEABUstate_transition_pair@1@I@Z 400315d0 f i libucrtd:output.obj
 0001:000305f0       ??C__crt_stdio_stream@@QBEPAU__crt_stdio_stream_data@@XZ 400315f0 f i libucrtd:output.obj
 0001:00030e50       ?adjust_hexit@?$output_processor@DV?$stream_output_adapter@D@__crt_stdio_output@@V?$format_validation_base@DV?$stream_output_adapter@D@__crt_stdio_output@@@2@@__crt_stdio_output@@CADH_N@Z 40031e50 f i libucrtd:output.obj
 0001:00030e90       ?adjust_hexit@?$output_processor@DV?$stream_output_adapter@D@__crt_stdio_output@@V?$positional_parameter_base@DV?$stream_output_adapter@D@__crt_stdio_output@@@2@@__crt_stdio_output@@CADH_N@Z 40031e90 f i libucrtd:output.obj
 0001:00030ed0       ?adjust_hexit@?$output_processor@DV?$stream_output_adapter@D@__crt_stdio_output@@V?$standard_base@DV?$stream_output_adapter@D@__crt_stdio_output@@@2@@__crt_stdio_output@@CADH_N@Z 40031ed0 f i libucrtd:output.obj
 0001:00030f10       ?adjust_hexit@?$output_processor@DV?$string_output_adapter@D@__crt_stdio_output@@V?$format_validation_base@DV?$string_output_adapter@D@__crt_stdio_output@@@2@@__crt_stdio_output@@CADH_N@Z 40031f10 f i libucrtd:output.obj
 0001:00030f50       ?adjust_hexit@?$output_processor@DV?$string_output_adapter@D@__crt_stdio_output@@V?$positional_parameter_base@DV?$string_output_adapter@D@__crt_stdio_output@@@2@@__crt_stdio_output@@CADH_N@Z 40031f50 f i libucrtd:output.obj
 0001:00030f90       ?adjust_hexit@?$output_processor@DV?$string_output_adapter@D@__crt_stdio_output@@V?$standard_base@DV?$string_output_adapter@D@__crt_stdio_output@@@2@@__crt_stdio_output@@CADH_N@Z 40031f90 f i libucrtd:output.obj
 0001:00030fd0       ?adjust_hexit@?$output_processor@_WV?$stream_output_adapter@_W@__crt_stdio_output@@V?$format_validation_base@_WV?$stream_output_adapter@_W@__crt_stdio_output@@@2@@__crt_stdio_output@@CADH_N@Z 40031fd0 f i libucrtd:output.obj
 0001:00031010       ?adjust_hexit@?$output_processor@_WV?$stream_output_adapter@_W@__crt_stdio_output@@V?$positional_parameter_base@_WV?$stream_output_adapter@_W@__crt_stdio_output@@@2@@__crt_stdio_output@@CADH_N@Z 40032010 f i libucrtd:output.obj
 0001:00031050       ?adjust_hexit@?$output_processor@_WV?$stream_output_adapter@_W@__crt_stdio_output@@V?$standard_base@_WV?$stream_output_adapter@_W@__crt_stdio_output@@@2@@__crt_stdio_output@@CADH_N@Z 40032050 f i libucrtd:output.obj
 0001:00031090       ?adjust_hexit@?$output_processor@_WV?$string_output_adapter@_W@__crt_stdio_output@@V?$format_validation_base@_WV?$string_output_adapter@_W@__crt_stdio_output@@@2@@__crt_stdio_output@@CADH_N@Z 40032090 f i libucrtd:output.obj
 0001:000310d0       ?adjust_hexit@?$output_processor@_WV?$string_output_adapter@_W@__crt_stdio_output@@V?$positional_parameter_base@_WV?$string_output_adapter@_W@__crt_stdio_output@@@2@@__crt_stdio_output@@CADH_N@Z 400320d0 f i libucrtd:output.obj
 0001:00031110       ?adjust_hexit@?$output_processor@_WV?$string_output_adapter@_W@__crt_stdio_output@@V?$standard_base@_WV?$string_output_adapter@_W@__crt_stdio_output@@@2@@__crt_stdio_output@@CADH_N@Z 40032110 f i libucrtd:output.obj
 0001:00031150       ?advance_to_next_pass@?$positional_parameter_base@DV?$stream_output_adapter@D@__crt_stdio_output@@@__crt_stdio_output@@IAE_NXZ 40032150 f i libucrtd:output.obj
 0001:000311f0       ?advance_to_next_pass@?$positional_parameter_base@DV?$string_output_adapter@D@__crt_stdio_output@@@__crt_stdio_output@@IAE_NXZ 400321f0 f i libucrtd:output.obj
 0001:00031290       ?advance_to_next_pass@?$positional_parameter_base@_WV?$stream_output_adapter@_W@__crt_stdio_output@@@__crt_stdio_output@@IAE_NXZ 40032290 f i libucrtd:output.obj
 0001:00031330       ?advance_to_next_pass@?$positional_parameter_base@_WV?$string_output_adapter@_W@__crt_stdio_output@@@__crt_stdio_output@@IAE_NXZ 40032330 f i libucrtd:output.obj
 0001:000313d0       ?advance_to_next_pass@?$standard_base@DV?$stream_output_adapter@D@__crt_stdio_output@@@__crt_stdio_output@@IAE_NXZ 400323d0 f i libucrtd:output.obj
 0001:00031420       ?advance_to_next_pass@?$standard_base@DV?$string_output_adapter@D@__crt_stdio_output@@@__crt_stdio_output@@IAE_NXZ 40032420 f i libucrtd:output.obj
 0001:00031470       ?advance_to_next_pass@?$standard_base@_WV?$stream_output_adapter@_W@__crt_stdio_output@@@__crt_stdio_output@@IAE_NXZ 40032470 f i libucrtd:output.obj
 0001:000314c0       ?advance_to_next_pass@?$standard_base@_WV?$string_output_adapter@_W@__crt_stdio_output@@@__crt_stdio_output@@IAE_NXZ 400324c0 f i libucrtd:output.obj
 0001:00031510       ?check@?$cached@H@__crt_cached_ptd_host@@QBE_NH@Z 40032510 f i libucrtd:output.obj
 0001:00031550       ?check_synchronize_global_state_index@__crt_cached_ptd_host@@AAEIABV__crt_scoped_get_last_error_reset@@@Z 40032550 f i libucrtd:output.obj
 0001:00031580       ?check_synchronize_per_thread_data@__crt_cached_ptd_host@@AAEPAU__acrt_ptd@@XZ 40032580 f i libucrtd:output.obj
 0001:000315b0       ?create_guard@?$cached@H@__crt_cached_ptd_host@@QAE?AVguard@12@XZ 400325b0 f i libucrtd:output.obj
 0001:000315d0       ?crop_zeroes@__crt_stdio_output@@YAXPADQAU__crt_locale_pointers@@@Z 400325d0 f i libucrtd:output.obj
 0001:000316d0       ?disable@guard@?$cached@H@__crt_cached_ptd_host@@QAEXXZ 400326d0 f i libucrtd:output.obj
 0001:000316f0       ?enable@guard@?$cached@H@__crt_cached_ptd_host@@QAEXXZ 400326f0 f i libucrtd:output.obj
 0001:00031710       ?find_next_state@?$output_processor@DV?$stream_output_adapter@D@__crt_stdio_output@@V?$format_validation_base@DV?$stream_output_adapter@D@__crt_stdio_output@@@2@@__crt_stdio_output@@ABE?AW4state@2@DW432@@Z 40032710 f i libucrtd:output.obj
 0001:000317b0       ?find_next_state@?$output_processor@DV?$stream_output_adapter@D@__crt_stdio_output@@V?$positional_parameter_base@DV?$stream_output_adapter@D@__crt_stdio_output@@@2@@__crt_stdio_output@@ABE?AW4state@2@DW432@@Z 400327b0 f i libucrtd:output.obj
 0001:00031850       ?find_next_state@?$output_processor@DV?$stream_output_adapter@D@__crt_stdio_output@@V?$standard_base@DV?$stream_output_adapter@D@__crt_stdio_output@@@2@@__crt_stdio_output@@ABE?AW4state@2@DW432@@Z 40032850 f i libucrtd:output.obj
 0001:000318f0       ?find_next_state@?$output_processor@DV?$string_output_adapter@D@__crt_stdio_output@@V?$format_validation_base@DV?$string_output_adapter@D@__crt_stdio_output@@@2@@__crt_stdio_output@@ABE?AW4state@2@DW432@@Z 400328f0 f i libucrtd:output.obj
 0001:00031990       ?find_next_state@?$output_processor@DV?$string_output_adapter@D@__crt_stdio_output@@V?$positional_parameter_base@DV?$string_output_adapter@D@__crt_stdio_output@@@2@@__crt_stdio_output@@ABE?AW4state@2@DW432@@Z 40032990 f i libucrtd:output.obj
 0001:00031a30       ?find_next_state@?$output_processor@DV?$string_output_adapter@D@__crt_stdio_output@@V?$standard_base@DV?$string_output_adapter@D@__crt_stdio_output@@@2@@__crt_stdio_output@@ABE?AW4state@2@DW432@@Z 40032a30 f i libucrtd:output.obj
 0001:00031ad0       ?find_next_state@?$output_processor@_WV?$stream_output_adapter@_W@__crt_stdio_output@@V?$format_validation_base@_WV?$stream_output_adapter@_W@__crt_stdio_output@@@2@@__crt_stdio_output@@ABE?AW4state@2@_WW432@@Z 40032ad0 f i libucrtd:output.obj
 0001:00031b70       ?find_next_state@?$output_processor@_WV?$stream_output_adapter@_W@__crt_stdio_output@@V?$positional_parameter_base@_WV?$stream_output_adapter@_W@__crt_stdio_output@@@2@@__crt_stdio_output@@ABE?AW4state@2@_WW432@@Z 40032b70 f i libucrtd:output.obj
 0001:00031c10       ?find_next_state@?$output_processor@_WV?$stream_output_adapter@_W@__crt_stdio_output@@V?$standard_base@_WV?$stream_output_adapter@_W@__crt_stdio_output@@@2@@__crt_stdio_output@@ABE?AW4state@2@_WW432@@Z 40032c10 f i libucrtd:output.obj
 0001:00031cb0       ?find_next_state@?$output_processor@_WV?$string_output_adapter@_W@__crt_stdio_output@@V?$format_validation_base@_WV?$string_output_adapter@_W@__crt_stdio_output@@@2@@__crt_stdio_output@@ABE?AW4state@2@_WW432@@Z 40032cb0 f i libucrtd:output.obj
 0001:00031d50       ?find_next_state@?$output_processor@_WV?$string_output_adapter@_W@__crt_stdio_output@@V?$positional_parameter_base@_WV?$string_output_adapter@_W@__crt_stdio_output@@@2@@__crt_stdio_output@@ABE?AW4state@2@_WW432@@Z 40032d50 f i libucrtd:output.obj
 0001:00031df0       ?find_next_state@?$output_processor@_WV?$string_output_adapter@_W@__crt_stdio_output@@V?$standard_base@_WV?$string_output_adapter@_W@__crt_stdio_output@@@2@@__crt_stdio_output@@ABE?AW4state@2@_WW432@@Z 40032df0 f i libucrtd:output.obj
 0001:00031e90       ?force_decimal_point@__crt_stdio_output@@YAXPADQAU__crt_locale_pointers@@@Z 40032e90 f i libucrtd:output.obj
 0001:00031f60       ?force_synchronize_global_state_index@__crt_cached_ptd_host@@AAEIABV__crt_scoped_get_last_error_reset@@@Z 40032f60 f i libucrtd:output.obj
 0001:00031f90       ?force_synchronize_per_thread_data@__crt_cached_ptd_host@@AAEPAU__acrt_ptd@@XZ 40032f90 f i libucrtd:output.obj
 0001:00031fe0       ?get@?$c_string_character_source@D@__crt_strtox@@QAEDXZ 40032fe0 f i libucrtd:output.obj
 0001:00032010       ?get@?$c_string_character_source@_W@__crt_strtox@@QAE_WXZ 40033010 f i libucrtd:output.obj
 0001:00032040       ?get_current_state_index@__crt_state_management@@YAIABV__crt_scoped_get_last_error_reset@@@Z 40033040 f i libucrtd:output.obj
 0001:00032050       ?get_errno@__crt_cached_ptd_host@@QAE@XZ 40033050 f i libucrtd:output.obj
 0001:00032070       ?get_flags@__crt_stdio_stream@@QBEJXZ 40033070 f i libucrtd:output.obj
 0001:00032090       ?get_locale@__crt_cached_ptd_host@@QAEPAU__crt_locale_pointers@@XZ 40033090 f i libucrtd:output.obj
 0001:000320b0       ?get_parameter_type@?$positional_parameter_base@DV?$stream_output_adapter@D@__crt_stdio_output@@@__crt_stdio_output@@CA?AW4parameter_type@12@F@Z 400330b0 f i libucrtd:output.obj
 0001:000320c0       ?get_parameter_type@?$positional_parameter_base@DV?$stream_output_adapter@D@__crt_stdio_output@@@__crt_stdio_output@@CA?AW4parameter_type@12@G@Z 400330c0 f i libucrtd:output.obj
 0001:000320d0       ?get_parameter_type@?$positional_parameter_base@DV?$stream_output_adapter@D@__crt_stdio_output@@@__crt_stdio_output@@CA?AW4parameter_type@12@H@Z 400330d0 f i libucrtd:output.obj
 0001:000320e0       ?get_parameter_type@?$positional_parameter_base@DV?$stream_output_adapter@D@__crt_stdio_output@@@__crt_stdio_output@@CA?AW4parameter_type@12@I@Z 400330e0 f i libucrtd:output.obj
 0001:000320f0       ?get_parameter_type@?$positional_parameter_base@DV?$stream_output_adapter@D@__crt_stdio_output@@@__crt_stdio_output@@CA?AW4parameter_type@12@U_CRT_DOUBLE@@@Z 400330f0 f i libucrtd:output.obj
 0001:00032100       ?get_parameter_type@?$positional_parameter_base@DV?$stream_output_adapter@D@__crt_stdio_output@@@__crt_stdio_output@@CA?AW4parameter_type@12@_J@Z 40033100 f i libucrtd:output.obj
 0001:00032110       ?get_parameter_type@?$positional_parameter_base@DV?$stream_output_adapter@D@__crt_stdio_output@@@__crt_stdio_output@@CA?AW4parameter_type@12@_K@Z 40033110 f i libucrtd:output.obj
 0001:00032120       ?get_parameter_type@?$positional_parameter_base@DV?$stream_output_adapter@D@__crt_stdio_output@@@__crt_stdio_output@@CA?AW4parameter_type@12@_W@Z 40033120 f i libucrtd:output.obj
 0001:00032130       ?get_parameter_type@?$positional_parameter_base@DV?$string_output_adapter@D@__crt_stdio_output@@@__crt_stdio_output@@CA?AW4parameter_type@12@F@Z 40033130 f i libucrtd:output.obj
 0001:00032140       ?get_parameter_type@?$positional_parameter_base@DV?$string_output_adapter@D@__crt_stdio_output@@@__crt_stdio_output@@CA?AW4parameter_type@12@G@Z 40033140 f i libucrtd:output.obj
 0001:00032150       ?get_parameter_type@?$positional_parameter_base@DV?$string_output_adapter@D@__crt_stdio_output@@@__crt_stdio_output@@CA?AW4parameter_type@12@H@Z 40033150 f i libucrtd:output.obj
 0001:00032160       ?get_parameter_type@?$positional_parameter_base@DV?$string_output_adapter@D@__crt_stdio_output@@@__crt_stdio_output@@CA?AW4parameter_type@12@I@Z 40033160 f i libucrtd:output.obj
 0001:00032170       ?get_parameter_type@?$positional_parameter_base@DV?$string_output_adapter@D@__crt_stdio_output@@@__crt_stdio_output@@CA?AW4parameter_type@12@U_CRT_DOUBLE@@@Z 40033170 f i libucrtd:output.obj
 0001:00032180       ?get_parameter_type@?$positional_parameter_base@DV?$string_output_adapter@D@__crt_stdio_output@@@__crt_stdio_output@@CA?AW4parameter_type@12@_J@Z 40033180 f i libucrtd:output.obj
 0001:00032190       ?get_parameter_type@?$positional_parameter_base@DV?$string_output_adapter@D@__crt_stdio_output@@@__crt_stdio_output@@CA?AW4parameter_type@12@_K@Z 40033190 f i libucrtd:output.obj
 0001:000321a0       ?get_parameter_type@?$positional_parameter_base@DV?$string_output_adapter@D@__crt_stdio_output@@@__crt_stdio_output@@CA?AW4parameter_type@12@_W@Z 400331a0 f i libucrtd:output.obj
 0001:000321b0       ?get_parameter_type@?$positional_parameter_base@_WV?$stream_output_adapter@_W@__crt_stdio_output@@@__crt_stdio_output@@CA?AW4parameter_type@12@F@Z 400331b0 f i libucrtd:output.obj
 0001:000321c0       ?get_parameter_type@?$positional_parameter_base@_WV?$stream_output_adapter@_W@__crt_stdio_output@@@__crt_stdio_output@@CA?AW4parameter_type@12@G@Z 400331c0 f i libucrtd:output.obj
 0001:000321d0       ?get_parameter_type@?$positional_parameter_base@_WV?$stream_output_adapter@_W@__crt_stdio_output@@@__crt_stdio_output@@CA?AW4parameter_type@12@H@Z 400331d0 f i libucrtd:output.obj
 0001:000321e0       ?get_parameter_type@?$positional_parameter_base@_WV?$stream_output_adapter@_W@__crt_stdio_output@@@__crt_stdio_output@@CA?AW4parameter_type@12@I@Z 400331e0 f i libucrtd:output.obj
 0001:000321f0       ?get_parameter_type@?$positional_parameter_base@_WV?$stream_output_adapter@_W@__crt_stdio_output@@@__crt_stdio_output@@CA?AW4parameter_type@12@U_CRT_DOUBLE@@@Z 400331f0 f i libucrtd:output.obj
 0001:00032200       ?get_parameter_type@?$positional_parameter_base@_WV?$stream_output_adapter@_W@__crt_stdio_output@@@__crt_stdio_output@@CA?AW4parameter_type@12@_J@Z 40033200 f i libucrtd:output.obj
 0001:00032210       ?get_parameter_type@?$positional_parameter_base@_WV?$stream_output_adapter@_W@__crt_stdio_output@@@__crt_stdio_output@@CA?AW4parameter_type@12@_K@Z 40033210 f i libucrtd:output.obj
 0001:00032220       ?get_parameter_type@?$positional_parameter_base@_WV?$stream_output_adapter@_W@__crt_stdio_output@@@__crt_stdio_output@@CA?AW4parameter_type@12@_W@Z 40033220 f i libucrtd:output.obj
 0001:00032230       ?get_parameter_type@?$positional_parameter_base@_WV?$string_output_adapter@_W@__crt_stdio_output@@@__crt_stdio_output@@CA?AW4parameter_type@12@F@Z 40033230 f i libucrtd:output.obj
 0001:00032240       ?get_parameter_type@?$positional_parameter_base@_WV?$string_output_adapter@_W@__crt_stdio_output@@@__crt_stdio_output@@CA?AW4parameter_type@12@G@Z 40033240 f i libucrtd:output.obj
 0001:00032250       ?get_parameter_type@?$positional_parameter_base@_WV?$string_output_adapter@_W@__crt_stdio_output@@@__crt_stdio_output@@CA?AW4parameter_type@12@H@Z 40033250 f i libucrtd:output.obj
 0001:00032260       ?get_parameter_type@?$positional_parameter_base@_WV?$string_output_adapter@_W@__crt_stdio_output@@@__crt_stdio_output@@CA?AW4parameter_type@12@I@Z 40033260 f i libucrtd:output.obj
 0001:00032270       ?get_parameter_type@?$positional_parameter_base@_WV?$string_output_adapter@_W@__crt_stdio_output@@@__crt_stdio_output@@CA?AW4parameter_type@12@U_CRT_DOUBLE@@@Z 40033270 f i libucrtd:output.obj
 0001:00032280       ?get_parameter_type@?$positional_parameter_base@_WV?$string_output_adapter@_W@__crt_stdio_output@@@__crt_stdio_output@@CA?AW4parameter_type@12@_J@Z 40033280 f i libucrtd:output.obj
 0001:00032290       ?get_parameter_type@?$positional_parameter_base@_WV?$string_output_adapter@_W@__crt_stdio_output@@@__crt_stdio_output@@CA?AW4parameter_type@12@_K@Z 40033290 f i libucrtd:output.obj
 0001:000322a0       ?get_parameter_type@?$positional_parameter_base@_WV?$string_output_adapter@_W@__crt_stdio_output@@@__crt_stdio_output@@CA?AW4parameter_type@12@_W@Z 400332a0 f i libucrtd:output.obj
 0001:000322b0       ?get_raw_ptd@__crt_cached_ptd_host@@QAEPAU__acrt_ptd@@XZ 400332b0 f i libucrtd:output.obj
 0001:000322d0       ?has_flag@?$output_processor@DV?$stream_output_adapter@D@__crt_stdio_output@@V?$format_validation_base@DV?$stream_output_adapter@D@__crt_stdio_output@@@2@@__crt_stdio_output@@ABE_NI@Z 400332d0 f i libucrtd:output.obj
 0001:00032300       ?has_flag@?$output_processor@DV?$stream_output_adapter@D@__crt_stdio_output@@V?$positional_parameter_base@DV?$stream_output_adapter@D@__crt_stdio_output@@@2@@__crt_stdio_output@@ABE_NI@Z 40033300 f i libucrtd:output.obj
 0001:00032330       ?has_flag@?$output_processor@DV?$stream_output_adapter@D@__crt_stdio_output@@V?$standard_base@DV?$stream_output_adapter@D@__crt_stdio_output@@@2@@__crt_stdio_output@@ABE_NI@Z 40033330 f i libucrtd:output.obj
 0001:00032360       ?has_flag@?$output_processor@DV?$string_output_adapter@D@__crt_stdio_output@@V?$format_validation_base@DV?$string_output_adapter@D@__crt_stdio_output@@@2@@__crt_stdio_output@@ABE_NI@Z 40033360 f i libucrtd:output.obj
 0001:00032390       ?has_flag@?$output_processor@DV?$string_output_adapter@D@__crt_stdio_output@@V?$positional_parameter_base@DV?$string_output_adapter@D@__crt_stdio_output@@@2@@__crt_stdio_output@@ABE_NI@Z 40033390 f i libucrtd:output.obj
 0001:000323c0       ?has_flag@?$output_processor@DV?$string_output_adapter@D@__crt_stdio_output@@V?$standard_base@DV?$string_output_adapter@D@__crt_stdio_output@@@2@@__crt_stdio_output@@ABE_NI@Z 400333c0 f i libucrtd:output.obj
 0001:000323f0       ?has_flag@?$output_processor@_WV?$stream_output_adapter@_W@__crt_stdio_output@@V?$format_validation_base@_WV?$stream_output_adapter@_W@__crt_stdio_output@@@2@@__crt_stdio_output@@ABE_NI@Z 400333f0 f i libucrtd:output.obj
 0001:00032420       ?has_flag@?$output_processor@_WV?$stream_output_adapter@_W@__crt_stdio_output@@V?$positional_parameter_base@_WV?$stream_output_adapter@_W@__crt_stdio_output@@@2@@__crt_stdio_output@@ABE_NI@Z 40033420 f i libucrtd:output.obj
 0001:00032450       ?has_flag@?$output_processor@_WV?$stream_output_adapter@_W@__crt_stdio_output@@V?$standard_base@_WV?$stream_output_adapter@_W@__crt_stdio_output@@@2@@__crt_stdio_output@@ABE_NI@Z 40033450 f i libucrtd:output.obj
 0001:00032480       ?has_flag@?$output_processor@_WV?$string_output_adapter@_W@__crt_stdio_output@@V?$format_validation_base@_WV?$string_output_adapter@_W@__crt_stdio_output@@@2@@__crt_stdio_output@@ABE_NI@Z 40033480 f i libucrtd:output.obj
 0001:000324b0       ?has_flag@?$output_processor@_WV?$string_output_adapter@_W@__crt_stdio_output@@V?$positional_parameter_base@_WV?$string_output_adapter@_W@__crt_stdio_output@@@2@@__crt_stdio_output@@ABE_NI@Z 400334b0 f i libucrtd:output.obj
 0001:000324e0       ?has_flag@?$output_processor@_WV?$string_output_adapter@_W@__crt_stdio_output@@V?$standard_base@_WV?$string_output_adapter@_W@__crt_stdio_output@@@2@@__crt_stdio_output@@ABE_NI@Z 400334e0 f i libucrtd:output.obj
 0001:00032510       ?is_positional_parameter_reappearance_consistent@?$positional_parameter_base@DV?$stream_output_adapter@D@__crt_stdio_output@@@__crt_stdio_output@@AAE_NABUparameter_data@12@W4parameter_type@12@DW4length_modifier@2@@Z 40033510 f i libucrtd:output.obj
 0001:00032740       ?is_positional_parameter_reappearance_consistent@?$positional_parameter_base@DV?$string_output_adapter@D@__crt_stdio_output@@@__crt_stdio_output@@AAE_NABUparameter_data@12@W4parameter_type@12@DW4length_modifier@2@@Z 40033740 f i libucrtd:output.obj
 0001:00032970       ?is_positional_parameter_reappearance_consistent@?$positional_parameter_base@_WV?$stream_output_adapter@_W@__crt_stdio_output@@@__crt_stdio_output@@AAE_NABUparameter_data@12@W4parameter_type@12@_WW4length_modifier@2@@Z 40033970 f i libucrtd:output.obj
 0001:00032ba0       ?is_positional_parameter_reappearance_consistent@?$positional_parameter_base@_WV?$string_output_adapter@_W@__crt_stdio_output@@@__crt_stdio_output@@AAE_NABUparameter_data@12@W4parameter_type@12@_WW4length_modifier@2@@Z 40033ba0 f i libucrtd:output.obj
 0001:00032dd0       ?is_string_backed@__crt_stdio_stream@@QBE_NXZ 40033dd0 f i libucrtd:output.obj
 0001:00032e10       ?maximum_signed_value@__crt_strtox@@YAJK@Z 40033e10 f i libucrtd:output.obj
 0001:00032e20       ?minimum_signed_value@__crt_strtox@@YAJK@Z 40033e20 f i libucrtd:output.obj
 0001:00032e30       ?narrow_null_string@?$output_processor@DV?$stream_output_adapter@D@__crt_stdio_output@@V?$format_validation_base@DV?$stream_output_adapter@D@__crt_stdio_output@@@2@@__crt_stdio_output@@CAPADXZ 40033e30 f i libucrtd:output.obj
 0001:00032e40       ?narrow_null_string@?$output_processor@DV?$stream_output_adapter@D@__crt_stdio_output@@V?$positional_parameter_base@DV?$stream_output_adapter@D@__crt_stdio_output@@@2@@__crt_stdio_output@@CAPADXZ 40033e40 f i libucrtd:output.obj
 0001:00032e50       ?narrow_null_string@?$output_processor@DV?$stream_output_adapter@D@__crt_stdio_output@@V?$standard_base@DV?$stream_output_adapter@D@__crt_stdio_output@@@2@@__crt_stdio_output@@CAPADXZ 40033e50 f i libucrtd:output.obj
 0001:00032e60       ?narrow_null_string@?$output_processor@DV?$string_output_adapter@D@__crt_stdio_output@@V?$format_validation_base@DV?$string_output_adapter@D@__crt_stdio_output@@@2@@__crt_stdio_output@@CAPADXZ 40033e60 f i libucrtd:output.obj
 0001:00032e70       ?narrow_null_string@?$output_processor@DV?$string_output_adapter@D@__crt_stdio_output@@V?$positional_parameter_base@DV?$string_output_adapter@D@__crt_stdio_output@@@2@@__crt_stdio_output@@CAPADXZ 40033e70 f i libucrtd:output.obj
 0001:00032e80       ?narrow_null_string@?$output_processor@DV?$string_output_adapter@D@__crt_stdio_output@@V?$standard_base@DV?$string_output_adapter@D@__crt_stdio_output@@@2@@__crt_stdio_output@@CAPADXZ 40033e80 f i libucrtd:output.obj
 0001:00032e90       ?narrow_null_string@?$output_processor@_WV?$stream_output_adapter@_W@__crt_stdio_output@@V?$format_validation_base@_WV?$stream_output_adapter@_W@__crt_stdio_output@@@2@@__crt_stdio_output@@CAPADXZ 40033e90 f i libucrtd:output.obj
 0001:00032ea0       ?narrow_null_string@?$output_processor@_WV?$stream_output_adapter@_W@__crt_stdio_output@@V?$positional_parameter_base@_WV?$stream_output_adapter@_W@__crt_stdio_output@@@2@@__crt_stdio_output@@CAPADXZ 40033ea0 f i libucrtd:output.obj
 0001:00032eb0       ?narrow_null_string@?$output_processor@_WV?$stream_output_adapter@_W@__crt_stdio_output@@V?$standard_base@_WV?$stream_output_adapter@_W@__crt_stdio_output@@@2@@__crt_stdio_output@@CAPADXZ 40033eb0 f i libucrtd:output.obj
 0001:00032ec0       ?narrow_null_string@?$output_processor@_WV?$string_output_adapter@_W@__crt_stdio_output@@V?$format_validation_base@_WV?$string_output_adapter@_W@__crt_stdio_output@@@2@@__crt_stdio_output@@CAPADXZ 40033ec0 f i libucrtd:output.obj
 0001:00032ed0       ?narrow_null_string@?$output_processor@_WV?$string_output_adapter@_W@__crt_stdio_output@@V?$positional_parameter_base@_WV?$string_output_adapter@_W@__crt_stdio_output@@@2@@__crt_stdio_output@@CAPADXZ 40033ed0 f i libucrtd:output.obj
 0001:00032ee0       ?narrow_null_string@?$output_processor@_WV?$string_output_adapter@_W@__crt_stdio_output@@V?$standard_base@_WV?$string_output_adapter@_W@__crt_stdio_output@@@2@@__crt_stdio_output@@CAPADXZ 40033ee0 f i libucrtd:output.obj
 0001:00032ef0       ?parse_digit@__crt_strtox@@YAID@Z 40033ef0 f i libucrtd:output.obj
 0001:00032f50       ?parse_digit@__crt_strtox@@YAI_W@Z 40033f50 f i libucrtd:output.obj
 0001:00032fa0       ?parse_int_from_format_string@?$output_processor@DV?$stream_output_adapter@D@__crt_stdio_output@@V?$format_validation_base@DV?$stream_output_adapter@D@__crt_stdio_output@@@2@@__crt_stdio_output@@AAE_NQAH@Z 40033fa0 f i libucrtd:output.obj
 0001:00033060       ?parse_int_from_format_string@?$output_processor@DV?$stream_output_adapter@D@__crt_stdio_output@@V?$positional_parameter_base@DV?$stream_output_adapter@D@__crt_stdio_output@@@2@@__crt_stdio_output@@AAE_NQAH@Z 40034060 f i libucrtd:output.obj
 0001:00033120       ?parse_int_from_format_string@?$output_processor@DV?$stream_output_adapter@D@__crt_stdio_output@@V?$standard_base@DV?$stream_output_adapter@D@__crt_stdio_output@@@2@@__crt_stdio_output@@AAE_NQAH@Z 40034120 f i libucrtd:output.obj
 0001:000331e0       ?parse_int_from_format_string@?$output_processor@DV?$string_output_adapter@D@__crt_stdio_output@@V?$format_validation_base@DV?$string_output_adapter@D@__crt_stdio_output@@@2@@__crt_stdio_output@@AAE_NQAH@Z 400341e0 f i libucrtd:output.obj
 0001:000332a0       ?parse_int_from_format_string@?$output_processor@DV?$string_output_adapter@D@__crt_stdio_output@@V?$positional_parameter_base@DV?$string_output_adapter@D@__crt_stdio_output@@@2@@__crt_stdio_output@@AAE_NQAH@Z 400342a0 f i libucrtd:output.obj
 0001:00033360       ?parse_int_from_format_string@?$output_processor@DV?$string_output_adapter@D@__crt_stdio_output@@V?$standard_base@DV?$string_output_adapter@D@__crt_stdio_output@@@2@@__crt_stdio_output@@AAE_NQAH@Z 40034360 f i libucrtd:output.obj
 0001:00033420       ?parse_int_from_format_string@?$output_processor@_WV?$stream_output_adapter@_W@__crt_stdio_output@@V?$format_validation_base@_WV?$stream_output_adapter@_W@__crt_stdio_output@@@2@@__crt_stdio_output@@AAE_NQAH@Z 40034420 f i libucrtd:output.obj
 0001:000334e0       ?parse_int_from_format_string@?$output_processor@_WV?$stream_output_adapter@_W@__crt_stdio_output@@V?$positional_parameter_base@_WV?$stream_output_adapter@_W@__crt_stdio_output@@@2@@__crt_stdio_output@@AAE_NQAH@Z 400344e0 f i libucrtd:output.obj
 0001:000335a0       ?parse_int_from_format_string@?$output_processor@_WV?$stream_output_adapter@_W@__crt_stdio_output@@V?$standard_base@_WV?$stream_output_adapter@_W@__crt_stdio_output@@@2@@__crt_stdio_output@@AAE_NQAH@Z 400345a0 f i libucrtd:output.obj
 0001:00033660       ?parse_int_from_format_string@?$output_processor@_WV?$string_output_adapter@_W@__crt_stdio_output@@V?$format_validation_base@_WV?$string_output_adapter@_W@__crt_stdio_output@@@2@@__crt_stdio_output@@AAE_NQAH@Z 40034660 f i libucrtd:output.obj
 0001:00033720       ?parse_int_from_format_string@?$output_processor@_WV?$string_output_adapter@_W@__crt_stdio_output@@V?$positional_parameter_base@_WV?$string_output_adapter@_W@__crt_stdio_output@@@2@@__crt_stdio_output@@AAE_NQAH@Z 40034720 f i libucrtd:output.obj
 0001:000337e0       ?parse_int_from_format_string@?$output_processor@_WV?$string_output_adapter@_W@__crt_stdio_output@@V?$standard_base@_WV?$string_output_adapter@_W@__crt_stdio_output@@@2@@__crt_stdio_output@@AAE_NQAH@Z 400347e0 f i libucrtd:output.obj
 0001:000338a0       ?process@?$output_processor@DV?$stream_output_adapter@D@__crt_stdio_output@@V?$format_validation_base@DV?$stream_output_adapter@D@__crt_stdio_output@@@2@@__crt_stdio_output@@QAEHXZ 400348a0 f i libucrtd:output.obj
 0001:00033b80       ?process@?$output_processor@DV?$stream_output_adapter@D@__crt_stdio_output@@V?$positional_parameter_base@DV?$stream_output_adapter@D@__crt_stdio_output@@@2@@__crt_stdio_output@@QAEHXZ 40034b80 f i libucrtd:output.obj
 0001:00033e80       ?process@?$output_processor@DV?$stream_output_adapter@D@__crt_stdio_output@@V?$standard_base@DV?$stream_output_adapter@D@__crt_stdio_output@@@2@@__crt_stdio_output@@QAEHXZ 40034e80 f i libucrtd:output.obj
 0001:00034160       ?process@?$output_processor@DV?$string_output_adapter@D@__crt_stdio_output@@V?$format_validation_base@DV?$string_output_adapter@D@__crt_stdio_output@@@2@@__crt_stdio_output@@QAEHXZ 40035160 f i libucrtd:output.obj
 0001:00034440       ?process@?$output_processor@DV?$string_output_adapter@D@__crt_stdio_output@@V?$positional_parameter_base@DV?$string_output_adapter@D@__crt_stdio_output@@@2@@__crt_stdio_output@@QAEHXZ 40035440 f i libucrtd:output.obj
 0001:00034720       ?process@?$output_processor@DV?$string_output_adapter@D@__crt_stdio_output@@V?$standard_base@DV?$string_output_adapter@D@__crt_stdio_output@@@2@@__crt_stdio_output@@QAEHXZ 40035720 f i libucrtd:output.obj
 0001:00034a00       ?process@?$output_processor@_WV?$stream_output_adapter@_W@__crt_stdio_output@@V?$format_validation_base@_WV?$stream_output_adapter@_W@__crt_stdio_output@@@2@@__crt_stdio_output@@QAEHXZ 40035a00 f i libucrtd:output.obj
 0001:00034ce0       ?process@?$output_processor@_WV?$stream_output_adapter@_W@__crt_stdio_output@@V?$positional_parameter_base@_WV?$stream_output_adapter@_W@__crt_stdio_output@@@2@@__crt_stdio_output@@QAEHXZ 40035ce0 f i libucrtd:output.obj
 0001:00034fc0       ?process@?$output_processor@_WV?$stream_output_adapter@_W@__crt_stdio_output@@V?$standard_base@_WV?$stream_output_adapter@_W@__crt_stdio_output@@@2@@__crt_stdio_output@@QAEHXZ 40035fc0 f i libucrtd:output.obj
 0001:000352a0       ?process@?$output_processor@_WV?$string_output_adapter@_W@__crt_stdio_output@@V?$format_validation_base@_WV?$string_output_adapter@_W@__crt_stdio_output@@@2@@__crt_stdio_output@@QAEHXZ 400362a0 f i libucrtd:output.obj
 0001:00035580       ?process@?$output_processor@_WV?$string_output_adapter@_W@__crt_stdio_output@@V?$positional_parameter_base@_WV?$string_output_adapter@_W@__crt_stdio_output@@@2@@__crt_stdio_output@@QAEHXZ 40036580 f i libucrtd:output.obj
 0001:00035860       ?process@?$output_processor@_WV?$string_output_adapter@_W@__crt_stdio_output@@V?$standard_base@_WV?$string_output_adapter@_W@__crt_stdio_output@@@2@@__crt_stdio_output@@QAEHXZ 40036860 f i libucrtd:output.obj
 0001:00035b40       ?public_stream@__crt_stdio_stream@@QBEPAU_iobuf@@XZ 40036b40 f i libucrtd:output.obj
 0001:00035b60       ?restore_state@?$c_string_character_source@D@__crt_strtox@@QAE_NQBD@Z 40036b60 f i libucrtd:output.obj
 0001:00035b80       ?restore_state@?$c_string_character_source@_W@__crt_strtox@@QAE_NQB_W@Z 40036b80 f i libucrtd:output.obj
 0001:00035ba0       ?save_state@?$c_string_character_source@D@__crt_strtox@@QBEPBDXZ 40036ba0 f i libucrtd:output.obj
 0001:00035bc0       ?save_state@?$c_string_character_source@_W@__crt_strtox@@QBEPB_WXZ 40036bc0 f i libucrtd:output.obj
 0001:00035be0       ?set@?$cached@H@__crt_cached_ptd_host@@QAEHH@Z 40036be0 f i libucrtd:output.obj
 0001:00035c10       ?set_flag@?$output_processor@DV?$stream_output_adapter@D@__crt_stdio_output@@V?$format_validation_base@DV?$stream_output_adapter@D@__crt_stdio_output@@@2@@__crt_stdio_output@@AAEXI@Z 40036c10 f i libucrtd:output.obj
 0001:00035c30       ?set_flag@?$output_processor@DV?$stream_output_adapter@D@__crt_stdio_output@@V?$positional_parameter_base@DV?$stream_output_adapter@D@__crt_stdio_output@@@2@@__crt_stdio_output@@AAEXI@Z 40036c30 f i libucrtd:output.obj
 0001:00035c50       ?set_flag@?$output_processor@DV?$stream_output_adapter@D@__crt_stdio_output@@V?$standard_base@DV?$stream_output_adapter@D@__crt_stdio_output@@@2@@__crt_stdio_output@@AAEXI@Z 40036c50 f i libucrtd:output.obj
 0001:00035c70       ?set_flag@?$output_processor@DV?$string_output_adapter@D@__crt_stdio_output@@V?$format_validation_base@DV?$string_output_adapter@D@__crt_stdio_output@@@2@@__crt_stdio_output@@AAEXI@Z 40036c70 f i libucrtd:output.obj
 0001:00035c90       ?set_flag@?$output_processor@DV?$string_output_adapter@D@__crt_stdio_output@@V?$positional_parameter_base@DV?$string_output_adapter@D@__crt_stdio_output@@@2@@__crt_stdio_output@@AAEXI@Z 40036c90 f i libucrtd:output.obj
 0001:00035cb0       ?set_flag@?$output_processor@DV?$string_output_adapter@D@__crt_stdio_output@@V?$standard_base@DV?$string_output_adapter@D@__crt_stdio_output@@@2@@__crt_stdio_output@@AAEXI@Z 40036cb0 f i libucrtd:output.obj
 0001:00035cd0       ?set_flag@?$output_processor@_WV?$stream_output_adapter@_W@__crt_stdio_output@@V?$format_validation_base@_WV?$stream_output_adapter@_W@__crt_stdio_output@@@2@@__crt_stdio_output@@AAEXI@Z 40036cd0 f i libucrtd:output.obj
 0001:00035cf0       ?set_flag@?$output_processor@_WV?$stream_output_adapter@_W@__crt_stdio_output@@V?$positional_parameter_base@_WV?$stream_output_adapter@_W@__crt_stdio_output@@@2@@__crt_stdio_output@@AAEXI@Z 40036cf0 f i libucrtd:output.obj
 0001:00035d10       ?set_flag@?$output_processor@_WV?$stream_output_adapter@_W@__crt_stdio_output@@V?$standard_base@_WV?$stream_output_adapter@_W@__crt_stdio_output@@@2@@__crt_stdio_output@@AAEXI@Z 40036d10 f i libucrtd:output.obj
 0001:00035d30       ?set_flag@?$output_processor@_WV?$string_output_adapter@_W@__crt_stdio_output@@V?$format_validation_base@_WV?$string_output_adapter@_W@__crt_stdio_output@@@2@@__crt_stdio_output@@AAEXI@Z 40036d30 f i libucrtd:output.obj
 0001:00035d50       ?set_flag@?$output_processor@_WV?$string_output_adapter@_W@__crt_stdio_output@@V?$positional_parameter_base@_WV?$string_output_adapter@_W@__crt_stdio_output@@@2@@__crt_stdio_output@@AAEXI@Z 40036d50 f i libucrtd:output.obj
 0001:00035d70       ?set_flag@?$output_processor@_WV?$string_output_adapter@_W@__crt_stdio_output@@V?$standard_base@_WV?$string_output_adapter@_W@__crt_stdio_output@@@2@@__crt_stdio_output@@AAEXI@Z 40036d70 f i libucrtd:output.obj
 0001:00035d90       ?should_format@?$positional_parameter_base@DV?$stream_output_adapter@D@__crt_stdio_output@@@__crt_stdio_output@@IAE_NXZ 40036d90 f i libucrtd:output.obj
 0001:00035dd0       ?should_format@?$positional_parameter_base@DV?$string_output_adapter@D@__crt_stdio_output@@@__crt_stdio_output@@IAE_NXZ 40036dd0 f i libucrtd:output.obj
 0001:00035e10       ?should_format@?$positional_parameter_base@_WV?$stream_output_adapter@_W@__crt_stdio_output@@@__crt_stdio_output@@IAE_NXZ 40036e10 f i libucrtd:output.obj
 0001:00035e50       ?should_format@?$positional_parameter_base@_WV?$string_output_adapter@_W@__crt_stdio_output@@@__crt_stdio_output@@IAE_NXZ 40036e50 f i libucrtd:output.obj
 0001:00035e90       ?should_format@?$standard_base@DV?$stream_output_adapter@D@__crt_stdio_output@@@__crt_stdio_output@@IAE_NXZ 40036e90 f i libucrtd:output.obj
 0001:00035ea0       ?should_format@?$standard_base@DV?$string_output_adapter@D@__crt_stdio_output@@@__crt_stdio_output@@IAE_NXZ 40036ea0 f i libucrtd:output.obj
 0001:00035eb0       ?should_format@?$standard_base@_WV?$stream_output_adapter@_W@__crt_stdio_output@@@__crt_stdio_output@@IAE_NXZ 40036eb0 f i libucrtd:output.obj
 0001:00035ec0       ?should_format@?$standard_base@_WV?$string_output_adapter@_W@__crt_stdio_output@@@__crt_stdio_output@@IAE_NXZ 40036ec0 f i libucrtd:output.obj
 0001:00035ed0       ?should_skip_normal_state_processing@?$positional_parameter_base@DV?$stream_output_adapter@D@__crt_stdio_output@@@__crt_stdio_output@@IAE_NXZ 40036ed0 f i libucrtd:output.obj
 0001:00035f20       ?should_skip_normal_state_processing@?$positional_parameter_base@DV?$string_output_adapter@D@__crt_stdio_output@@@__crt_stdio_output@@IAE_NXZ 40036f20 f i libucrtd:output.obj
 0001:00035f70       ?should_skip_normal_state_processing@?$positional_parameter_base@_WV?$stream_output_adapter@_W@__crt_stdio_output@@@__crt_stdio_output@@IAE_NXZ 40036f70 f i libucrtd:output.obj
 0001:00035fc0       ?should_skip_normal_state_processing@?$positional_parameter_base@_WV?$string_output_adapter@_W@__crt_stdio_output@@@__crt_stdio_output@@IAE_NXZ 40036fc0 f i libucrtd:output.obj
 0001:00036010       ?should_skip_normal_state_processing@?$standard_base@DV?$stream_output_adapter@D@__crt_stdio_output@@@__crt_stdio_output@@IAE_NXZ 40037010 f i libucrtd:output.obj
 0001:00036020       ?should_skip_normal_state_processing@?$standard_base@DV?$string_output_adapter@D@__crt_stdio_output@@@__crt_stdio_output@@IAE_NXZ 40037020 f i libucrtd:output.obj
 0001:00036030       ?should_skip_normal_state_processing@?$standard_base@_WV?$stream_output_adapter@_W@__crt_stdio_output@@@__crt_stdio_output@@IAE_NXZ 40037030 f i libucrtd:output.obj
 0001:00036040       ?should_skip_normal_state_processing@?$standard_base@_WV?$string_output_adapter@_W@__crt_stdio_output@@@__crt_stdio_output@@IAE_NXZ 40037040 f i libucrtd:output.obj
 0001:00036050       ?should_skip_type_state_output@?$positional_parameter_base@DV?$stream_output_adapter@D@__crt_stdio_output@@@__crt_stdio_output@@IBE_NXZ 40037050 f i libucrtd:output.obj
 0001:00036090       ?should_skip_type_state_output@?$positional_parameter_base@DV?$string_output_adapter@D@__crt_stdio_output@@@__crt_stdio_output@@IBE_NXZ 40037090 f i libucrtd:output.obj
 0001:000360d0       ?should_skip_type_state_output@?$positional_parameter_base@_WV?$stream_output_adapter@_W@__crt_stdio_output@@@__crt_stdio_output@@IBE_NXZ 400370d0 f i libucrtd:output.obj
 0001:00036110       ?should_skip_type_state_output@?$positional_parameter_base@_WV?$string_output_adapter@_W@__crt_stdio_output@@@__crt_stdio_output@@IBE_NXZ 40037110 f i libucrtd:output.obj
 0001:00036150       ?should_skip_type_state_output@?$standard_base@DV?$stream_output_adapter@D@__crt_stdio_output@@@__crt_stdio_output@@IBE_NXZ 40037150 f i libucrtd:output.obj
 0001:00036160       ?should_skip_type_state_output@?$standard_base@DV?$string_output_adapter@D@__crt_stdio_output@@@__crt_stdio_output@@IBE_NXZ 40037160 f i libucrtd:output.obj
 0001:00036170       ?should_skip_type_state_output@?$standard_base@_WV?$stream_output_adapter@_W@__crt_stdio_output@@@__crt_stdio_output@@IBE_NXZ 40037170 f i libucrtd:output.obj
 0001:00036180       ?should_skip_type_state_output@?$standard_base@_WV?$string_output_adapter@_W@__crt_stdio_output@@@__crt_stdio_output@@IBE_NXZ 40037180 f i libucrtd:output.obj
 0001:00036190       ?state_case_dot@?$output_processor@DV?$stream_output_adapter@D@__crt_stdio_output@@V?$format_validation_base@DV?$stream_output_adapter@D@__crt_stdio_output@@@2@@__crt_stdio_output@@AAE_NXZ 40037190 f i libucrtd:output.obj
 0001:000361b0       ?state_case_dot@?$output_processor@DV?$stream_output_adapter@D@__crt_stdio_output@@V?$positional_parameter_base@DV?$stream_output_adapter@D@__crt_stdio_output@@@2@@__crt_stdio_output@@AAE_NXZ 400371b0 f i libucrtd:output.obj
 0001:000361d0       ?state_case_dot@?$output_processor@DV?$stream_output_adapter@D@__crt_stdio_output@@V?$standard_base@DV?$stream_output_adapter@D@__crt_stdio_output@@@2@@__crt_stdio_output@@AAE_NXZ 400371d0 f i libucrtd:output.obj
 0001:000361f0       ?state_case_dot@?$output_processor@DV?$string_output_adapter@D@__crt_stdio_output@@V?$format_validation_base@DV?$string_output_adapter@D@__crt_stdio_output@@@2@@__crt_stdio_output@@AAE_NXZ 400371f0 f i libucrtd:output.obj
 0001:00036210       ?state_case_dot@?$output_processor@DV?$string_output_adapter@D@__crt_stdio_output@@V?$positional_parameter_base@DV?$string_output_adapter@D@__crt_stdio_output@@@2@@__crt_stdio_output@@AAE_NXZ 40037210 f i libucrtd:output.obj
 0001:00036230       ?state_case_dot@?$output_processor@DV?$string_output_adapter@D@__crt_stdio_output@@V?$standard_base@DV?$string_output_adapter@D@__crt_stdio_output@@@2@@__crt_stdio_output@@AAE_NXZ 40037230 f i libucrtd:output.obj
 0001:00036250       ?state_case_dot@?$output_processor@_WV?$stream_output_adapter@_W@__crt_stdio_output@@V?$format_validation_base@_WV?$stream_output_adapter@_W@__crt_stdio_output@@@2@@__crt_stdio_output@@AAE_NXZ 40037250 f i libucrtd:output.obj
 0001:00036270       ?state_case_dot@?$output_processor@_WV?$stream_output_adapter@_W@__crt_stdio_output@@V?$positional_parameter_base@_WV?$stream_output_adapter@_W@__crt_stdio_output@@@2@@__crt_stdio_output@@AAE_NXZ 40037270 f i libucrtd:output.obj
 0001:00036290       ?state_case_dot@?$output_processor@_WV?$stream_output_adapter@_W@__crt_stdio_output@@V?$standard_base@_WV?$stream_output_adapter@_W@__crt_stdio_output@@@2@@__crt_stdio_output@@AAE_NXZ 40037290 f i libucrtd:output.obj
 0001:000362b0       ?state_case_dot@?$output_processor@_WV?$string_output_adapter@_W@__crt_stdio_output@@V?$format_validation_base@_WV?$string_output_adapter@_W@__crt_stdio_output@@@2@@__crt_stdio_output@@AAE_NXZ 400372b0 f i libucrtd:output.obj
 0001:000362d0       ?state_case_dot@?$output_processor@_WV?$string_output_adapter@_W@__crt_stdio_output@@V?$positional_parameter_base@_WV?$string_output_adapter@_W@__crt_stdio_output@@@2@@__crt_stdio_output@@AAE_NXZ 400372d0 f i libucrtd:output.obj
 0001:000362f0       ?state_case_dot@?$output_processor@_WV?$string_output_adapter@_W@__crt_stdio_output@@V?$standard_base@_WV?$string_output_adapter@_W@__crt_stdio_output@@@2@@__crt_stdio_output@@AAE_NXZ 400372f0 f i libucrtd:output.obj
 0001:00036310       ?state_case_flag@?$output_processor@DV?$stream_output_adapter@D@__crt_stdio_output@@V?$format_validation_base@DV?$stream_output_adapter@D@__crt_stdio_output@@@2@@__crt_stdio_output@@AAE_NXZ 40037310 f i libucrtd:output.obj
 0001:000363c0       ?state_case_flag@?$output_processor@DV?$stream_output_adapter@D@__crt_stdio_output@@V?$positional_parameter_base@DV?$stream_output_adapter@D@__crt_stdio_output@@@2@@__crt_stdio_output@@AAE_NXZ 400373c0 f i libucrtd:output.obj
 0001:00036470       ?state_case_flag@?$output_processor@DV?$stream_output_adapter@D@__crt_stdio_output@@V?$standard_base@DV?$stream_output_adapter@D@__crt_stdio_output@@@2@@__crt_stdio_output@@AAE_NXZ 40037470 f i libucrtd:output.obj
 0001:00036520       ?state_case_flag@?$output_processor@DV?$string_output_adapter@D@__crt_stdio_output@@V?$format_validation_base@DV?$string_output_adapter@D@__crt_stdio_output@@@2@@__crt_stdio_output@@AAE_NXZ 40037520 f i libucrtd:output.obj
 0001:000365d0       ?state_case_flag@?$output_processor@DV?$string_output_adapter@D@__crt_stdio_output@@V?$positional_parameter_base@DV?$string_output_adapter@D@__crt_stdio_output@@@2@@__crt_stdio_output@@AAE_NXZ 400375d0 f i libucrtd:output.obj
 0001:00036680       ?state_case_flag@?$output_processor@DV?$string_output_adapter@D@__crt_stdio_output@@V?$standard_base@DV?$string_output_adapter@D@__crt_stdio_output@@@2@@__crt_stdio_output@@AAE_NXZ 40037680 f i libucrtd:output.obj
 0001:00036730       ?state_case_flag@?$output_processor@_WV?$stream_output_adapter@_W@__crt_stdio_output@@V?$format_validation_base@_WV?$stream_output_adapter@_W@__crt_stdio_output@@@2@@__crt_stdio_output@@AAE_NXZ 40037730 f i libucrtd:output.obj
 0001:000367e0       ?state_case_flag@?$output_processor@_WV?$stream_output_adapter@_W@__crt_stdio_output@@V?$positional_parameter_base@_WV?$stream_output_adapter@_W@__crt_stdio_output@@@2@@__crt_stdio_output@@AAE_NXZ 400377e0 f i libucrtd:output.obj
 0001:00036890       ?state_case_flag@?$output_processor@_WV?$stream_output_adapter@_W@__crt_stdio_output@@V?$standard_base@_WV?$stream_output_adapter@_W@__crt_stdio_output@@@2@@__crt_stdio_output@@AAE_NXZ 40037890 f i libucrtd:output.obj
 0001:00036940       ?state_case_flag@?$output_processor@_WV?$string_output_adapter@_W@__crt_stdio_output@@V?$format_validation_base@_WV?$string_output_adapter@_W@__crt_stdio_output@@@2@@__crt_stdio_output@@AAE_NXZ 40037940 f i libucrtd:output.obj
 0001:000369f0       ?state_case_flag@?$output_processor@_WV?$string_output_adapter@_W@__crt_stdio_output@@V?$positional_parameter_base@_WV?$string_output_adapter@_W@__crt_stdio_output@@@2@@__crt_stdio_output@@AAE_NXZ 400379f0 f i libucrtd:output.obj
 0001:00036aa0       ?state_case_flag@?$output_processor@_WV?$string_output_adapter@_W@__crt_stdio_output@@V?$standard_base@_WV?$string_output_adapter@_W@__crt_stdio_output@@@2@@__crt_stdio_output@@AAE_NXZ 40037aa0 f i libucrtd:output.obj
 0001:00036b50       ?state_case_normal@?$output_processor@DV?$stream_output_adapter@D@__crt_stdio_output@@V?$format_validation_base@DV?$stream_output_adapter@D@__crt_stdio_output@@@2@@__crt_stdio_output@@AAE_NXZ 40037b50 f i libucrtd:output.obj
 0001:00036c10       ?state_case_normal@?$output_processor@DV?$stream_output_adapter@D@__crt_stdio_output@@V?$positional_parameter_base@DV?$stream_output_adapter@D@__crt_stdio_output@@@2@@__crt_stdio_output@@AAE_NXZ 40037c10 f i libucrtd:output.obj
 0001:00036cd0       ?state_case_normal@?$output_processor@DV?$stream_output_adapter@D@__crt_stdio_output@@V?$standard_base@DV?$stream_output_adapter@D@__crt_stdio_output@@@2@@__crt_stdio_output@@AAE_NXZ 40037cd0 f i libucrtd:output.obj
 0001:00036d90       ?state_case_normal@?$output_processor@DV?$string_output_adapter@D@__crt_stdio_output@@V?$format_validation_base@DV?$string_output_adapter@D@__crt_stdio_output@@@2@@__crt_stdio_output@@AAE_NXZ 40037d90 f i libucrtd:output.obj
 0001:00036e50       ?state_case_normal@?$output_processor@DV?$string_output_adapter@D@__crt_stdio_output@@V?$positional_parameter_base@DV?$string_output_adapter@D@__crt_stdio_output@@@2@@__crt_stdio_output@@AAE_NXZ 40037e50 f i libucrtd:output.obj
 0001:00036f10       ?state_case_normal@?$output_processor@DV?$string_output_adapter@D@__crt_stdio_output@@V?$standard_base@DV?$string_output_adapter@D@__crt_stdio_output@@@2@@__crt_stdio_output@@AAE_NXZ 40037f10 f i libucrtd:output.obj
 0001:00036fd0       ?state_case_normal@?$output_processor@_WV?$stream_output_adapter@_W@__crt_stdio_output@@V?$format_validation_base@_WV?$stream_output_adapter@_W@__crt_stdio_output@@@2@@__crt_stdio_output@@AAE_NXZ 40037fd0 f i libucrtd:output.obj
 0001:00037090       ?state_case_normal@?$output_processor@_WV?$stream_output_adapter@_W@__crt_stdio_output@@V?$positional_parameter_base@_WV?$stream_output_adapter@_W@__crt_stdio_output@@@2@@__crt_stdio_output@@AAE_NXZ 40038090 f i libucrtd:output.obj
 0001:00037150       ?state_case_normal@?$output_processor@_WV?$stream_output_adapter@_W@__crt_stdio_output@@V?$standard_base@_WV?$stream_output_adapter@_W@__crt_stdio_output@@@2@@__crt_stdio_output@@AAE_NXZ 40038150 f i libucrtd:output.obj
 0001:00037210       ?state_case_normal@?$output_processor@_WV?$string_output_adapter@_W@__crt_stdio_output@@V?$format_validation_base@_WV?$string_output_adapter@_W@__crt_stdio_output@@@2@@__crt_stdio_output@@AAE_NXZ 40038210 f i libucrtd:output.obj
 0001:000372d0       ?state_case_normal@?$output_processor@_WV?$string_output_adapter@_W@__crt_stdio_output@@V?$positional_parameter_base@_WV?$string_output_adapter@_W@__crt_stdio_output@@@2@@__crt_stdio_output@@AAE_NXZ 400382d0 f i libucrtd:output.obj
 0001:00037390       ?state_case_normal@?$output_processor@_WV?$string_output_adapter@_W@__crt_stdio_output@@V?$standard_base@_WV?$string_output_adapter@_W@__crt_stdio_output@@@2@@__crt_stdio_output@@AAE_NXZ 40038390 f i libucrtd:output.obj
 0001:00037450       ?state_case_normal_common@?$output_processor@DV?$stream_output_adapter@D@__crt_stdio_output@@V?$format_validation_base@DV?$stream_output_adapter@D@__crt_stdio_output@@@2@@__crt_stdio_output@@AAE_NXZ 40038450 f i libucrtd:output.obj
 0001:000374a0       ?state_case_normal_common@?$output_processor@DV?$stream_output_adapter@D@__crt_stdio_output@@V?$positional_parameter_base@DV?$stream_output_adapter@D@__crt_stdio_output@@@2@@__crt_stdio_output@@AAE_NXZ 400384a0 f i libucrtd:output.obj
 0001:000374f0       ?state_case_normal_common@?$output_processor@DV?$stream_output_adapter@D@__crt_stdio_output@@V?$standard_base@DV?$stream_output_adapter@D@__crt_stdio_output@@@2@@__crt_stdio_output@@AAE_NXZ 400384f0 f i libucrtd:output.obj
 0001:00037540       ?state_case_normal_common@?$output_processor@DV?$string_output_adapter@D@__crt_stdio_output@@V?$format_validation_base@DV?$string_output_adapter@D@__crt_stdio_output@@@2@@__crt_stdio_output@@AAE_NXZ 40038540 f i libucrtd:output.obj
 0001:00037590       ?state_case_normal_common@?$output_processor@DV?$string_output_adapter@D@__crt_stdio_output@@V?$positional_parameter_base@DV?$string_output_adapter@D@__crt_stdio_output@@@2@@__crt_stdio_output@@AAE_NXZ 40038590 f i libucrtd:output.obj
 0001:000375e0       ?state_case_normal_common@?$output_processor@DV?$string_output_adapter@D@__crt_stdio_output@@V?$standard_base@DV?$string_output_adapter@D@__crt_stdio_output@@@2@@__crt_stdio_output@@AAE_NXZ 400385e0 f i libucrtd:output.obj
 0001:00037630       ?state_case_normal_common@?$output_processor@_WV?$stream_output_adapter@_W@__crt_stdio_output@@V?$format_validation_base@_WV?$stream_output_adapter@_W@__crt_stdio_output@@@2@@__crt_stdio_output@@AAE_NXZ 40038630 f i libucrtd:output.obj
 0001:00037680       ?state_case_normal_common@?$output_processor@_WV?$stream_output_adapter@_W@__crt_stdio_output@@V?$positional_parameter_base@_WV?$stream_output_adapter@_W@__crt_stdio_output@@@2@@__crt_stdio_output@@AAE_NXZ 40038680 f i libucrtd:output.obj
 0001:000376d0       ?state_case_normal_common@?$output_processor@_WV?$stream_output_adapter@_W@__crt_stdio_output@@V?$standard_base@_WV?$stream_output_adapter@_W@__crt_stdio_output@@@2@@__crt_stdio_output@@AAE_NXZ 400386d0 f i libucrtd:output.obj
 0001:00037720       ?state_case_normal_common@?$output_processor@_WV?$string_output_adapter@_W@__crt_stdio_output@@V?$format_validation_base@_WV?$string_output_adapter@_W@__crt_stdio_output@@@2@@__crt_stdio_output@@AAE_NXZ 40038720 f i libucrtd:output.obj
 0001:00037770       ?state_case_normal_common@?$output_processor@_WV?$string_output_adapter@_W@__crt_stdio_output@@V?$positional_parameter_base@_WV?$string_output_adapter@_W@__crt_stdio_output@@@2@@__crt_stdio_output@@AAE_NXZ 40038770 f i libucrtd:output.obj
 0001:000377c0       ?state_case_normal_common@?$output_processor@_WV?$string_output_adapter@_W@__crt_stdio_output@@V?$standard_base@_WV?$string_output_adapter@_W@__crt_stdio_output@@@2@@__crt_stdio_output@@AAE_NXZ 400387c0 f i libucrtd:output.obj
 0001:00037810       ?state_case_normal_tchar@?$output_processor@DV?$stream_output_adapter@D@__crt_stdio_output@@V?$format_validation_base@DV?$stream_output_adapter@D@__crt_stdio_output@@@2@@__crt_stdio_output@@AAE_ND@Z 40038810 f i libucrtd:output.obj
 0001:00037940       ?state_case_normal_tchar@?$output_processor@DV?$stream_output_adapter@D@__crt_stdio_output@@V?$positional_parameter_base@DV?$stream_output_adapter@D@__crt_stdio_output@@@2@@__crt_stdio_output@@AAE_ND@Z 40038940 f i libucrtd:output.obj
 0001:00037a70       ?state_case_normal_tchar@?$output_processor@DV?$stream_output_adapter@D@__crt_stdio_output@@V?$standard_base@DV?$stream_output_adapter@D@__crt_stdio_output@@@2@@__crt_stdio_output@@AAE_ND@Z 40038a70 f i libucrtd:output.obj
 0001:00037ba0       ?state_case_normal_tchar@?$output_processor@DV?$string_output_adapter@D@__crt_stdio_output@@V?$format_validation_base@DV?$string_output_adapter@D@__crt_stdio_output@@@2@@__crt_stdio_output@@AAE_ND@Z 40038ba0 f i libucrtd:output.obj
 0001:00037cd0       ?state_case_normal_tchar@?$output_processor@DV?$string_output_adapter@D@__crt_stdio_output@@V?$positional_parameter_base@DV?$string_output_adapter@D@__crt_stdio_output@@@2@@__crt_stdio_output@@AAE_ND@Z 40038cd0 f i libucrtd:output.obj
 0001:00037e00       ?state_case_normal_tchar@?$output_processor@DV?$string_output_adapter@D@__crt_stdio_output@@V?$standard_base@DV?$string_output_adapter@D@__crt_stdio_output@@@2@@__crt_stdio_output@@AAE_ND@Z 40038e00 f i libucrtd:output.obj
 0001:00037f30       ?state_case_normal_tchar@?$output_processor@_WV?$stream_output_adapter@_W@__crt_stdio_output@@V?$format_validation_base@_WV?$stream_output_adapter@_W@__crt_stdio_output@@@2@@__crt_stdio_output@@AAE_N_W@Z 40038f30 f i libucrtd:output.obj
 0001:00037f50       ?state_case_normal_tchar@?$output_processor@_WV?$stream_output_adapter@_W@__crt_stdio_output@@V?$positional_parameter_base@_WV?$stream_output_adapter@_W@__crt_stdio_output@@@2@@__crt_stdio_output@@AAE_N_W@Z 40038f50 f i libucrtd:output.obj
 0001:00037f70       ?state_case_normal_tchar@?$output_processor@_WV?$stream_output_adapter@_W@__crt_stdio_output@@V?$standard_base@_WV?$stream_output_adapter@_W@__crt_stdio_output@@@2@@__crt_stdio_output@@AAE_N_W@Z 40038f70 f i libucrtd:output.obj
 0001:00037f90       ?state_case_normal_tchar@?$output_processor@_WV?$string_output_adapter@_W@__crt_stdio_output@@V?$format_validation_base@_WV?$string_output_adapter@_W@__crt_stdio_output@@@2@@__crt_stdio_output@@AAE_N_W@Z 40038f90 f i libucrtd:output.obj
 0001:00037fb0       ?state_case_normal_tchar@?$output_processor@_WV?$string_output_adapter@_W@__crt_stdio_output@@V?$positional_parameter_base@_WV?$string_output_adapter@_W@__crt_stdio_output@@@2@@__crt_stdio_output@@AAE_N_W@Z 40038fb0 f i libucrtd:output.obj
 0001:00037fd0       ?state_case_normal_tchar@?$output_processor@_WV?$string_output_adapter@_W@__crt_stdio_output@@V?$standard_base@_WV?$string_output_adapter@_W@__crt_stdio_output@@@2@@__crt_stdio_output@@AAE_N_W@Z 40038fd0 f i libucrtd:output.obj
 0001:00037ff0       ?state_case_percent@?$output_processor@DV?$stream_output_adapter@D@__crt_stdio_output@@V?$format_validation_base@DV?$stream_output_adapter@D@__crt_stdio_output@@@2@@__crt_stdio_output@@AAE_NXZ 40038ff0 f i libucrtd:output.obj
 0001:00038040       ?state_case_percent@?$output_processor@DV?$stream_output_adapter@D@__crt_stdio_output@@V?$positional_parameter_base@DV?$stream_output_adapter@D@__crt_stdio_output@@@2@@__crt_stdio_output@@AAE_NXZ 40039040 f i libucrtd:output.obj
 0001:00038090       ?state_case_percent@?$output_processor@DV?$stream_output_adapter@D@__crt_stdio_output@@V?$standard_base@DV?$stream_output_adapter@D@__crt_stdio_output@@@2@@__crt_stdio_output@@AAE_NXZ 40039090 f i libucrtd:output.obj
 0001:000380e0       ?state_case_percent@?$output_processor@DV?$string_output_adapter@D@__crt_stdio_output@@V?$format_validation_base@DV?$string_output_adapter@D@__crt_stdio_output@@@2@@__crt_stdio_output@@AAE_NXZ 400390e0 f i libucrtd:output.obj
 0001:00038130       ?state_case_percent@?$output_processor@DV?$string_output_adapter@D@__crt_stdio_output@@V?$positional_parameter_base@DV?$string_output_adapter@D@__crt_stdio_output@@@2@@__crt_stdio_output@@AAE_NXZ 40039130 f i libucrtd:output.obj
 0001:00038180       ?state_case_percent@?$output_processor@DV?$string_output_adapter@D@__crt_stdio_output@@V?$standard_base@DV?$string_output_adapter@D@__crt_stdio_output@@@2@@__crt_stdio_output@@AAE_NXZ 40039180 f i libucrtd:output.obj
 0001:000381d0       ?state_case_percent@?$output_processor@_WV?$stream_output_adapter@_W@__crt_stdio_output@@V?$format_validation_base@_WV?$stream_output_adapter@_W@__crt_stdio_output@@@2@@__crt_stdio_output@@AAE_NXZ 400391d0 f i libucrtd:output.obj
 0001:00038220       ?state_case_percent@?$output_processor@_WV?$stream_output_adapter@_W@__crt_stdio_output@@V?$positional_parameter_base@_WV?$stream_output_adapter@_W@__crt_stdio_output@@@2@@__crt_stdio_output@@AAE_NXZ 40039220 f i libucrtd:output.obj
 0001:00038270       ?state_case_percent@?$output_processor@_WV?$stream_output_adapter@_W@__crt_stdio_output@@V?$standard_base@_WV?$stream_output_adapter@_W@__crt_stdio_output@@@2@@__crt_stdio_output@@AAE_NXZ 40039270 f i libucrtd:output.obj
 0001:000382c0       ?state_case_percent@?$output_processor@_WV?$string_output_adapter@_W@__crt_stdio_output@@V?$format_validation_base@_WV?$string_output_adapter@_W@__crt_stdio_output@@@2@@__crt_stdio_output@@AAE_NXZ 400392c0 f i libucrtd:output.obj
 0001:00038310       ?state_case_percent@?$output_processor@_WV?$string_output_adapter@_W@__crt_stdio_output@@V?$positional_parameter_base@_WV?$string_output_adapter@_W@__crt_stdio_output@@@2@@__crt_stdio_output@@AAE_NXZ 40039310 f i libucrtd:output.obj
 0001:00038360       ?state_case_percent@?$output_processor@_WV?$string_output_adapter@_W@__crt_stdio_output@@V?$standard_base@_WV?$string_output_adapter@_W@__crt_stdio_output@@@2@@__crt_stdio_output@@AAE_NXZ 40039360 f i libucrtd:output.obj
 0001:000383b0       ?state_case_precision@?$output_processor@DV?$stream_output_adapter@D@__crt_stdio_output@@V?$format_validation_base@DV?$stream_output_adapter@D@__crt_stdio_output@@@2@@__crt_stdio_output@@AAE_NXZ 400393b0 f i libucrtd:output.obj
 0001:00038420       ?state_case_precision@?$output_processor@DV?$stream_output_adapter@D@__crt_stdio_output@@V?$positional_parameter_base@DV?$stream_output_adapter@D@__crt_stdio_output@@@2@@__crt_stdio_output@@AAE_NXZ 40039420 f i libucrtd:output.obj
 0001:00038490       ?state_case_precision@?$output_processor@DV?$stream_output_adapter@D@__crt_stdio_output@@V?$standard_base@DV?$stream_output_adapter@D@__crt_stdio_output@@@2@@__crt_stdio_output@@AAE_NXZ 40039490 f i libucrtd:output.obj
 0001:00038500       ?state_case_precision@?$output_processor@DV?$string_output_adapter@D@__crt_stdio_output@@V?$format_validation_base@DV?$string_output_adapter@D@__crt_stdio_output@@@2@@__crt_stdio_output@@AAE_NXZ 40039500 f i libucrtd:output.obj
 0001:00038570       ?state_case_precision@?$output_processor@DV?$string_output_adapter@D@__crt_stdio_output@@V?$positional_parameter_base@DV?$string_output_adapter@D@__crt_stdio_output@@@2@@__crt_stdio_output@@AAE_NXZ 40039570 f i libucrtd:output.obj
 0001:000385e0       ?state_case_precision@?$output_processor@DV?$string_output_adapter@D@__crt_stdio_output@@V?$standard_base@DV?$string_output_adapter@D@__crt_stdio_output@@@2@@__crt_stdio_output@@AAE_NXZ 400395e0 f i libucrtd:output.obj
 0001:00038650       ?state_case_precision@?$output_processor@_WV?$stream_output_adapter@_W@__crt_stdio_output@@V?$format_validation_base@_WV?$stream_output_adapter@_W@__crt_stdio_output@@@2@@__crt_stdio_output@@AAE_NXZ 40039650 f i libucrtd:output.obj
 0001:000386c0       ?state_case_precision@?$output_processor@_WV?$stream_output_adapter@_W@__crt_stdio_output@@V?$positional_parameter_base@_WV?$stream_output_adapter@_W@__crt_stdio_output@@@2@@__crt_stdio_output@@AAE_NXZ 400396c0 f i libucrtd:output.obj
 0001:00038730       ?state_case_precision@?$output_processor@_WV?$stream_output_adapter@_W@__crt_stdio_output@@V?$standard_base@_WV?$stream_output_adapter@_W@__crt_stdio_output@@@2@@__crt_stdio_output@@AAE_NXZ 40039730 f i libucrtd:output.obj
 0001:000387a0       ?state_case_precision@?$output_processor@_WV?$string_output_adapter@_W@__crt_stdio_output@@V?$format_validation_base@_WV?$string_output_adapter@_W@__crt_stdio_output@@@2@@__crt_stdio_output@@AAE_NXZ 400397a0 f i libucrtd:output.obj
 0001:00038810       ?state_case_precision@?$output_processor@_WV?$string_output_adapter@_W@__crt_stdio_output@@V?$positional_parameter_base@_WV?$string_output_adapter@_W@__crt_stdio_output@@@2@@__crt_stdio_output@@AAE_NXZ 40039810 f i libucrtd:output.obj
 0001:00038880       ?state_case_precision@?$output_processor@_WV?$string_output_adapter@_W@__crt_stdio_output@@V?$standard_base@_WV?$string_output_adapter@_W@__crt_stdio_output@@@2@@__crt_stdio_output@@AAE_NXZ 40039880 f i libucrtd:output.obj
 0001:000388f0       ?state_case_size@?$output_processor@DV?$stream_output_adapter@D@__crt_stdio_output@@V?$format_validation_base@DV?$stream_output_adapter@D@__crt_stdio_output@@@2@@__crt_stdio_output@@AAE_NXZ 400398f0 f i libucrtd:output.obj
 0001:00038ce0       ?state_case_size@?$output_processor@DV?$stream_output_adapter@D@__crt_stdio_output@@V?$positional_parameter_base@DV?$stream_output_adapter@D@__crt_stdio_output@@@2@@__crt_stdio_output@@AAE_NXZ 40039ce0 f i libucrtd:output.obj
 0001:000390d0       ?state_case_size@?$output_processor@DV?$stream_output_adapter@D@__crt_stdio_output@@V?$standard_base@DV?$stream_output_adapter@D@__crt_stdio_output@@@2@@__crt_stdio_output@@AAE_NXZ 4003a0d0 f i libucrtd:output.obj
 0001:000394c0       ?state_case_size@?$output_processor@DV?$string_output_adapter@D@__crt_stdio_output@@V?$format_validation_base@DV?$string_output_adapter@D@__crt_stdio_output@@@2@@__crt_stdio_output@@AAE_NXZ 4003a4c0 f i libucrtd:output.obj
 0001:000398b0       ?state_case_size@?$output_processor@DV?$string_output_adapter@D@__crt_stdio_output@@V?$positional_parameter_base@DV?$string_output_adapter@D@__crt_stdio_output@@@2@@__crt_stdio_output@@AAE_NXZ 4003a8b0 f i libucrtd:output.obj
 0001:00039ca0       ?state_case_size@?$output_processor@DV?$string_output_adapter@D@__crt_stdio_output@@V?$standard_base@DV?$string_output_adapter@D@__crt_stdio_output@@@2@@__crt_stdio_output@@AAE_NXZ 4003aca0 f i libucrtd:output.obj
 0001:0003a090       ?state_case_size@?$output_processor@_WV?$stream_output_adapter@_W@__crt_stdio_output@@V?$format_validation_base@_WV?$stream_output_adapter@_W@__crt_stdio_output@@@2@@__crt_stdio_output@@AAE_NXZ 4003b090 f i libucrtd:output.obj
 0001:0003a480       ?state_case_size@?$output_processor@_WV?$stream_output_adapter@_W@__crt_stdio_output@@V?$positional_parameter_base@_WV?$stream_output_adapter@_W@__crt_stdio_output@@@2@@__crt_stdio_output@@AAE_NXZ 4003b480 f i libucrtd:output.obj
 0001:0003a870       ?state_case_size@?$output_processor@_WV?$stream_output_adapter@_W@__crt_stdio_output@@V?$standard_base@_WV?$stream_output_adapter@_W@__crt_stdio_output@@@2@@__crt_stdio_output@@AAE_NXZ 4003b870 f i libucrtd:output.obj
 0001:0003ac60       ?state_case_size@?$output_processor@_WV?$string_output_adapter@_W@__crt_stdio_output@@V?$format_validation_base@_WV?$string_output_adapter@_W@__crt_stdio_output@@@2@@__crt_stdio_output@@AAE_NXZ 4003bc60 f i libucrtd:output.obj
 0001:0003b050       ?state_case_size@?$output_processor@_WV?$string_output_adapter@_W@__crt_stdio_output@@V?$positional_parameter_base@_WV?$string_output_adapter@_W@__crt_stdio_output@@@2@@__crt_stdio_output@@AAE_NXZ 4003c050 f i libucrtd:output.obj
 0001:0003b440       ?state_case_size@?$output_processor@_WV?$string_output_adapter@_W@__crt_stdio_output@@V?$standard_base@_WV?$string_output_adapter@_W@__crt_stdio_output@@@2@@__crt_stdio_output@@AAE_NXZ 4003c440 f i libucrtd:output.obj
 0001:0003b830       ?state_case_type@?$output_processor@DV?$stream_output_adapter@D@__crt_stdio_output@@V?$format_validation_base@DV?$stream_output_adapter@D@__crt_stdio_output@@@2@@__crt_stdio_output@@AAE_NXZ 4003c830 f i libucrtd:output.obj
 0001:0003bc00       ?state_case_type@?$output_processor@DV?$stream_output_adapter@D@__crt_stdio_output@@V?$positional_parameter_base@DV?$stream_output_adapter@D@__crt_stdio_output@@@2@@__crt_stdio_output@@AAE_NXZ 4003cc00 f i libucrtd:output.obj
 0001:0003bfd0       ?state_case_type@?$output_processor@DV?$stream_output_adapter@D@__crt_stdio_output@@V?$standard_base@DV?$stream_output_adapter@D@__crt_stdio_output@@@2@@__crt_stdio_output@@AAE_NXZ 4003cfd0 f i libucrtd:output.obj
 0001:0003c3a0       ?state_case_type@?$output_processor@DV?$string_output_adapter@D@__crt_stdio_output@@V?$format_validation_base@DV?$string_output_adapter@D@__crt_stdio_output@@@2@@__crt_stdio_output@@AAE_NXZ 4003d3a0 f i libucrtd:output.obj
 0001:0003c770       ?state_case_type@?$output_processor@DV?$string_output_adapter@D@__crt_stdio_output@@V?$positional_parameter_base@DV?$string_output_adapter@D@__crt_stdio_output@@@2@@__crt_stdio_output@@AAE_NXZ 4003d770 f i libucrtd:output.obj
 0001:0003cb40       ?state_case_type@?$output_processor@DV?$string_output_adapter@D@__crt_stdio_output@@V?$standard_base@DV?$string_output_adapter@D@__crt_stdio_output@@@2@@__crt_stdio_output@@AAE_NXZ 4003db40 f i libucrtd:output.obj
 0001:0003cf10       ?state_case_type@?$output_processor@_WV?$stream_output_adapter@_W@__crt_stdio_output@@V?$format_validation_base@_WV?$stream_output_adapter@_W@__crt_stdio_output@@@2@@__crt_stdio_output@@AAE_NXZ 4003df10 f i libucrtd:output.obj
 0001:0003d310       ?state_case_type@?$output_processor@_WV?$stream_output_adapter@_W@__crt_stdio_output@@V?$positional_parameter_base@_WV?$stream_output_adapter@_W@__crt_stdio_output@@@2@@__crt_stdio_output@@AAE_NXZ 4003e310 f i libucrtd:output.obj
 0001:0003d710       ?state_case_type@?$output_processor@_WV?$stream_output_adapter@_W@__crt_stdio_output@@V?$standard_base@_WV?$stream_output_adapter@_W@__crt_stdio_output@@@2@@__crt_stdio_output@@AAE_NXZ 4003e710 f i libucrtd:output.obj
 0001:0003db10       ?state_case_type@?$output_processor@_WV?$string_output_adapter@_W@__crt_stdio_output@@V?$format_validation_base@_WV?$string_output_adapter@_W@__crt_stdio_output@@@2@@__crt_stdio_output@@AAE_NXZ 4003eb10 f i libucrtd:output.obj
 0001:0003df10       ?state_case_type@?$output_processor@_WV?$string_output_adapter@_W@__crt_stdio_output@@V?$positional_parameter_base@_WV?$string_output_adapter@_W@__crt_stdio_output@@@2@@__crt_stdio_output@@AAE_NXZ 4003ef10 f i libucrtd:output.obj
 0001:0003e310       ?state_case_type@?$output_processor@_WV?$string_output_adapter@_W@__crt_stdio_output@@V?$standard_base@_WV?$string_output_adapter@_W@__crt_stdio_output@@@2@@__crt_stdio_output@@AAE_NXZ 4003f310 f i libucrtd:output.obj
 0001:0003e710       ?state_case_width@?$output_processor@DV?$stream_output_adapter@D@__crt_stdio_output@@V?$format_validation_base@DV?$stream_output_adapter@D@__crt_stdio_output@@@2@@__crt_stdio_output@@AAE_NXZ 4003f710 f i libucrtd:output.obj
 0001:0003e790       ?state_case_width@?$output_processor@DV?$stream_output_adapter@D@__crt_stdio_output@@V?$positional_parameter_base@DV?$stream_output_adapter@D@__crt_stdio_output@@@2@@__crt_stdio_output@@AAE_NXZ 4003f790 f i libucrtd:output.obj
 0001:0003e810       ?state_case_width@?$output_processor@DV?$stream_output_adapter@D@__crt_stdio_output@@V?$standard_base@DV?$stream_output_adapter@D@__crt_stdio_output@@@2@@__crt_stdio_output@@AAE_NXZ 4003f810 f i libucrtd:output.obj
 0001:0003e890       ?state_case_width@?$output_processor@DV?$string_output_adapter@D@__crt_stdio_output@@V?$format_validation_base@DV?$string_output_adapter@D@__crt_stdio_output@@@2@@__crt_stdio_output@@AAE_NXZ 4003f890 f i libucrtd:output.obj
 0001:0003e910       ?state_case_width@?$output_processor@DV?$string_output_adapter@D@__crt_stdio_output@@V?$positional_parameter_base@DV?$string_output_adapter@D@__crt_stdio_output@@@2@@__crt_stdio_output@@AAE_NXZ 4003f910 f i libucrtd:output.obj
 0001:0003e990       ?state_case_width@?$output_processor@DV?$string_output_adapter@D@__crt_stdio_output@@V?$standard_base@DV?$string_output_adapter@D@__crt_stdio_output@@@2@@__crt_stdio_output@@AAE_NXZ 4003f990 f i libucrtd:output.obj
 0001:0003ea10       ?state_case_width@?$output_processor@_WV?$stream_output_adapter@_W@__crt_stdio_output@@V?$format_validation_base@_WV?$stream_output_adapter@_W@__crt_stdio_output@@@2@@__crt_stdio_output@@AAE_NXZ 4003fa10 f i libucrtd:output.obj
 0001:0003ea90       ?state_case_width@?$output_processor@_WV?$stream_output_adapter@_W@__crt_stdio_output@@V?$positional_parameter_base@_WV?$stream_output_adapter@_W@__crt_stdio_output@@@2@@__crt_stdio_output@@AAE_NXZ 4003fa90 f i libucrtd:output.obj
 0001:0003eb10       ?state_case_width@?$output_processor@_WV?$stream_output_adapter@_W@__crt_stdio_output@@V?$standard_base@_WV?$stream_output_adapter@_W@__crt_stdio_output@@@2@@__crt_stdio_output@@AAE_NXZ 4003fb10 f i libucrtd:output.obj
 0001:0003eb90       ?state_case_width@?$output_processor@_WV?$string_output_adapter@_W@__crt_stdio_output@@V?$format_validation_base@_WV?$string_output_adapter@_W@__crt_stdio_output@@@2@@__crt_stdio_output@@AAE_NXZ 4003fb90 f i libucrtd:output.obj
 0001:0003ec10       ?state_case_width@?$output_processor@_WV?$string_output_adapter@_W@__crt_stdio_output@@V?$positional_parameter_base@_WV?$string_output_adapter@_W@__crt_stdio_output@@@2@@__crt_stdio_output@@AAE_NXZ 4003fc10 f i libucrtd:output.obj
 0001:0003ec90       ?state_case_width@?$output_processor@_WV?$string_output_adapter@_W@__crt_stdio_output@@V?$standard_base@_WV?$string_output_adapter@_W@__crt_stdio_output@@@2@@__crt_stdio_output@@AAE_NXZ 4003fc90 f i libucrtd:output.obj
 0001:0003ed10       ?state_count@?$format_validation_base@DV?$stream_output_adapter@D@__crt_stdio_output@@@__crt_stdio_output@@KAIXZ 4003fd10 f i libucrtd:output.obj
 0001:0003ed20       ?state_count@?$format_validation_base@DV?$string_output_adapter@D@__crt_stdio_output@@@__crt_stdio_output@@KAIXZ 4003fd20 f i libucrtd:output.obj
 0001:0003ed30       ?state_count@?$format_validation_base@_WV?$stream_output_adapter@_W@__crt_stdio_output@@@__crt_stdio_output@@KAIXZ 4003fd30 f i libucrtd:output.obj
 0001:0003ed40       ?state_count@?$format_validation_base@_WV?$string_output_adapter@_W@__crt_stdio_output@@@__crt_stdio_output@@KAIXZ 4003fd40 f i libucrtd:output.obj
 0001:0003ed50       ?state_count@?$standard_base@DV?$stream_output_adapter@D@__crt_stdio_output@@@__crt_stdio_output@@KAIXZ 4003fd50 f i libucrtd:output.obj
 0001:0003ed60       ?state_count@?$standard_base@DV?$string_output_adapter@D@__crt_stdio_output@@@__crt_stdio_output@@KAIXZ 4003fd60 f i libucrtd:output.obj
 0001:0003ed70       ?state_count@?$standard_base@_WV?$stream_output_adapter@_W@__crt_stdio_output@@@__crt_stdio_output@@KAIXZ 4003fd70 f i libucrtd:output.obj
 0001:0003ed80       ?state_count@?$standard_base@_WV?$string_output_adapter@_W@__crt_stdio_output@@@__crt_stdio_output@@KAIXZ 4003fd80 f i libucrtd:output.obj
 0001:0003ed90       ?state_transition_table@?$format_validation_base@DV?$stream_output_adapter@D@__crt_stdio_output@@@__crt_stdio_output@@KAABV?$spectre_mitigated_lookup_table@Ustate_transition_pair@__crt_stdio_output@@$0IA@@2@XZ 4003fd90 f i libucrtd:output.obj
 0001:0003eda0       ?state_transition_table@?$format_validation_base@DV?$string_output_adapter@D@__crt_stdio_output@@@__crt_stdio_output@@KAABV?$spectre_mitigated_lookup_table@Ustate_transition_pair@__crt_stdio_output@@$0IA@@2@XZ 4003fda0 f i libucrtd:output.obj
 0001:0003edb0       ?state_transition_table@?$format_validation_base@_WV?$stream_output_adapter@_W@__crt_stdio_output@@@__crt_stdio_output@@KAABV?$spectre_mitigated_lookup_table@Ustate_transition_pair@__crt_stdio_output@@$0IA@@2@XZ 4003fdb0 f i libucrtd:output.obj
 0001:0003edc0       ?state_transition_table@?$format_validation_base@_WV?$string_output_adapter@_W@__crt_stdio_output@@@__crt_stdio_output@@KAABV?$spectre_mitigated_lookup_table@Ustate_transition_pair@__crt_stdio_output@@$0IA@@2@XZ 4003fdc0 f i libucrtd:output.obj
 0001:0003edd0       ?state_transition_table@?$standard_base@DV?$stream_output_adapter@D@__crt_stdio_output@@@__crt_stdio_output@@KAABV?$spectre_mitigated_lookup_table@Ustate_transition_pair@__crt_stdio_output@@$0IA@@2@XZ 4003fdd0 f i libucrtd:output.obj
 0001:0003ede0       ?state_transition_table@?$standard_base@DV?$string_output_adapter@D@__crt_stdio_output@@@__crt_stdio_output@@KAABV?$spectre_mitigated_lookup_table@Ustate_transition_pair@__crt_stdio_output@@$0IA@@2@XZ 4003fde0 f i libucrtd:output.obj
 0001:0003edf0       ?state_transition_table@?$standard_base@_WV?$stream_output_adapter@_W@__crt_stdio_output@@@__crt_stdio_output@@KAABV?$spectre_mitigated_lookup_table@Ustate_transition_pair@__crt_stdio_output@@$0IA@@2@XZ 4003fdf0 f i libucrtd:output.obj
 0001:0003ee00       ?state_transition_table@?$standard_base@_WV?$string_output_adapter@_W@__crt_stdio_output@@@__crt_stdio_output@@KAABV?$spectre_mitigated_lookup_table@Ustate_transition_pair@__crt_stdio_output@@$0IA@@2@XZ 4003fe00 f i libucrtd:output.obj
 0001:0003ee10       ?tchar_string@?$common_data@D@__crt_stdio_output@@IAEAAPADD@Z 4003fe10 f i libucrtd:output.obj
 0001:0003ee30       ?tchar_string@?$common_data@D@__crt_stdio_output@@IAEAAPADXZ 4003fe30 f i libucrtd:output.obj
 0001:0003ee50       ?tchar_string@?$common_data@_W@__crt_stdio_output@@IAEAAPA_WXZ 4003fe50 f i libucrtd:output.obj
 0001:0003ee70       ?tchar_string@?$common_data@_W@__crt_stdio_output@@IAEAAPA_W_W@Z 4003fe70 f i libucrtd:output.obj
 0001:0003ee90       ?to_integer_size@__crt_stdio_output@@YAIW4length_modifier@1@@Z 4003fe90 f i libucrtd:output.obj
 0001:0003ef30       ?type_case_X@?$output_processor@DV?$stream_output_adapter@D@__crt_stdio_output@@V?$format_validation_base@DV?$stream_output_adapter@D@__crt_stdio_output@@@2@@__crt_stdio_output@@AAE_NXZ 4003ff30 f i libucrtd:output.obj
 0001:0003ef50       ?type_case_X@?$output_processor@DV?$stream_output_adapter@D@__crt_stdio_output@@V?$positional_parameter_base@DV?$stream_output_adapter@D@__crt_stdio_output@@@2@@__crt_stdio_output@@AAE_NXZ 4003ff50 f i libucrtd:output.obj
 0001:0003ef70       ?type_case_X@?$output_processor@DV?$stream_output_adapter@D@__crt_stdio_output@@V?$standard_base@DV?$stream_output_adapter@D@__crt_stdio_output@@@2@@__crt_stdio_output@@AAE_NXZ 4003ff70 f i libucrtd:output.obj
 0001:0003ef90       ?type_case_X@?$output_processor@DV?$string_output_adapter@D@__crt_stdio_output@@V?$format_validation_base@DV?$string_output_adapter@D@__crt_stdio_output@@@2@@__crt_stdio_output@@AAE_NXZ 4003ff90 f i libucrtd:output.obj
 0001:0003efb0       ?type_case_X@?$output_processor@DV?$string_output_adapter@D@__crt_stdio_output@@V?$positional_parameter_base@DV?$string_output_adapter@D@__crt_stdio_output@@@2@@__crt_stdio_output@@AAE_NXZ 4003ffb0 f i libucrtd:output.obj
 0001:0003efd0       ?type_case_X@?$output_processor@DV?$string_output_adapter@D@__crt_stdio_output@@V?$standard_base@DV?$string_output_adapter@D@__crt_stdio_output@@@2@@__crt_stdio_output@@AAE_NXZ 4003ffd0 f i libucrtd:output.obj
 0001:0003eff0       ?type_case_X@?$output_processor@_WV?$stream_output_adapter@_W@__crt_stdio_output@@V?$format_validation_base@_WV?$stream_output_adapter@_W@__crt_stdio_output@@@2@@__crt_stdio_output@@AAE_NXZ 4003fff0 f i libucrtd:output.obj
 0001:0003f010       ?type_case_X@?$output_processor@_WV?$stream_output_adapter@_W@__crt_stdio_output@@V?$positional_parameter_base@_WV?$stream_output_adapter@_W@__crt_stdio_output@@@2@@__crt_stdio_output@@AAE_NXZ 40040010 f i libucrtd:output.obj
 0001:0003f030       ?type_case_X@?$output_processor@_WV?$stream_output_adapter@_W@__crt_stdio_output@@V?$standard_base@_WV?$stream_output_adapter@_W@__crt_stdio_output@@@2@@__crt_stdio_output@@AAE_NXZ 40040030 f i libucrtd:output.obj
 0001:0003f050       ?type_case_X@?$output_processor@_WV?$string_output_adapter@_W@__crt_stdio_output@@V?$format_validation_base@_WV?$string_output_adapter@_W@__crt_stdio_output@@@2@@__crt_stdio_output@@AAE_NXZ 40040050 f i libucrtd:output.obj
 0001:0003f070       ?type_case_X@?$output_processor@_WV?$string_output_adapter@_W@__crt_stdio_output@@V?$positional_parameter_base@_WV?$string_output_adapter@_W@__crt_stdio_output@@@2@@__crt_stdio_output@@AAE_NXZ 40040070 f i libucrtd:output.obj
 0001:0003f090       ?type_case_X@?$output_processor@_WV?$string_output_adapter@_W@__crt_stdio_output@@V?$standard_base@_WV?$string_output_adapter@_W@__crt_stdio_output@@@2@@__crt_stdio_output@@AAE_NXZ 40040090 f i libucrtd:output.obj
 0001:0003f0b0       ?type_case_Z@?$output_processor@DV?$stream_output_adapter@D@__crt_stdio_output@@V?$format_validation_base@DV?$stream_output_adapter@D@__crt_stdio_output@@@2@@__crt_stdio_output@@AAE_NXZ 400400b0 f i libucrtd:output.obj
 0001:0003f1a0       ?type_case_Z@?$output_processor@DV?$stream_output_adapter@D@__crt_stdio_output@@V?$positional_parameter_base@DV?$stream_output_adapter@D@__crt_stdio_output@@@2@@__crt_stdio_output@@AAE_NXZ 400401a0 f i libucrtd:output.obj
 0001:0003f290       ?type_case_Z@?$output_processor@DV?$stream_output_adapter@D@__crt_stdio_output@@V?$standard_base@DV?$stream_output_adapter@D@__crt_stdio_output@@@2@@__crt_stdio_output@@AAE_NXZ 40040290 f i libucrtd:output.obj
 0001:0003f380       ?type_case_Z@?$output_processor@DV?$string_output_adapter@D@__crt_stdio_output@@V?$format_validation_base@DV?$string_output_adapter@D@__crt_stdio_output@@@2@@__crt_stdio_output@@AAE_NXZ 40040380 f i libucrtd:output.obj
 0001:0003f470       ?type_case_Z@?$output_processor@DV?$string_output_adapter@D@__crt_stdio_output@@V?$positional_parameter_base@DV?$string_output_adapter@D@__crt_stdio_output@@@2@@__crt_stdio_output@@AAE_NXZ 40040470 f i libucrtd:output.obj
 0001:0003f560       ?type_case_Z@?$output_processor@DV?$string_output_adapter@D@__crt_stdio_output@@V?$standard_base@DV?$string_output_adapter@D@__crt_stdio_output@@@2@@__crt_stdio_output@@AAE_NXZ 40040560 f i libucrtd:output.obj
 0001:0003f650       ?type_case_Z@?$output_processor@_WV?$stream_output_adapter@_W@__crt_stdio_output@@V?$format_validation_base@_WV?$stream_output_adapter@_W@__crt_stdio_output@@@2@@__crt_stdio_output@@AAE_NXZ 40040650 f i libucrtd:output.obj
 0001:0003f740       ?type_case_Z@?$output_processor@_WV?$stream_output_adapter@_W@__crt_stdio_output@@V?$positional_parameter_base@_WV?$stream_output_adapter@_W@__crt_stdio_output@@@2@@__crt_stdio_output@@AAE_NXZ 40040740 f i libucrtd:output.obj
 0001:0003f830       ?type_case_Z@?$output_processor@_WV?$stream_output_adapter@_W@__crt_stdio_output@@V?$standard_base@_WV?$stream_output_adapter@_W@__crt_stdio_output@@@2@@__crt_stdio_output@@AAE_NXZ 40040830 f i libucrtd:output.obj
 0001:0003f920       ?type_case_Z@?$output_processor@_WV?$string_output_adapter@_W@__crt_stdio_output@@V?$format_validation_base@_WV?$string_output_adapter@_W@__crt_stdio_output@@@2@@__crt_stdio_output@@AAE_NXZ 40040920 f i libucrtd:output.obj
 0001:0003fa10       ?type_case_Z@?$output_processor@_WV?$string_output_adapter@_W@__crt_stdio_output@@V?$positional_parameter_base@_WV?$string_output_adapter@_W@__crt_stdio_output@@@2@@__crt_stdio_output@@AAE_NXZ 40040a10 f i libucrtd:output.obj
 0001:0003fb00       ?type_case_Z@?$output_processor@_WV?$string_output_adapter@_W@__crt_stdio_output@@V?$standard_base@_WV?$string_output_adapter@_W@__crt_stdio_output@@@2@@__crt_stdio_output@@AAE_NXZ 40040b00 f i libucrtd:output.obj
 0001:0003fbf0       ?type_case_a@?$output_processor@DV?$stream_output_adapter@D@__crt_stdio_output@@V?$format_validation_base@DV?$stream_output_adapter@D@__crt_stdio_output@@@2@@__crt_stdio_output@@AAE_NXZ 40040bf0 f i libucrtd:output.obj
 0001:0003fec0       ?type_case_a@?$output_processor@DV?$stream_output_adapter@D@__crt_stdio_output@@V?$positional_parameter_base@DV?$stream_output_adapter@D@__crt_stdio_output@@@2@@__crt_stdio_output@@AAE_NXZ 40040ec0 f i libucrtd:output.obj
 0001:00040190       ?type_case_a@?$output_processor@DV?$stream_output_adapter@D@__crt_stdio_output@@V?$standard_base@DV?$stream_output_adapter@D@__crt_stdio_output@@@2@@__crt_stdio_output@@AAE_NXZ 40041190 f i libucrtd:output.obj
 0001:00040460       ?type_case_a@?$output_processor@DV?$string_output_adapter@D@__crt_stdio_output@@V?$format_validation_base@DV?$string_output_adapter@D@__crt_stdio_output@@@2@@__crt_stdio_output@@AAE_NXZ 40041460 f i libucrtd:output.obj
 0001:00040730       ?type_case_a@?$output_processor@DV?$string_output_adapter@D@__crt_stdio_output@@V?$positional_parameter_base@DV?$string_output_adapter@D@__crt_stdio_output@@@2@@__crt_stdio_output@@AAE_NXZ 40041730 f i libucrtd:output.obj
 0001:00040a00       ?type_case_a@?$output_processor@DV?$string_output_adapter@D@__crt_stdio_output@@V?$standard_base@DV?$string_output_adapter@D@__crt_stdio_output@@@2@@__crt_stdio_output@@AAE_NXZ 40041a00 f i libucrtd:output.obj
 0001:00040cd0       ?type_case_a@?$output_processor@_WV?$stream_output_adapter@_W@__crt_stdio_output@@V?$format_validation_base@_WV?$stream_output_adapter@_W@__crt_stdio_output@@@2@@__crt_stdio_output@@AAE_NXZ 40041cd0 f i libucrtd:output.obj
 0001:00040fa0       ?type_case_a@?$output_processor@_WV?$stream_output_adapter@_W@__crt_stdio_output@@V?$positional_parameter_base@_WV?$stream_output_adapter@_W@__crt_stdio_output@@@2@@__crt_stdio_output@@AAE_NXZ 40041fa0 f i libucrtd:output.obj
 0001:00041270       ?type_case_a@?$output_processor@_WV?$stream_output_adapter@_W@__crt_stdio_output@@V?$standard_base@_WV?$stream_output_adapter@_W@__crt_stdio_output@@@2@@__crt_stdio_output@@AAE_NXZ 40042270 f i libucrtd:output.obj
 0001:00041540       ?type_case_a@?$output_processor@_WV?$string_output_adapter@_W@__crt_stdio_output@@V?$format_validation_base@_WV?$string_output_adapter@_W@__crt_stdio_output@@@2@@__crt_stdio_output@@AAE_NXZ 40042540 f i libucrtd:output.obj
 0001:00041810       ?type_case_a@?$output_processor@_WV?$string_output_adapter@_W@__crt_stdio_output@@V?$positional_parameter_base@_WV?$string_output_adapter@_W@__crt_stdio_output@@@2@@__crt_stdio_output@@AAE_NXZ 40042810 f i libucrtd:output.obj
 0001:00041ae0       ?type_case_a@?$output_processor@_WV?$string_output_adapter@_W@__crt_stdio_output@@V?$standard_base@_WV?$string_output_adapter@_W@__crt_stdio_output@@@2@@__crt_stdio_output@@AAE_NXZ 40042ae0 f i libucrtd:output.obj
 0001:00041db0       ?type_case_c@?$output_processor@DV?$stream_output_adapter@D@__crt_stdio_output@@V?$format_validation_base@DV?$stream_output_adapter@D@__crt_stdio_output@@@2@@__crt_stdio_output@@AAE_NXZ 40042db0 f i libucrtd:output.obj
 0001:00041dd0       ?type_case_c@?$output_processor@DV?$stream_output_adapter@D@__crt_stdio_output@@V?$positional_parameter_base@DV?$stream_output_adapter@D@__crt_stdio_output@@@2@@__crt_stdio_output@@AAE_NXZ 40042dd0 f i libucrtd:output.obj
 0001:00041df0       ?type_case_c@?$output_processor@DV?$stream_output_adapter@D@__crt_stdio_output@@V?$standard_base@DV?$stream_output_adapter@D@__crt_stdio_output@@@2@@__crt_stdio_output@@AAE_NXZ 40042df0 f i libucrtd:output.obj
 0001:00041e10       ?type_case_c@?$output_processor@DV?$string_output_adapter@D@__crt_stdio_output@@V?$format_validation_base@DV?$string_output_adapter@D@__crt_stdio_output@@@2@@__crt_stdio_output@@AAE_NXZ 40042e10 f i libucrtd:output.obj
 0001:00041e30       ?type_case_c@?$output_processor@DV?$string_output_adapter@D@__crt_stdio_output@@V?$positional_parameter_base@DV?$string_output_adapter@D@__crt_stdio_output@@@2@@__crt_stdio_output@@AAE_NXZ 40042e30 f i libucrtd:output.obj
 0001:00041e50       ?type_case_c@?$output_processor@DV?$string_output_adapter@D@__crt_stdio_output@@V?$standard_base@DV?$string_output_adapter@D@__crt_stdio_output@@@2@@__crt_stdio_output@@AAE_NXZ 40042e50 f i libucrtd:output.obj
 0001:00041e70       ?type_case_c@?$output_processor@_WV?$stream_output_adapter@_W@__crt_stdio_output@@V?$format_validation_base@_WV?$stream_output_adapter@_W@__crt_stdio_output@@@2@@__crt_stdio_output@@AAE_NXZ 40042e70 f i libucrtd:output.obj
 0001:00041e90       ?type_case_c@?$output_processor@_WV?$stream_output_adapter@_W@__crt_stdio_output@@V?$positional_parameter_base@_WV?$stream_output_adapter@_W@__crt_stdio_output@@@2@@__crt_stdio_output@@AAE_NXZ 40042e90 f i libucrtd:output.obj
 0001:00041eb0       ?type_case_c@?$output_processor@_WV?$stream_output_adapter@_W@__crt_stdio_output@@V?$standard_base@_WV?$stream_output_adapter@_W@__crt_stdio_output@@@2@@__crt_stdio_output@@AAE_NXZ 40042eb0 f i libucrtd:output.obj
 0001:00041ed0       ?type_case_c@?$output_processor@_WV?$string_output_adapter@_W@__crt_stdio_output@@V?$format_validation_base@_WV?$string_output_adapter@_W@__crt_stdio_output@@@2@@__crt_stdio_output@@AAE_NXZ 40042ed0 f i libucrtd:output.obj
 0001:00041ef0       ?type_case_c@?$output_processor@_WV?$string_output_adapter@_W@__crt_stdio_output@@V?$positional_parameter_base@_WV?$string_output_adapter@_W@__crt_stdio_output@@@2@@__crt_stdio_output@@AAE_NXZ 40042ef0 f i libucrtd:output.obj
 0001:00041f10       ?type_case_c@?$output_processor@_WV?$string_output_adapter@_W@__crt_stdio_output@@V?$standard_base@_WV?$string_output_adapter@_W@__crt_stdio_output@@@2@@__crt_stdio_output@@AAE_NXZ 40042f10 f i libucrtd:output.obj
 0001:00041f30       ?type_case_c_tchar@?$output_processor@DV?$stream_output_adapter@D@__crt_stdio_output@@V?$format_validation_base@DV?$stream_output_adapter@D@__crt_stdio_output@@@2@@__crt_stdio_output@@AAE_ND@Z 40042f30 f i libucrtd:output.obj
 0001:00042060       ?type_case_c_tchar@?$output_processor@DV?$stream_output_adapter@D@__crt_stdio_output@@V?$positional_parameter_base@DV?$stream_output_adapter@D@__crt_stdio_output@@@2@@__crt_stdio_output@@AAE_ND@Z 40043060 f i libucrtd:output.obj
 0001:00042190       ?type_case_c_tchar@?$output_processor@DV?$stream_output_adapter@D@__crt_stdio_output@@V?$standard_base@DV?$stream_output_adapter@D@__crt_stdio_output@@@2@@__crt_stdio_output@@AAE_ND@Z 40043190 f i libucrtd:output.obj
 0001:000422c0       ?type_case_c_tchar@?$output_processor@DV?$string_output_adapter@D@__crt_stdio_output@@V?$format_validation_base@DV?$string_output_adapter@D@__crt_stdio_output@@@2@@__crt_stdio_output@@AAE_ND@Z 400432c0 f i libucrtd:output.obj
 0001:000423f0       ?type_case_c_tchar@?$output_processor@DV?$string_output_adapter@D@__crt_stdio_output@@V?$positional_parameter_base@DV?$string_output_adapter@D@__crt_stdio_output@@@2@@__crt_stdio_output@@AAE_ND@Z 400433f0 f i libucrtd:output.obj
 0001:00042520       ?type_case_c_tchar@?$output_processor@DV?$string_output_adapter@D@__crt_stdio_output@@V?$standard_base@DV?$string_output_adapter@D@__crt_stdio_output@@@2@@__crt_stdio_output@@AAE_ND@Z 40043520 f i libucrtd:output.obj
 0001:00042650       ?type_case_c_tchar@?$output_processor@_WV?$stream_output_adapter@_W@__crt_stdio_output@@V?$format_validation_base@_WV?$stream_output_adapter@_W@__crt_stdio_output@@@2@@__crt_stdio_output@@AAE_N_W@Z 40043650 f i libucrtd:output.obj
 0001:00042770       ?type_case_c_tchar@?$output_processor@_WV?$stream_output_adapter@_W@__crt_stdio_output@@V?$positional_parameter_base@_WV?$stream_output_adapter@_W@__crt_stdio_output@@@2@@__crt_stdio_output@@AAE_N_W@Z 40043770 f i libucrtd:output.obj
 0001:00042890       ?type_case_c_tchar@?$output_processor@_WV?$stream_output_adapter@_W@__crt_stdio_output@@V?$standard_base@_WV?$stream_output_adapter@_W@__crt_stdio_output@@@2@@__crt_stdio_output@@AAE_N_W@Z 40043890 f i libucrtd:output.obj
 0001:000429b0       ?type_case_c_tchar@?$output_processor@_WV?$string_output_adapter@_W@__crt_stdio_output@@V?$format_validation_base@_WV?$string_output_adapter@_W@__crt_stdio_output@@@2@@__crt_stdio_output@@AAE_N_W@Z 400439b0 f i libucrtd:output.obj
 0001:00042ad0       ?type_case_c_tchar@?$output_processor@_WV?$string_output_adapter@_W@__crt_stdio_output@@V?$positional_parameter_base@_WV?$string_output_adapter@_W@__crt_stdio_output@@@2@@__crt_stdio_output@@AAE_N_W@Z 40043ad0 f i libucrtd:output.obj
 0001:00042bf0       ?type_case_c_tchar@?$output_processor@_WV?$string_output_adapter@_W@__crt_stdio_output@@V?$standard_base@_WV?$string_output_adapter@_W@__crt_stdio_output@@@2@@__crt_stdio_output@@AAE_N_W@Z 40043bf0 f i libucrtd:output.obj
 0001:00042d10       ?type_case_d@?$output_processor@DV?$stream_output_adapter@D@__crt_stdio_output@@V?$format_validation_base@DV?$stream_output_adapter@D@__crt_stdio_output@@@2@@__crt_stdio_output@@AAE_NXZ 40043d10 f i libucrtd:output.obj
 0001:00042d40       ?type_case_d@?$output_processor@DV?$stream_output_adapter@D@__crt_stdio_output@@V?$positional_parameter_base@DV?$stream_output_adapter@D@__crt_stdio_output@@@2@@__crt_stdio_output@@AAE_NXZ 40043d40 f i libucrtd:output.obj
 0001:00042d70       ?type_case_d@?$output_processor@DV?$stream_output_adapter@D@__crt_stdio_output@@V?$standard_base@DV?$stream_output_adapter@D@__crt_stdio_output@@@2@@__crt_stdio_output@@AAE_NXZ 40043d70 f i libucrtd:output.obj
 0001:00042da0       ?type_case_d@?$output_processor@DV?$string_output_adapter@D@__crt_stdio_output@@V?$format_validation_base@DV?$string_output_adapter@D@__crt_stdio_output@@@2@@__crt_stdio_output@@AAE_NXZ 40043da0 f i libucrtd:output.obj
 0001:00042dd0       ?type_case_d@?$output_processor@DV?$string_output_adapter@D@__crt_stdio_output@@V?$positional_parameter_base@DV?$string_output_adapter@D@__crt_stdio_output@@@2@@__crt_stdio_output@@AAE_NXZ 40043dd0 f i libucrtd:output.obj
 0001:00042e00       ?type_case_d@?$output_processor@DV?$string_output_adapter@D@__crt_stdio_output@@V?$standard_base@DV?$string_output_adapter@D@__crt_stdio_output@@@2@@__crt_stdio_output@@AAE_NXZ 40043e00 f i libucrtd:output.obj
 0001:00042e30       ?type_case_d@?$output_processor@_WV?$stream_output_adapter@_W@__crt_stdio_output@@V?$format_validation_base@_WV?$stream_output_adapter@_W@__crt_stdio_output@@@2@@__crt_stdio_output@@AAE_NXZ 40043e30 f i libucrtd:output.obj
 0001:00042e60       ?type_case_d@?$output_processor@_WV?$stream_output_adapter@_W@__crt_stdio_output@@V?$positional_parameter_base@_WV?$stream_output_adapter@_W@__crt_stdio_output@@@2@@__crt_stdio_output@@AAE_NXZ 40043e60 f i libucrtd:output.obj
 0001:00042e90       ?type_case_d@?$output_processor@_WV?$stream_output_adapter@_W@__crt_stdio_output@@V?$standard_base@_WV?$stream_output_adapter@_W@__crt_stdio_output@@@2@@__crt_stdio_output@@AAE_NXZ 40043e90 f i libucrtd:output.obj
 0001:00042ec0       ?type_case_d@?$output_processor@_WV?$string_output_adapter@_W@__crt_stdio_output@@V?$format_validation_base@_WV?$string_output_adapter@_W@__crt_stdio_output@@@2@@__crt_stdio_output@@AAE_NXZ 40043ec0 f i libucrtd:output.obj
 0001:00042ef0       ?type_case_d@?$output_processor@_WV?$string_output_adapter@_W@__crt_stdio_output@@V?$positional_parameter_base@_WV?$string_output_adapter@_W@__crt_stdio_output@@@2@@__crt_stdio_output@@AAE_NXZ 40043ef0 f i libucrtd:output.obj
 0001:00042f20       ?type_case_d@?$output_processor@_WV?$string_output_adapter@_W@__crt_stdio_output@@V?$standard_base@_WV?$string_output_adapter@_W@__crt_stdio_output@@@2@@__crt_stdio_output@@AAE_NXZ 40043f20 f i libucrtd:output.obj
 0001:00042f50       ?type_case_n@?$output_processor@DV?$stream_output_adapter@D@__crt_stdio_output@@V?$format_validation_base@DV?$stream_output_adapter@D@__crt_stdio_output@@@2@@__crt_stdio_output@@AAE_NXZ 40043f50 f i libucrtd:output.obj
 0001:00043170       ?type_case_n@?$output_processor@DV?$stream_output_adapter@D@__crt_stdio_output@@V?$positional_parameter_base@DV?$stream_output_adapter@D@__crt_stdio_output@@@2@@__crt_stdio_output@@AAE_NXZ 40044170 f i libucrtd:output.obj
 0001:00043390       ?type_case_n@?$output_processor@DV?$stream_output_adapter@D@__crt_stdio_output@@V?$standard_base@DV?$stream_output_adapter@D@__crt_stdio_output@@@2@@__crt_stdio_output@@AAE_NXZ 40044390 f i libucrtd:output.obj
 0001:000435b0       ?type_case_n@?$output_processor@DV?$string_output_adapter@D@__crt_stdio_output@@V?$format_validation_base@DV?$string_output_adapter@D@__crt_stdio_output@@@2@@__crt_stdio_output@@AAE_NXZ 400445b0 f i libucrtd:output.obj
 0001:000437d0       ?type_case_n@?$output_processor@DV?$string_output_adapter@D@__crt_stdio_output@@V?$positional_parameter_base@DV?$string_output_adapter@D@__crt_stdio_output@@@2@@__crt_stdio_output@@AAE_NXZ 400447d0 f i libucrtd:output.obj
 0001:000439f0       ?type_case_n@?$output_processor@DV?$string_output_adapter@D@__crt_stdio_output@@V?$standard_base@DV?$string_output_adapter@D@__crt_stdio_output@@@2@@__crt_stdio_output@@AAE_NXZ 400449f0 f i libucrtd:output.obj
 0001:00043c10       ?type_case_n@?$output_processor@_WV?$stream_output_adapter@_W@__crt_stdio_output@@V?$format_validation_base@_WV?$stream_output_adapter@_W@__crt_stdio_output@@@2@@__crt_stdio_output@@AAE_NXZ 40044c10 f i libucrtd:output.obj
 0001:00043e40       ?type_case_n@?$output_processor@_WV?$stream_output_adapter@_W@__crt_stdio_output@@V?$positional_parameter_base@_WV?$stream_output_adapter@_W@__crt_stdio_output@@@2@@__crt_stdio_output@@AAE_NXZ 40044e40 f i libucrtd:output.obj
 0001:00044060       ?type_case_n@?$output_processor@_WV?$stream_output_adapter@_W@__crt_stdio_output@@V?$standard_base@_WV?$stream_output_adapter@_W@__crt_stdio_output@@@2@@__crt_stdio_output@@AAE_NXZ 40045060 f i libucrtd:output.obj
 0001:00044280       ?type_case_n@?$output_processor@_WV?$string_output_adapter@_W@__crt_stdio_output@@V?$format_validation_base@_WV?$string_output_adapter@_W@__crt_stdio_output@@@2@@__crt_stdio_output@@AAE_NXZ 40045280 f i libucrtd:output.obj
 0001:000444a0       ?type_case_n@?$output_processor@_WV?$string_output_adapter@_W@__crt_stdio_output@@V?$positional_parameter_base@_WV?$string_output_adapter@_W@__crt_stdio_output@@@2@@__crt_stdio_output@@AAE_NXZ 400454a0 f i libucrtd:output.obj
 0001:000446c0       ?type_case_n@?$output_processor@_WV?$string_output_adapter@_W@__crt_stdio_output@@V?$standard_base@_WV?$string_output_adapter@_W@__crt_stdio_output@@@2@@__crt_stdio_output@@AAE_NXZ 400456c0 f i libucrtd:output.obj
 0001:000448e0       ?type_case_o@?$output_processor@DV?$stream_output_adapter@D@__crt_stdio_output@@V?$format_validation_base@DV?$stream_output_adapter@D@__crt_stdio_output@@@2@@__crt_stdio_output@@AAE_NXZ 400458e0 f i libucrtd:output.obj
 0001:00044920       ?type_case_o@?$output_processor@DV?$stream_output_adapter@D@__crt_stdio_output@@V?$positional_parameter_base@DV?$stream_output_adapter@D@__crt_stdio_output@@@2@@__crt_stdio_output@@AAE_NXZ 40045920 f i libucrtd:output.obj
 0001:00044960       ?type_case_o@?$output_processor@DV?$stream_output_adapter@D@__crt_stdio_output@@V?$standard_base@DV?$stream_output_adapter@D@__crt_stdio_output@@@2@@__crt_stdio_output@@AAE_NXZ 40045960 f i libucrtd:output.obj
 0001:000449a0       ?type_case_o@?$output_processor@DV?$string_output_adapter@D@__crt_stdio_output@@V?$format_validation_base@DV?$string_output_adapter@D@__crt_stdio_output@@@2@@__crt_stdio_output@@AAE_NXZ 400459a0 f i libucrtd:output.obj
 0001:000449e0       ?type_case_o@?$output_processor@DV?$string_output_adapter@D@__crt_stdio_output@@V?$positional_parameter_base@DV?$string_output_adapter@D@__crt_stdio_output@@@2@@__crt_stdio_output@@AAE_NXZ 400459e0 f i libucrtd:output.obj
 0001:00044a20       ?type_case_o@?$output_processor@DV?$string_output_adapter@D@__crt_stdio_output@@V?$standard_base@DV?$string_output_adapter@D@__crt_stdio_output@@@2@@__crt_stdio_output@@AAE_NXZ 40045a20 f i libucrtd:output.obj
 0001:00044a60       ?type_case_o@?$output_processor@_WV?$stream_output_adapter@_W@__crt_stdio_output@@V?$format_validation_base@_WV?$stream_output_adapter@_W@__crt_stdio_output@@@2@@__crt_stdio_output@@AAE_NXZ 40045a60 f i libucrtd:output.obj
 0001:00044aa0       ?type_case_o@?$output_processor@_WV?$stream_output_adapter@_W@__crt_stdio_output@@V?$positional_parameter_base@_WV?$stream_output_adapter@_W@__crt_stdio_output@@@2@@__crt_stdio_output@@AAE_NXZ 40045aa0 f i libucrtd:output.obj
 0001:00044ae0       ?type_case_o@?$output_processor@_WV?$stream_output_adapter@_W@__crt_stdio_output@@V?$standard_base@_WV?$stream_output_adapter@_W@__crt_stdio_output@@@2@@__crt_stdio_output@@AAE_NXZ 40045ae0 f i libucrtd:output.obj
 0001:00044b20       ?type_case_o@?$output_processor@_WV?$string_output_adapter@_W@__crt_stdio_output@@V?$format_validation_base@_WV?$string_output_adapter@_W@__crt_stdio_output@@@2@@__crt_stdio_output@@AAE_NXZ 40045b20 f i libucrtd:output.obj
 0001:00044b60       ?type_case_o@?$output_processor@_WV?$string_output_adapter@_W@__crt_stdio_output@@V?$positional_parameter_base@_WV?$string_output_adapter@_W@__crt_stdio_output@@@2@@__crt_stdio_output@@AAE_NXZ 40045b60 f i libucrtd:output.obj
 0001:00044ba0       ?type_case_o@?$output_processor@_WV?$string_output_adapter@_W@__crt_stdio_output@@V?$standard_base@_WV?$string_output_adapter@_W@__crt_stdio_output@@@2@@__crt_stdio_output@@AAE_NXZ 40045ba0 f i libucrtd:output.obj
 0001:00044be0       ?type_case_p@?$output_processor@DV?$stream_output_adapter@D@__crt_stdio_output@@V?$format_validation_base@DV?$stream_output_adapter@D@__crt_stdio_output@@@2@@__crt_stdio_output@@AAE_NXZ 40045be0 f i libucrtd:output.obj
 0001:00044c10       ?type_case_p@?$output_processor@DV?$stream_output_adapter@D@__crt_stdio_output@@V?$positional_parameter_base@DV?$stream_output_adapter@D@__crt_stdio_output@@@2@@__crt_stdio_output@@AAE_NXZ 40045c10 f i libucrtd:output.obj
 0001:00044c40       ?type_case_p@?$output_processor@DV?$stream_output_adapter@D@__crt_stdio_output@@V?$standard_base@DV?$stream_output_adapter@D@__crt_stdio_output@@@2@@__crt_stdio_output@@AAE_NXZ 40045c40 f i libucrtd:output.obj
 0001:00044c70       ?type_case_p@?$output_processor@DV?$string_output_adapter@D@__crt_stdio_output@@V?$format_validation_base@DV?$string_output_adapter@D@__crt_stdio_output@@@2@@__crt_stdio_output@@AAE_NXZ 40045c70 f i libucrtd:output.obj
 0001:00044ca0       ?type_case_p@?$output_processor@DV?$string_output_adapter@D@__crt_stdio_output@@V?$positional_parameter_base@DV?$string_output_adapter@D@__crt_stdio_output@@@2@@__crt_stdio_output@@AAE_NXZ 40045ca0 f i libucrtd:output.obj
 0001:00044cd0       ?type_case_p@?$output_processor@DV?$string_output_adapter@D@__crt_stdio_output@@V?$standard_base@DV?$string_output_adapter@D@__crt_stdio_output@@@2@@__crt_stdio_output@@AAE_NXZ 40045cd0 f i libucrtd:output.obj
 0001:00044d00       ?type_case_p@?$output_processor@_WV?$stream_output_adapter@_W@__crt_stdio_output@@V?$format_validation_base@_WV?$stream_output_adapter@_W@__crt_stdio_output@@@2@@__crt_stdio_output@@AAE_NXZ 40045d00 f i libucrtd:output.obj
 0001:00044d30       ?type_case_p@?$output_processor@_WV?$stream_output_adapter@_W@__crt_stdio_output@@V?$positional_parameter_base@_WV?$stream_output_adapter@_W@__crt_stdio_output@@@2@@__crt_stdio_output@@AAE_NXZ 40045d30 f i libucrtd:output.obj
 0001:00044d60       ?type_case_p@?$output_processor@_WV?$stream_output_adapter@_W@__crt_stdio_output@@V?$standard_base@_WV?$stream_output_adapter@_W@__crt_stdio_output@@@2@@__crt_stdio_output@@AAE_NXZ 40045d60 f i libucrtd:output.obj
 0001:00044d90       ?type_case_p@?$output_processor@_WV?$string_output_adapter@_W@__crt_stdio_output@@V?$format_validation_base@_WV?$string_output_adapter@_W@__crt_stdio_output@@@2@@__crt_stdio_output@@AAE_NXZ 40045d90 f i libucrtd:output.obj
 0001:00044dc0       ?type_case_p@?$output_processor@_WV?$string_output_adapter@_W@__crt_stdio_output@@V?$positional_parameter_base@_WV?$string_output_adapter@_W@__crt_stdio_output@@@2@@__crt_stdio_output@@AAE_NXZ 40045dc0 f i libucrtd:output.obj
 0001:00044df0       ?type_case_p@?$output_processor@_WV?$string_output_adapter@_W@__crt_stdio_output@@V?$standard_base@_WV?$string_output_adapter@_W@__crt_stdio_output@@@2@@__crt_stdio_output@@AAE_NXZ 40045df0 f i libucrtd:output.obj
 0001:00044e20       ?type_case_s@?$output_processor@DV?$stream_output_adapter@D@__crt_stdio_output@@V?$format_validation_base@DV?$stream_output_adapter@D@__crt_stdio_output@@@2@@__crt_stdio_output@@AAE_NXZ 40045e20 f i libucrtd:output.obj
 0001:00044f10       ?type_case_s@?$output_processor@DV?$stream_output_adapter@D@__crt_stdio_output@@V?$positional_parameter_base@DV?$stream_output_adapter@D@__crt_stdio_output@@@2@@__crt_stdio_output@@AAE_NXZ 40045f10 f i libucrtd:output.obj
 0001:00045000       ?type_case_s@?$output_processor@DV?$stream_output_adapter@D@__crt_stdio_output@@V?$standard_base@DV?$stream_output_adapter@D@__crt_stdio_output@@@2@@__crt_stdio_output@@AAE_NXZ 40046000 f i libucrtd:output.obj
 0001:000450f0       ?type_case_s@?$output_processor@DV?$string_output_adapter@D@__crt_stdio_output@@V?$format_validation_base@DV?$string_output_adapter@D@__crt_stdio_output@@@2@@__crt_stdio_output@@AAE_NXZ 400460f0 f i libucrtd:output.obj
 0001:000451e0       ?type_case_s@?$output_processor@DV?$string_output_adapter@D@__crt_stdio_output@@V?$positional_parameter_base@DV?$string_output_adapter@D@__crt_stdio_output@@@2@@__crt_stdio_output@@AAE_NXZ 400461e0 f i libucrtd:output.obj
 0001:000452d0       ?type_case_s@?$output_processor@DV?$string_output_adapter@D@__crt_stdio_output@@V?$standard_base@DV?$string_output_adapter@D@__crt_stdio_output@@@2@@__crt_stdio_output@@AAE_NXZ 400462d0 f i libucrtd:output.obj
 0001:000453c0       ?type_case_s@?$output_processor@_WV?$stream_output_adapter@_W@__crt_stdio_output@@V?$format_validation_base@_WV?$stream_output_adapter@_W@__crt_stdio_output@@@2@@__crt_stdio_output@@AAE_NXZ 400463c0 f i libucrtd:output.obj
 0001:000454b0       ?type_case_s@?$output_processor@_WV?$stream_output_adapter@_W@__crt_stdio_output@@V?$positional_parameter_base@_WV?$stream_output_adapter@_W@__crt_stdio_output@@@2@@__crt_stdio_output@@AAE_NXZ 400464b0 f i libucrtd:output.obj
 0001:000455a0       ?type_case_s@?$output_processor@_WV?$stream_output_adapter@_W@__crt_stdio_output@@V?$standard_base@_WV?$stream_output_adapter@_W@__crt_stdio_output@@@2@@__crt_stdio_output@@AAE_NXZ 400465a0 f i libucrtd:output.obj
 0001:00045690       ?type_case_s@?$output_processor@_WV?$string_output_adapter@_W@__crt_stdio_output@@V?$format_validation_base@_WV?$string_output_adapter@_W@__crt_stdio_output@@@2@@__crt_stdio_output@@AAE_NXZ 40046690 f i libucrtd:output.obj
 0001:00045780       ?type_case_s@?$output_processor@_WV?$string_output_adapter@_W@__crt_stdio_output@@V?$positional_parameter_base@_WV?$string_output_adapter@_W@__crt_stdio_output@@@2@@__crt_stdio_output@@AAE_NXZ 40046780 f i libucrtd:output.obj
 0001:00045870       ?type_case_s@?$output_processor@_WV?$string_output_adapter@_W@__crt_stdio_output@@V?$standard_base@_WV?$string_output_adapter@_W@__crt_stdio_output@@@2@@__crt_stdio_output@@AAE_NXZ 40046870 f i libucrtd:output.obj
 0001:00045960       ?type_case_s_compute_narrow_string_length@?$output_processor@DV?$stream_output_adapter@D@__crt_stdio_output@@V?$format_validation_base@DV?$stream_output_adapter@D@__crt_stdio_output@@@2@@__crt_stdio_output@@AAEHHD@Z 40046960 f i libucrtd:output.obj
 0001:00045990       ?type_case_s_compute_narrow_string_length@?$output_processor@DV?$stream_output_adapter@D@__crt_stdio_output@@V?$positional_parameter_base@DV?$stream_output_adapter@D@__crt_stdio_output@@@2@@__crt_stdio_output@@AAEHHD@Z 40046990 f i libucrtd:output.obj
 0001:000459c0       ?type_case_s_compute_narrow_string_length@?$output_processor@DV?$stream_output_adapter@D@__crt_stdio_output@@V?$standard_base@DV?$stream_output_adapter@D@__crt_stdio_output@@@2@@__crt_stdio_output@@AAEHHD@Z 400469c0 f i libucrtd:output.obj
 0001:000459f0       ?type_case_s_compute_narrow_string_length@?$output_processor@DV?$string_output_adapter@D@__crt_stdio_output@@V?$format_validation_base@DV?$string_output_adapter@D@__crt_stdio_output@@@2@@__crt_stdio_output@@AAEHHD@Z 400469f0 f i libucrtd:output.obj
 0001:00045a20       ?type_case_s_compute_narrow_string_length@?$output_processor@DV?$string_output_adapter@D@__crt_stdio_output@@V?$positional_parameter_base@DV?$string_output_adapter@D@__crt_stdio_output@@@2@@__crt_stdio_output@@AAEHHD@Z 40046a20 f i libucrtd:output.obj
 0001:00045a50       ?type_case_s_compute_narrow_string_length@?$output_processor@DV?$string_output_adapter@D@__crt_stdio_output@@V?$standard_base@DV?$string_output_adapter@D@__crt_stdio_output@@@2@@__crt_stdio_output@@AAEHHD@Z 40046a50 f i libucrtd:output.obj
 0001:00045a80       ?type_case_s_compute_narrow_string_length@?$output_processor@_WV?$stream_output_adapter@_W@__crt_stdio_output@@V?$format_validation_base@_WV?$stream_output_adapter@_W@__crt_stdio_output@@@2@@__crt_stdio_output@@AAEHH_W@Z 40046a80 f i libucrtd:output.obj
 0001:00045bb0       ?type_case_s_compute_narrow_string_length@?$output_processor@_WV?$stream_output_adapter@_W@__crt_stdio_output@@V?$positional_parameter_base@_WV?$stream_output_adapter@_W@__crt_stdio_output@@@2@@__crt_stdio_output@@AAEHH_W@Z 40046bb0 f i libucrtd:output.obj
 0001:00045ce0       ?type_case_s_compute_narrow_string_length@?$output_processor@_WV?$stream_output_adapter@_W@__crt_stdio_output@@V?$standard_base@_WV?$stream_output_adapter@_W@__crt_stdio_output@@@2@@__crt_stdio_output@@AAEHH_W@Z 40046ce0 f i libucrtd:output.obj
 0001:00045e10       ?type_case_s_compute_narrow_string_length@?$output_processor@_WV?$string_output_adapter@_W@__crt_stdio_output@@V?$format_validation_base@_WV?$string_output_adapter@_W@__crt_stdio_output@@@2@@__crt_stdio_output@@AAEHH_W@Z 40046e10 f i libucrtd:output.obj
 0001:00045f40       ?type_case_s_compute_narrow_string_length@?$output_processor@_WV?$string_output_adapter@_W@__crt_stdio_output@@V?$positional_parameter_base@_WV?$string_output_adapter@_W@__crt_stdio_output@@@2@@__crt_stdio_output@@AAEHH_W@Z 40046f40 f i libucrtd:output.obj
 0001:00046070       ?type_case_s_compute_narrow_string_length@?$output_processor@_WV?$string_output_adapter@_W@__crt_stdio_output@@V?$standard_base@_WV?$string_output_adapter@_W@__crt_stdio_output@@@2@@__crt_stdio_output@@AAEHH_W@Z 40047070 f i libucrtd:output.obj
 0001:000461a0       ?type_case_u@?$output_processor@DV?$stream_output_adapter@D@__crt_stdio_output@@V?$format_validation_base@DV?$stream_output_adapter@D@__crt_stdio_output@@@2@@__crt_stdio_output@@AAE_NXZ 400471a0 f i libucrtd:output.obj
 0001:000461c0       ?type_case_u@?$output_processor@DV?$stream_output_adapter@D@__crt_stdio_output@@V?$positional_parameter_base@DV?$stream_output_adapter@D@__crt_stdio_output@@@2@@__crt_stdio_output@@AAE_NXZ 400471c0 f i libucrtd:output.obj
 0001:000461e0       ?type_case_u@?$output_processor@DV?$stream_output_adapter@D@__crt_stdio_output@@V?$standard_base@DV?$stream_output_adapter@D@__crt_stdio_output@@@2@@__crt_stdio_output@@AAE_NXZ 400471e0 f i libucrtd:output.obj
 0001:00046200       ?type_case_u@?$output_processor@DV?$string_output_adapter@D@__crt_stdio_output@@V?$format_validation_base@DV?$string_output_adapter@D@__crt_stdio_output@@@2@@__crt_stdio_output@@AAE_NXZ 40047200 f i libucrtd:output.obj
 0001:00046220       ?type_case_u@?$output_processor@DV?$string_output_adapter@D@__crt_stdio_output@@V?$positional_parameter_base@DV?$string_output_adapter@D@__crt_stdio_output@@@2@@__crt_stdio_output@@AAE_NXZ 40047220 f i libucrtd:output.obj
 0001:00046240       ?type_case_u@?$output_processor@DV?$string_output_adapter@D@__crt_stdio_output@@V?$standard_base@DV?$string_output_adapter@D@__crt_stdio_output@@@2@@__crt_stdio_output@@AAE_NXZ 40047240 f i libucrtd:output.obj
 0001:00046260       ?type_case_u@?$output_processor@_WV?$stream_output_adapter@_W@__crt_stdio_output@@V?$format_validation_base@_WV?$stream_output_adapter@_W@__crt_stdio_output@@@2@@__crt_stdio_output@@AAE_NXZ 40047260 f i libucrtd:output.obj
 0001:00046280       ?type_case_u@?$output_processor@_WV?$stream_output_adapter@_W@__crt_stdio_output@@V?$positional_parameter_base@_WV?$stream_output_adapter@_W@__crt_stdio_output@@@2@@__crt_stdio_output@@AAE_NXZ 40047280 f i libucrtd:output.obj
 0001:000462a0       ?type_case_u@?$output_processor@_WV?$stream_output_adapter@_W@__crt_stdio_output@@V?$standard_base@_WV?$stream_output_adapter@_W@__crt_stdio_output@@@2@@__crt_stdio_output@@AAE_NXZ 400472a0 f i libucrtd:output.obj
 0001:000462c0       ?type_case_u@?$output_processor@_WV?$string_output_adapter@_W@__crt_stdio_output@@V?$format_validation_base@_WV?$string_output_adapter@_W@__crt_stdio_output@@@2@@__crt_stdio_output@@AAE_NXZ 400472c0 f i libucrtd:output.obj
 0001:000462e0       ?type_case_u@?$output_processor@_WV?$string_output_adapter@_W@__crt_stdio_output@@V?$positional_parameter_base@_WV?$string_output_adapter@_W@__crt_stdio_output@@@2@@__crt_stdio_output@@AAE_NXZ 400472e0 f i libucrtd:output.obj
 0001:00046300       ?type_case_u@?$output_processor@_WV?$string_output_adapter@_W@__crt_stdio_output@@V?$standard_base@_WV?$string_output_adapter@_W@__crt_stdio_output@@@2@@__crt_stdio_output@@AAE_NXZ 40047300 f i libucrtd:output.obj
 0001:00046320       ?type_case_x@?$output_processor@DV?$stream_output_adapter@D@__crt_stdio_output@@V?$format_validation_base@DV?$stream_output_adapter@D@__crt_stdio_output@@@2@@__crt_stdio_output@@AAE_NXZ 40047320 f i libucrtd:output.obj
 0001:00046340       ?type_case_x@?$output_processor@DV?$stream_output_adapter@D@__crt_stdio_output@@V?$positional_parameter_base@DV?$stream_output_adapter@D@__crt_stdio_output@@@2@@__crt_stdio_output@@AAE_NXZ 40047340 f i libucrtd:output.obj
 0001:00046360       ?type_case_x@?$output_processor@DV?$stream_output_adapter@D@__crt_stdio_output@@V?$standard_base@DV?$stream_output_adapter@D@__crt_stdio_output@@@2@@__crt_stdio_output@@AAE_NXZ 40047360 f i libucrtd:output.obj
 0001:00046380       ?type_case_x@?$output_processor@DV?$string_output_adapter@D@__crt_stdio_output@@V?$format_validation_base@DV?$string_output_adapter@D@__crt_stdio_output@@@2@@__crt_stdio_output@@AAE_NXZ 40047380 f i libucrtd:output.obj
 0001:000463a0       ?type_case_x@?$output_processor@DV?$string_output_adapter@D@__crt_stdio_output@@V?$positional_parameter_base@DV?$string_output_adapter@D@__crt_stdio_output@@@2@@__crt_stdio_output@@AAE_NXZ 400473a0 f i libucrtd:output.obj
 0001:000463c0       ?type_case_x@?$output_processor@DV?$string_output_adapter@D@__crt_stdio_output@@V?$standard_base@DV?$string_output_adapter@D@__crt_stdio_output@@@2@@__crt_stdio_output@@AAE_NXZ 400473c0 f i libucrtd:output.obj
 0001:000463e0       ?type_case_x@?$output_processor@_WV?$stream_output_adapter@_W@__crt_stdio_output@@V?$format_validation_base@_WV?$stream_output_adapter@_W@__crt_stdio_output@@@2@@__crt_stdio_output@@AAE_NXZ 400473e0 f i libucrtd:output.obj
 0001:00046400       ?type_case_x@?$output_processor@_WV?$stream_output_adapter@_W@__crt_stdio_output@@V?$positional_parameter_base@_WV?$stream_output_adapter@_W@__crt_stdio_output@@@2@@__crt_stdio_output@@AAE_NXZ 40047400 f i libucrtd:output.obj
 0001:00046420       ?type_case_x@?$output_processor@_WV?$stream_output_adapter@_W@__crt_stdio_output@@V?$standard_base@_WV?$stream_output_adapter@_W@__crt_stdio_output@@@2@@__crt_stdio_output@@AAE_NXZ 40047420 f i libucrtd:output.obj
 0001:00046440       ?type_case_x@?$output_processor@_WV?$string_output_adapter@_W@__crt_stdio_output@@V?$format_validation_base@_WV?$string_output_adapter@_W@__crt_stdio_output@@@2@@__crt_stdio_output@@AAE_NXZ 40047440 f i libucrtd:output.obj
 0001:00046460       ?type_case_x@?$output_processor@_WV?$string_output_adapter@_W@__crt_stdio_output@@V?$positional_parameter_base@_WV?$string_output_adapter@_W@__crt_stdio_output@@@2@@__crt_stdio_output@@AAE_NXZ 40047460 f i libucrtd:output.obj
 0001:00046480       ?type_case_x@?$output_processor@_WV?$string_output_adapter@_W@__crt_stdio_output@@V?$standard_base@_WV?$string_output_adapter@_W@__crt_stdio_output@@@2@@__crt_stdio_output@@AAE_NXZ 40047480 f i libucrtd:output.obj
 0001:000464a0       ?unget@?$c_string_character_source@D@__crt_strtox@@QAEXD@Z 400474a0 f i libucrtd:output.obj
 0001:00046550       ?unget@?$c_string_character_source@_W@__crt_strtox@@QAEX_W@Z 40047550 f i libucrtd:output.obj
 0001:00046600       ?unsafe_value@?$cached@H@__crt_cached_ptd_host@@QAEHXZ 40047600 f i libucrtd:output.obj
 0001:00046620       ?unsafe_value@?$cached@K@__crt_cached_ptd_host@@QAEKXZ 40047620 f i libucrtd:output.obj
 0001:00046640       ?unset_flag@?$output_processor@DV?$stream_output_adapter@D@__crt_stdio_output@@V?$format_validation_base@DV?$stream_output_adapter@D@__crt_stdio_output@@@2@@__crt_stdio_output@@AAEXI@Z 40047640 f i libucrtd:output.obj
 0001:00046660       ?unset_flag@?$output_processor@DV?$stream_output_adapter@D@__crt_stdio_output@@V?$positional_parameter_base@DV?$stream_output_adapter@D@__crt_stdio_output@@@2@@__crt_stdio_output@@AAEXI@Z 40047660 f i libucrtd:output.obj
 0001:00046680       ?unset_flag@?$output_processor@DV?$stream_output_adapter@D@__crt_stdio_output@@V?$standard_base@DV?$stream_output_adapter@D@__crt_stdio_output@@@2@@__crt_stdio_output@@AAEXI@Z 40047680 f i libucrtd:output.obj
 0001:000466a0       ?unset_flag@?$output_processor@DV?$string_output_adapter@D@__crt_stdio_output@@V?$format_validation_base@DV?$string_output_adapter@D@__crt_stdio_output@@@2@@__crt_stdio_output@@AAEXI@Z 400476a0 f i libucrtd:output.obj
 0001:000466c0       ?unset_flag@?$output_processor@DV?$string_output_adapter@D@__crt_stdio_output@@V?$positional_parameter_base@DV?$string_output_adapter@D@__crt_stdio_output@@@2@@__crt_stdio_output@@AAEXI@Z 400476c0 f i libucrtd:output.obj
 0001:000466e0       ?unset_flag@?$output_processor@DV?$string_output_adapter@D@__crt_stdio_output@@V?$standard_base@DV?$string_output_adapter@D@__crt_stdio_output@@@2@@__crt_stdio_output@@AAEXI@Z 400476e0 f i libucrtd:output.obj
 0001:00046700       ?unset_flag@?$output_processor@_WV?$stream_output_adapter@_W@__crt_stdio_output@@V?$format_validation_base@_WV?$stream_output_adapter@_W@__crt_stdio_output@@@2@@__crt_stdio_output@@AAEXI@Z 40047700 f i libucrtd:output.obj
 0001:00046720       ?unset_flag@?$output_processor@_WV?$stream_output_adapter@_W@__crt_stdio_output@@V?$positional_parameter_base@_WV?$stream_output_adapter@_W@__crt_stdio_output@@@2@@__crt_stdio_output@@AAEXI@Z 40047720 f i libucrtd:output.obj
 0001:00046740       ?unset_flag@?$output_processor@_WV?$stream_output_adapter@_W@__crt_stdio_output@@V?$standard_base@_WV?$stream_output_adapter@_W@__crt_stdio_output@@@2@@__crt_stdio_output@@AAEXI@Z 40047740 f i libucrtd:output.obj
 0001:00046760       ?unset_flag@?$output_processor@_WV?$string_output_adapter@_W@__crt_stdio_output@@V?$format_validation_base@_WV?$string_output_adapter@_W@__crt_stdio_output@@@2@@__crt_stdio_output@@AAEXI@Z 40047760 f i libucrtd:output.obj
 0001:00046780       ?unset_flag@?$output_processor@_WV?$string_output_adapter@_W@__crt_stdio_output@@V?$positional_parameter_base@_WV?$string_output_adapter@_W@__crt_stdio_output@@@2@@__crt_stdio_output@@AAEXI@Z 40047780 f i libucrtd:output.obj
 0001:000467a0       ?unset_flag@?$output_processor@_WV?$string_output_adapter@_W@__crt_stdio_output@@V?$standard_base@_WV?$string_output_adapter@_W@__crt_stdio_output@@@2@@__crt_stdio_output@@AAEXI@Z 400477a0 f i libucrtd:output.obj
 0001:000467c0       ?update_field_width@?$positional_parameter_base@DV?$stream_output_adapter@D@__crt_stdio_output@@@__crt_stdio_output@@IAE_NXZ 400477c0 f i libucrtd:output.obj
 0001:00046950       ?update_field_width@?$positional_parameter_base@DV?$string_output_adapter@D@__crt_stdio_output@@@__crt_stdio_output@@IAE_NXZ 40047950 f i libucrtd:output.obj
 0001:00046ae0       ?update_field_width@?$positional_parameter_base@_WV?$stream_output_adapter@_W@__crt_stdio_output@@@__crt_stdio_output@@IAE_NXZ 40047ae0 f i libucrtd:output.obj
 0001:00046c70       ?update_field_width@?$positional_parameter_base@_WV?$string_output_adapter@_W@__crt_stdio_output@@@__crt_stdio_output@@IAE_NXZ 40047c70 f i libucrtd:output.obj
 0001:00046e00       ?update_field_width@?$standard_base@DV?$stream_output_adapter@D@__crt_stdio_output@@@__crt_stdio_output@@IAE_NXZ 40047e00 f i libucrtd:output.obj
 0001:00046e30       ?update_field_width@?$standard_base@DV?$string_output_adapter@D@__crt_stdio_output@@@__crt_stdio_output@@IAE_NXZ 40047e30 f i libucrtd:output.obj
 0001:00046e60       ?update_field_width@?$standard_base@_WV?$stream_output_adapter@_W@__crt_stdio_output@@@__crt_stdio_output@@IAE_NXZ 40047e60 f i libucrtd:output.obj
 0001:00046e90       ?update_field_width@?$standard_base@_WV?$string_output_adapter@_W@__crt_stdio_output@@@__crt_stdio_output@@IAE_NXZ 40047e90 f i libucrtd:output.obj
 0001:00046ec0       ?update_locale@__crt_cached_ptd_host@@AAEXXZ 40047ec0 f i libucrtd:output.obj
 0001:00046ee0       ?update_locale_slow@__crt_cached_ptd_host@@AAEXXZ 40047ee0 f i libucrtd:output.obj
 0001:00046f70       ?update_precision@?$positional_parameter_base@DV?$stream_output_adapter@D@__crt_stdio_output@@@__crt_stdio_output@@IAE_NXZ 40047f70 f i libucrtd:output.obj
 0001:00047100       ?update_precision@?$positional_parameter_base@DV?$string_output_adapter@D@__crt_stdio_output@@@__crt_stdio_output@@IAE_NXZ 40048100 f i libucrtd:output.obj
 0001:00047290       ?update_precision@?$positional_parameter_base@_WV?$stream_output_adapter@_W@__crt_stdio_output@@@__crt_stdio_output@@IAE_NXZ 40048290 f i libucrtd:output.obj
 0001:00047420       ?update_precision@?$positional_parameter_base@_WV?$string_output_adapter@_W@__crt_stdio_output@@@__crt_stdio_output@@IAE_NXZ 40048420 f i libucrtd:output.obj
 0001:000475b0       ?update_precision@?$standard_base@DV?$stream_output_adapter@D@__crt_stdio_output@@@__crt_stdio_output@@IAE_NXZ 400485b0 f i libucrtd:output.obj
 0001:000475e0       ?update_precision@?$standard_base@DV?$string_output_adapter@D@__crt_stdio_output@@@__crt_stdio_output@@IAE_NXZ 400485e0 f i libucrtd:output.obj
 0001:00047610       ?update_precision@?$standard_base@_WV?$stream_output_adapter@_W@__crt_stdio_output@@@__crt_stdio_output@@IAE_NXZ 40048610 f i libucrtd:output.obj
 0001:00047640       ?update_precision@?$standard_base@_WV?$string_output_adapter@_W@__crt_stdio_output@@@__crt_stdio_output@@IAE_NXZ 40048640 f i libucrtd:output.obj
 0001:00047670       ?valid@?$cached@H@__crt_cached_ptd_host@@QBE_NXZ 40048670 f i libucrtd:output.obj
 0001:00047690       ?valid@?$cached@K@__crt_cached_ptd_host@@QBE_NXZ 40048690 f i libucrtd:output.obj
 0001:000476b0       ?valid@__crt_stdio_stream@@QBE_NXZ 400486b0 f i libucrtd:output.obj
 0001:000476e0       ?validate@?$c_string_character_source@D@__crt_strtox@@QBE_NXZ 400486e0 f i libucrtd:output.obj
 0001:00047770       ?validate@?$c_string_character_source@_W@__crt_strtox@@QBE_NXZ 40048770 f i libucrtd:output.obj
 0001:00047800       ?validate@?$stream_output_adapter@D@__crt_stdio_output@@QBE_NAAV__crt_cached_ptd_host@@@Z 40048800 f i libucrtd:output.obj
 0001:000478c0       ?validate@?$stream_output_adapter@_W@__crt_stdio_output@@QBE_NAAV__crt_cached_ptd_host@@@Z 400488c0 f i libucrtd:output.obj
 0001:00047980       ?validate@?$string_output_adapter@D@__crt_stdio_output@@QBE_NAAV__crt_cached_ptd_host@@@Z 40048980 f i libucrtd:output.obj
 0001:00047a20       ?validate@?$string_output_adapter@_W@__crt_stdio_output@@QBE_NAAV__crt_cached_ptd_host@@@Z 40048a20 f i libucrtd:output.obj
 0001:00047ac0       ?validate_and_store_parameter_data@?$positional_parameter_base@DV?$stream_output_adapter@D@__crt_stdio_output@@@__crt_stdio_output@@AAE_NAAUparameter_data@12@W4parameter_type@12@DW4length_modifier@2@@Z 40048ac0 f i libucrtd:output.obj
 0001:00047bb0       ?validate_and_store_parameter_data@?$positional_parameter_base@DV?$string_output_adapter@D@__crt_stdio_output@@@__crt_stdio_output@@AAE_NAAUparameter_data@12@W4parameter_type@12@DW4length_modifier@2@@Z 40048bb0 f i libucrtd:output.obj
 0001:00047ca0       ?validate_and_store_parameter_data@?$positional_parameter_base@_WV?$stream_output_adapter@_W@__crt_stdio_output@@@__crt_stdio_output@@AAE_NAAUparameter_data@12@W4parameter_type@12@_WW4length_modifier@2@@Z 40048ca0 f i libucrtd:output.obj
 0001:00047d90       ?validate_and_store_parameter_data@?$positional_parameter_base@_WV?$string_output_adapter@_W@__crt_stdio_output@@@__crt_stdio_output@@AAE_NAAUparameter_data@12@W4parameter_type@12@_WW4length_modifier@2@@Z 40048d90 f i libucrtd:output.obj
 0001:00047e90       ?validate_and_update_state_at_beginning_of_format_character@?$positional_parameter_base@DV?$stream_output_adapter@D@__crt_stdio_output@@@__crt_stdio_output@@IAE_NXZ 40048e90 f i libucrtd:output.obj
 0001:000480c0       ?validate_and_update_state_at_beginning_of_format_character@?$positional_parameter_base@DV?$string_output_adapter@D@__crt_stdio_output@@@__crt_stdio_output@@IAE_NXZ 400490c0 f i libucrtd:output.obj
 0001:000482f0       ?validate_and_update_state_at_beginning_of_format_character@?$positional_parameter_base@_WV?$stream_output_adapter@_W@__crt_stdio_output@@@__crt_stdio_output@@IAE_NXZ 400492f0 f i libucrtd:output.obj
 0001:00048520       ?validate_and_update_state_at_beginning_of_format_character@?$positional_parameter_base@_WV?$string_output_adapter@_W@__crt_stdio_output@@@__crt_stdio_output@@IAE_NXZ 40049520 f i libucrtd:output.obj
 0001:00048750       ?validate_and_update_state_at_beginning_of_format_character@?$standard_base@DV?$stream_output_adapter@D@__crt_stdio_output@@@__crt_stdio_output@@IAE_NXZ 40049750 f i libucrtd:output.obj
 0001:00048760       ?validate_and_update_state_at_beginning_of_format_character@?$standard_base@DV?$string_output_adapter@D@__crt_stdio_output@@@__crt_stdio_output@@IAE_NXZ 40049760 f i libucrtd:output.obj
 0001:00048770       ?validate_and_update_state_at_beginning_of_format_character@?$standard_base@_WV?$stream_output_adapter@_W@__crt_stdio_output@@@__crt_stdio_output@@IAE_NXZ 40049770 f i libucrtd:output.obj
 0001:00048780       ?validate_and_update_state_at_beginning_of_format_character@?$standard_base@_WV?$string_output_adapter@_W@__crt_stdio_output@@@__crt_stdio_output@@IAE_NXZ 40049780 f i libucrtd:output.obj
 0001:00048790       ?validate_and_update_state_at_end_of_format_string@?$format_validation_base@DV?$stream_output_adapter@D@__crt_stdio_output@@@__crt_stdio_output@@IAE_NXZ 40049790 f i libucrtd:output.obj
 0001:00048840       ?validate_and_update_state_at_end_of_format_string@?$format_validation_base@DV?$string_output_adapter@D@__crt_stdio_output@@@__crt_stdio_output@@IAE_NXZ 40049840 f i libucrtd:output.obj
 0001:000488f0       ?validate_and_update_state_at_end_of_format_string@?$format_validation_base@_WV?$stream_output_adapter@_W@__crt_stdio_output@@@__crt_stdio_output@@IAE_NXZ 400498f0 f i libucrtd:output.obj
 0001:000489a0       ?validate_and_update_state_at_end_of_format_string@?$format_validation_base@_WV?$string_output_adapter@_W@__crt_stdio_output@@@__crt_stdio_output@@IAE_NXZ 400499a0 f i libucrtd:output.obj
 0001:00048a50       ?validate_and_update_state_at_end_of_format_string@?$positional_parameter_base@DV?$stream_output_adapter@D@__crt_stdio_output@@@__crt_stdio_output@@IAE_NXZ 40049a50 f i libucrtd:output.obj
 0001:00048c00       ?validate_and_update_state_at_end_of_format_string@?$positional_parameter_base@DV?$string_output_adapter@D@__crt_stdio_output@@@__crt_stdio_output@@IAE_NXZ 40049c00 f i libucrtd:output.obj
 0001:00048db0       ?validate_and_update_state_at_end_of_format_string@?$positional_parameter_base@_WV?$stream_output_adapter@_W@__crt_stdio_output@@@__crt_stdio_output@@IAE_NXZ 40049db0 f i libucrtd:output.obj
 0001:00048f60       ?validate_and_update_state_at_end_of_format_string@?$positional_parameter_base@_WV?$string_output_adapter@_W@__crt_stdio_output@@@__crt_stdio_output@@IAE_NXZ 40049f60 f i libucrtd:output.obj
 0001:00049110       ?validate_and_update_state_at_end_of_format_string@?$standard_base@DV?$stream_output_adapter@D@__crt_stdio_output@@@__crt_stdio_output@@IBE_NXZ 4004a110 f i libucrtd:output.obj
 0001:00049120       ?validate_and_update_state_at_end_of_format_string@?$standard_base@DV?$string_output_adapter@D@__crt_stdio_output@@@__crt_stdio_output@@IBE_NXZ 4004a120 f i libucrtd:output.obj
 0001:00049130       ?validate_and_update_state_at_end_of_format_string@?$standard_base@_WV?$stream_output_adapter@_W@__crt_stdio_output@@@__crt_stdio_output@@IBE_NXZ 4004a130 f i libucrtd:output.obj
 0001:00049140       ?validate_and_update_state_at_end_of_format_string@?$standard_base@_WV?$string_output_adapter@_W@__crt_stdio_output@@@__crt_stdio_output@@IBE_NXZ 4004a140 f i libucrtd:output.obj
 0001:00049150       ?validate_state_for_type_case_a@?$positional_parameter_base@DV?$stream_output_adapter@D@__crt_stdio_output@@@__crt_stdio_output@@IAE_NXZ 4004a150 f i libucrtd:output.obj
 0001:00049260       ?validate_state_for_type_case_a@?$positional_parameter_base@DV?$string_output_adapter@D@__crt_stdio_output@@@__crt_stdio_output@@IAE_NXZ 4004a260 f i libucrtd:output.obj
 0001:00049370       ?validate_state_for_type_case_a@?$positional_parameter_base@_WV?$stream_output_adapter@_W@__crt_stdio_output@@@__crt_stdio_output@@IAE_NXZ 4004a370 f i libucrtd:output.obj
 0001:00049480       ?validate_state_for_type_case_a@?$positional_parameter_base@_WV?$string_output_adapter@_W@__crt_stdio_output@@@__crt_stdio_output@@IAE_NXZ 4004a480 f i libucrtd:output.obj
 0001:00049590       ?validate_state_for_type_case_a@?$standard_base@DV?$stream_output_adapter@D@__crt_stdio_output@@@__crt_stdio_output@@IBE_NXZ 4004a590 f i libucrtd:output.obj
 0001:000495a0       ?validate_state_for_type_case_a@?$standard_base@DV?$string_output_adapter@D@__crt_stdio_output@@@__crt_stdio_output@@IBE_NXZ 4004a5a0 f i libucrtd:output.obj
 0001:000495b0       ?validate_state_for_type_case_a@?$standard_base@_WV?$stream_output_adapter@_W@__crt_stdio_output@@@__crt_stdio_output@@IBE_NXZ 4004a5b0 f i libucrtd:output.obj
 0001:000495c0       ?validate_state_for_type_case_a@?$standard_base@_WV?$string_output_adapter@_W@__crt_stdio_output@@@__crt_stdio_output@@IBE_NXZ 4004a5c0 f i libucrtd:output.obj
 0001:000495d0       ?validate_stream_is_ansi_if_required@?$__acrt_stdio_char_traits@D@@SA_NQAU_iobuf@@@Z 4004a5d0 f i libucrtd:output.obj
 0001:00049700       ?validate_stream_is_ansi_if_required@?$__acrt_stdio_char_traits@_W@@SA_NQAU_iobuf@@@Z 4004a700 f i libucrtd:output.obj
 0001:00049710       ?wide_character_to_digit@__crt_strtox@@YAH_W@Z 4004a710 f i libucrtd:output.obj
 0001:00049a40       ?wide_null_string@?$output_processor@DV?$stream_output_adapter@D@__crt_stdio_output@@V?$format_validation_base@DV?$stream_output_adapter@D@__crt_stdio_output@@@2@@__crt_stdio_output@@CAPA_WXZ 4004aa40 f i libucrtd:output.obj
 0001:00049a50       ?wide_null_string@?$output_processor@DV?$stream_output_adapter@D@__crt_stdio_output@@V?$positional_parameter_base@DV?$stream_output_adapter@D@__crt_stdio_output@@@2@@__crt_stdio_output@@CAPA_WXZ 4004aa50 f i libucrtd:output.obj
 0001:00049a60       ?wide_null_string@?$output_processor@DV?$stream_output_adapter@D@__crt_stdio_output@@V?$standard_base@DV?$stream_output_adapter@D@__crt_stdio_output@@@2@@__crt_stdio_output@@CAPA_WXZ 4004aa60 f i libucrtd:output.obj
 0001:00049a70       ?wide_null_string@?$output_processor@DV?$string_output_adapter@D@__crt_stdio_output@@V?$format_validation_base@DV?$string_output_adapter@D@__crt_stdio_output@@@2@@__crt_stdio_output@@CAPA_WXZ 4004aa70 f i libucrtd:output.obj
 0001:00049a80       ?wide_null_string@?$output_processor@DV?$string_output_adapter@D@__crt_stdio_output@@V?$positional_parameter_base@DV?$string_output_adapter@D@__crt_stdio_output@@@2@@__crt_stdio_output@@CAPA_WXZ 4004aa80 f i libucrtd:output.obj
 0001:00049a90       ?wide_null_string@?$output_processor@DV?$string_output_adapter@D@__crt_stdio_output@@V?$standard_base@DV?$string_output_adapter@D@__crt_stdio_output@@@2@@__crt_stdio_output@@CAPA_WXZ 4004aa90 f i libucrtd:output.obj
 0001:00049aa0       ?wide_null_string@?$output_processor@_WV?$stream_output_adapter@_W@__crt_stdio_output@@V?$format_validation_base@_WV?$stream_output_adapter@_W@__crt_stdio_output@@@2@@__crt_stdio_output@@CAPA_WXZ 4004aaa0 f i libucrtd:output.obj
 0001:00049ab0       ?wide_null_string@?$output_processor@_WV?$stream_output_adapter@_W@__crt_stdio_output@@V?$positional_parameter_base@_WV?$stream_output_adapter@_W@__crt_stdio_output@@@2@@__crt_stdio_output@@CAPA_WXZ 4004aab0 f i libucrtd:output.obj
 0001:00049ac0       ?wide_null_string@?$output_processor@_WV?$stream_output_adapter@_W@__crt_stdio_output@@V?$standard_base@_WV?$stream_output_adapter@_W@__crt_stdio_output@@@2@@__crt_stdio_output@@CAPA_WXZ 4004aac0 f i libucrtd:output.obj
 0001:00049ad0       ?wide_null_string@?$output_processor@_WV?$string_output_adapter@_W@__crt_stdio_output@@V?$format_validation_base@_WV?$string_output_adapter@_W@__crt_stdio_output@@@2@@__crt_stdio_output@@CAPA_WXZ 4004aad0 f i libucrtd:output.obj
 0001:00049ae0       ?wide_null_string@?$output_processor@_WV?$string_output_adapter@_W@__crt_stdio_output@@V?$positional_parameter_base@_WV?$string_output_adapter@_W@__crt_stdio_output@@@2@@__crt_stdio_output@@CAPA_WXZ 4004aae0 f i libucrtd:output.obj
 0001:00049af0       ?wide_null_string@?$output_processor@_WV?$string_output_adapter@_W@__crt_stdio_output@@V?$standard_base@_WV?$string_output_adapter@_W@__crt_stdio_output@@@2@@__crt_stdio_output@@CAPA_WXZ 4004aaf0 f i libucrtd:output.obj
 0001:00049b00       ?write_character@?$output_adapter_common@DV?$stream_output_adapter@D@__crt_stdio_output@@@__crt_stdio_output@@QBEXDQAHAAV__crt_cached_ptd_host@@@Z 4004ab00 f i libucrtd:output.obj
 0001:00049b40       ?write_character@?$output_adapter_common@_WV?$stream_output_adapter@_W@__crt_stdio_output@@@__crt_stdio_output@@QBEX_WQAHAAV__crt_cached_ptd_host@@@Z 4004ab40 f i libucrtd:output.obj
 0001:00049b80       ?write_character@?$string_output_adapter@D@__crt_stdio_output@@QBE_NDQAHAAV__crt_cached_ptd_host@@@Z 4004ab80 f i libucrtd:output.obj
 0001:00049c10       ?write_character@?$string_output_adapter@_W@__crt_stdio_output@@QBE_N_WQAHAAV__crt_cached_ptd_host@@@Z 4004ac10 f i libucrtd:output.obj
 0001:00049cb0       ?write_character_without_count_update@?$stream_output_adapter@D@__crt_stdio_output@@QBE_NDAAV__crt_cached_ptd_host@@@Z 4004acb0 f i libucrtd:output.obj
 0001:00049d20       ?write_character_without_count_update@?$stream_output_adapter@_W@__crt_stdio_output@@QBE_N_WAAV__crt_cached_ptd_host@@@Z 4004ad20 f i libucrtd:output.obj
 0001:00049d90       ?write_stored_string_tchar@?$output_processor@DV?$stream_output_adapter@D@__crt_stdio_output@@V?$format_validation_base@DV?$stream_output_adapter@D@__crt_stdio_output@@@2@@__crt_stdio_output@@AAE_ND@Z 4004ad90 f i libucrtd:output.obj
 0001:00049fa0       ?write_stored_string_tchar@?$output_processor@DV?$stream_output_adapter@D@__crt_stdio_output@@V?$positional_parameter_base@DV?$stream_output_adapter@D@__crt_stdio_output@@@2@@__crt_stdio_output@@AAE_ND@Z 4004afa0 f i libucrtd:output.obj
 0001:0004a1b0       ?write_stored_string_tchar@?$output_processor@DV?$stream_output_adapter@D@__crt_stdio_output@@V?$standard_base@DV?$stream_output_adapter@D@__crt_stdio_output@@@2@@__crt_stdio_output@@AAE_ND@Z 4004b1b0 f i libucrtd:output.obj
 0001:0004a3c0       ?write_stored_string_tchar@?$output_processor@DV?$string_output_adapter@D@__crt_stdio_output@@V?$format_validation_base@DV?$string_output_adapter@D@__crt_stdio_output@@@2@@__crt_stdio_output@@AAE_ND@Z 4004b3c0 f i libucrtd:output.obj
 0001:0004a5d0       ?write_stored_string_tchar@?$output_processor@DV?$string_output_adapter@D@__crt_stdio_output@@V?$positional_parameter_base@DV?$string_output_adapter@D@__crt_stdio_output@@@2@@__crt_stdio_output@@AAE_ND@Z 4004b5d0 f i libucrtd:output.obj
 0001:0004a7e0       ?write_stored_string_tchar@?$output_processor@DV?$string_output_adapter@D@__crt_stdio_output@@V?$standard_base@DV?$string_output_adapter@D@__crt_stdio_output@@@2@@__crt_stdio_output@@AAE_ND@Z 4004b7e0 f i libucrtd:output.obj
 0001:0004a9f0       ?write_stored_string_tchar@?$output_processor@_WV?$stream_output_adapter@_W@__crt_stdio_output@@V?$format_validation_base@_WV?$stream_output_adapter@_W@__crt_stdio_output@@@2@@__crt_stdio_output@@AAE_N_W@Z 4004b9f0 f i libucrtd:output.obj
 0001:0004ac20       ?write_stored_string_tchar@?$output_processor@_WV?$stream_output_adapter@_W@__crt_stdio_output@@V?$positional_parameter_base@_WV?$stream_output_adapter@_W@__crt_stdio_output@@@2@@__crt_stdio_output@@AAE_N_W@Z 4004bc20 f i libucrtd:output.obj
 0001:0004ae50       ?write_stored_string_tchar@?$output_processor@_WV?$stream_output_adapter@_W@__crt_stdio_output@@V?$standard_base@_WV?$stream_output_adapter@_W@__crt_stdio_output@@@2@@__crt_stdio_output@@AAE_N_W@Z 4004be50 f i libucrtd:output.obj
 0001:0004b080       ?write_stored_string_tchar@?$output_processor@_WV?$string_output_adapter@_W@__crt_stdio_output@@V?$format_validation_base@_WV?$string_output_adapter@_W@__crt_stdio_output@@@2@@__crt_stdio_output@@AAE_N_W@Z 4004c080 f i libucrtd:output.obj
 0001:0004b2b0       ?write_stored_string_tchar@?$output_processor@_WV?$string_output_adapter@_W@__crt_stdio_output@@V?$positional_parameter_base@_WV?$string_output_adapter@_W@__crt_stdio_output@@@2@@__crt_stdio_output@@AAE_N_W@Z 4004c2b0 f i libucrtd:output.obj
 0001:0004b4e0       ?write_stored_string_tchar@?$output_processor@_WV?$string_output_adapter@_W@__crt_stdio_output@@V?$standard_base@_WV?$string_output_adapter@_W@__crt_stdio_output@@@2@@__crt_stdio_output@@AAE_N_W@Z 4004c4e0 f i libucrtd:output.obj
 0001:0004b710       ?write_string@?$stream_output_adapter@D@__crt_stdio_output@@QBEXQBDHQAHAAV__crt_cached_ptd_host@@@Z 4004c710 f i libucrtd:output.obj
 0001:0004b770       ?write_string@?$stream_output_adapter@_W@__crt_stdio_output@@QBEXQB_WHQAHAAV__crt_cached_ptd_host@@@Z 4004c770 f i libucrtd:output.obj
 0001:0004b7d0       ?write_string@?$string_output_adapter@D@__crt_stdio_output@@QBEXQBDHQAHAAV__crt_cached_ptd_host@@@Z 4004c7d0 f i libucrtd:output.obj
 0001:0004b8d0       ?write_string@?$string_output_adapter@_W@__crt_stdio_output@@QBEXQB_WHQAHAAV__crt_cached_ptd_host@@@Z 4004c8d0 f i libucrtd:output.obj
 0001:0004b9e0       ?write_string_impl@?$output_adapter_common@DV?$stream_output_adapter@D@__crt_stdio_output@@@__crt_stdio_output@@IBEXQBDHQAHAAV__crt_cached_ptd_host@@@Z 4004c9e0 f i libucrtd:output.obj
 0001:0004baa0       ?write_string_impl@?$output_adapter_common@_WV?$stream_output_adapter@_W@__crt_stdio_output@@@__crt_stdio_output@@IBEXQB_WHQAHAAV__crt_cached_ptd_host@@@Z 4004caa0 f i libucrtd:output.obj
 0001:0004bb60       ___acrt_disable_global_locale_sync 4004cb60 f i libucrtd:output.obj
 0001:0004bb80       ___acrt_enable_global_locale_sync 4004cb80 f i libucrtd:output.obj
 0001:0004bba0       ___acrt_isleadbyte_l_noupdate 4004cba0 f i libucrtd:output.obj
 0001:0004bbc0       ___acrt_locale_changed     4004cbc0 f i libucrtd:output.obj
 0001:0004bbf0       ___acrt_locale_get_ctype_array_value 4004cbf0 f i libucrtd:output.obj
 0001:0004bc20       ___ascii_iswalpha          4004cc20 f i libucrtd:output.obj
 0001:0004bc60       ___ascii_toupper           4004cc60 f i libucrtd:output.obj
 0001:0004bc80       ___ascii_towupper          4004cc80 f i libucrtd:output.obj
 0001:0004bca0       ___stdio_common_vfprintf   4004cca0 f   libucrtd:output.obj
 0001:0004bcf0       ___stdio_common_vfprintf_p 4004ccf0 f   libucrtd:output.obj
 0001:0004bd40       ___stdio_common_vfprintf_s 4004cd40 f   libucrtd:output.obj
 0001:0004bd90       ___stdio_common_vfwprintf  4004cd90 f   libucrtd:output.obj
 0001:0004bde0       ___stdio_common_vfwprintf_p 4004cde0 f   libucrtd:output.obj
 0001:0004be30       ___stdio_common_vfwprintf_s 4004ce30 f   libucrtd:output.obj
 0001:0004be80       ___stdio_common_vsnprintf_s 4004ce80 f   libucrtd:output.obj
 0001:0004bed0       ___stdio_common_vsnwprintf_s 4004ced0 f   libucrtd:output.obj
 0001:0004bf20       ___stdio_common_vsprintf   4004cf20 f   libucrtd:output.obj
 0001:0004bf70       ___stdio_common_vsprintf_p 4004cf70 f   libucrtd:output.obj
 0001:0004bfc0       ___stdio_common_vsprintf_s 4004cfc0 f   libucrtd:output.obj
 0001:0004c010       ___stdio_common_vswprintf  4004d010 f   libucrtd:output.obj
 0001:0004c060       ___stdio_common_vswprintf_p 4004d060 f   libucrtd:output.obj
 0001:0004c0b0       ___stdio_common_vswprintf_s 4004d0b0 f   libucrtd:output.obj
 0001:0004c100       __ctype_fast_check_internal 4004d100 f i libucrtd:output.obj
 0001:0004c120       __isdigit_fast_internal    4004d120 f i libucrtd:output.obj
 0001:0004c140       __tolower_fast_internal    4004d140 f i libucrtd:output.obj
 0001:0004c1b0       __seh_filter_dll           4004d1b0 f   libucrtd:exception_filter.obj
 0001:0004c1e0       __seh_filter_exe           4004d1e0 f   libucrtd:exception_filter.obj
 0001:0004c400       ??$?B$$A6GXPAXK0@Z@__crt_fast_encoded_nullptr_t@@QBEP6GXPAXK0@ZXZ 4004d400 f i libucrtd:exit.obj
 0001:0004c510       ??$__crt_fast_decode_pointer@P6GXPAXK0@Z@@YAP6GXPAXK0@ZQ6GX0K0@Z@Z 4004d510 f i libucrtd:exit.obj
 0001:0004c540       ??$__crt_fast_encode_pointer@P6GXPAXK0@Z@@YAP6GXPAXK0@ZQ6GX0K0@Z@Z 4004d540 f i libucrtd:exit.obj
 0001:0004c570       ??$__crt_get_proc_address@P6GXI@Z@@YAP6GXI@ZQAUHINSTANCE__@@QBD@Z 4004d570 f i libucrtd:exit.obj
 0001:0004c600       ??0?$__crt_unique_handle_t@U__crt_hmodule_traits@@@@QAE@QAUHINSTANCE__@@@Z 4004d600 f i libucrtd:exit.obj
 0001:0004c620       ??1?$__crt_unique_handle_t@U__crt_hmodule_traits@@@@QAE@XZ 4004d620 f i libucrtd:exit.obj
 0001:0004c7e0       ?__acrt_select_exit_lock@@YA?AW4__acrt_lock_id@@XZ 4004d7e0 f i libucrtd:exit.obj
 0001:0004c7f0       ?__crt_fast_encode_pointer@@YA?AU__crt_fast_encoded_nullptr_t@@$$T@Z 4004d7f0 f i libucrtd:exit.obj
 0001:0004c800       ?__crt_rotate_pointer_value@@YAIIH@Z 4004d800 f i libucrtd:exit.obj
 0001:0004c830       ?close@?$__crt_unique_handle_t@U__crt_hmodule_traits@@@@QAEXXZ 4004d830 f i libucrtd:exit.obj
 0001:0004c870       ?close@__crt_hmodule_traits@@SA_NPAUHINSTANCE__@@@Z 4004d870 f i libucrtd:exit.obj
 0001:0004c9b0       ?get@?$__crt_unique_handle_t@U__crt_hmodule_traits@@@@QBEPAUHINSTANCE__@@XZ 4004d9b0 f i libucrtd:exit.obj
 0001:0004c9d0       ?get_address_of@?$__crt_unique_handle_t@U__crt_hmodule_traits@@@@QAEPAPAUHINSTANCE__@@XZ 4004d9d0 f i libucrtd:exit.obj
 0001:0004c9e0       ?get_invalid_value@__crt_hmodule_traits@@SAPAUHINSTANCE__@@XZ 4004d9e0 f i libucrtd:exit.obj
 0001:0004cb70       __Exit                     4004db70 f   libucrtd:exit.obj
 0001:0004cb90       ___acrt_initialize_thread_local_exit_callback 4004db90 f   libucrtd:exit.obj
 0001:0004cba0       __c_exit                   4004dba0 f   libucrtd:exit.obj
 0001:0004cbc0       __cexit                    4004dbc0 f   libucrtd:exit.obj
 0001:0004cbe0       __exit                     4004dbe0 f   libucrtd:exit.obj
 0001:0004cc00       __is_c_termination_complete 4004dc00 f   libucrtd:exit.obj
 0001:0004cc20       __register_thread_local_exe_atexit_callback 4004dc20 f   libucrtd:exit.obj
 0001:0004cc60       _exit                      4004dc60 f   libucrtd:exit.obj
 0001:0004cc80       _quick_exit                4004dc80 f   libucrtd:exit.obj
 0001:0004cca0       ??$?RE@__crt_internal_free_policy@@QBEXQBE@Z 4004dca0 f i libucrtd:argv_parsing.obj
 0001:0004ccc0       ??$?RPAD@__crt_internal_free_policy@@QBEXQBQAD@Z 4004dcc0 f i libucrtd:argv_parsing.obj
 0001:0004cce0       ??$?RPA_W@__crt_internal_free_policy@@QBEXQBQA_W@Z 4004dce0 f i libucrtd:argv_parsing.obj
 0001:0004d2a0       ??$get_module_file_name@$$TAAY0BAF@DH@?$__crt_char_traits@D@@SAK$$QA$$TAAY0BAF@D$$QAH@Z 4004e2a0 f i libucrtd:argv_parsing.obj
 0001:0004d2c0       ??$get_module_file_name@$$TAAY0BAF@_WH@?$__crt_char_traits@_W@@SAK$$QA$$TAAY0BAF@_W$$QAH@Z 4004e2c0 f i libucrtd:argv_parsing.obj
 0001:0004da00       ??$set_program_name@PAD@?$__crt_char_traits@D@@SAX$$QAPAD@Z 4004ea00 f i libucrtd:argv_parsing.obj
 0001:0004da20       ??$set_program_name@PA_W@?$__crt_char_traits@_W@@SAX$$QAPA_W@Z 4004ea20 f i libucrtd:argv_parsing.obj
 0001:0004da80       ??0?$__crt_unique_heap_ptr@EU__crt_internal_free_policy@@@@QAE@QAE@Z 4004ea80 f i libucrtd:argv_parsing.obj
 0001:0004daa0       ??0?$__crt_unique_heap_ptr@PADU__crt_internal_free_policy@@@@QAE@QAPAD@Z 4004eaa0 f i libucrtd:argv_parsing.obj
 0001:0004dac0       ??0?$__crt_unique_heap_ptr@PA_WU__crt_internal_free_policy@@@@QAE@QAPA_W@Z 4004eac0 f i libucrtd:argv_parsing.obj
 0001:0004dae0       ??1?$__crt_unique_heap_ptr@EU__crt_internal_free_policy@@@@QAE@XZ 4004eae0 f i libucrtd:argv_parsing.obj
 0001:0004db00       ??1?$__crt_unique_heap_ptr@PADU__crt_internal_free_policy@@@@QAE@XZ 4004eb00 f i libucrtd:argv_parsing.obj
 0001:0004db20       ??1?$__crt_unique_heap_ptr@PA_WU__crt_internal_free_policy@@@@QAE@XZ 4004eb20 f i libucrtd:argv_parsing.obj
 0001:0004db40       ??B?$__crt_unique_heap_ptr@EU__crt_internal_free_policy@@@@QBE_NXZ 4004eb40 f i libucrtd:argv_parsing.obj
 0001:0004dc00       ?detach@?$__crt_unique_heap_ptr@EU__crt_internal_free_policy@@@@QAEPAEXZ 4004ec00 f i libucrtd:argv_parsing.obj
 0001:0004dc30       ?detach@?$__crt_unique_heap_ptr@PADU__crt_internal_free_policy@@@@QAEPAPADXZ 4004ec30 f i libucrtd:argv_parsing.obj
 0001:0004dc60       ?detach@?$__crt_unique_heap_ptr@PA_WU__crt_internal_free_policy@@@@QAEPAPA_WXZ 4004ec60 f i libucrtd:argv_parsing.obj
 0001:0004dcf0       ?get@?$__crt_unique_heap_ptr@EU__crt_internal_free_policy@@@@QBEPAEXZ 4004ecf0 f i libucrtd:argv_parsing.obj
 0001:0004dd10       ?get@?$__crt_unique_heap_ptr@PADU__crt_internal_free_policy@@@@QBEPAPADXZ 4004ed10 f i libucrtd:argv_parsing.obj
 0001:0004dd30       ?get@?$__crt_unique_heap_ptr@PA_WU__crt_internal_free_policy@@@@QBEPAPA_WXZ 4004ed30 f i libucrtd:argv_parsing.obj
 0001:0004dd50       ?get_address_of@?$__crt_unique_heap_ptr@PADU__crt_internal_free_policy@@@@QAEPAPAPADXZ 4004ed50 f i libucrtd:argv_parsing.obj
 0001:0004dd60       ?get_address_of@?$__crt_unique_heap_ptr@PA_WU__crt_internal_free_policy@@@@QAEPAPAPA_WXZ 4004ed60 f i libucrtd:argv_parsing.obj
 0001:0004ddb0       ?is_valid@?$__crt_unique_heap_ptr@EU__crt_internal_free_policy@@@@QBE_NXZ 4004edb0 f i libucrtd:argv_parsing.obj
 0001:0004dde0       ?release@?$__crt_unique_heap_ptr@EU__crt_internal_free_policy@@@@QAEXXZ 4004ede0 f i libucrtd:argv_parsing.obj
 0001:0004de10       ?release@?$__crt_unique_heap_ptr@PADU__crt_internal_free_policy@@@@QAEXXZ 4004ee10 f i libucrtd:argv_parsing.obj
 0001:0004de40       ?release@?$__crt_unique_heap_ptr@PA_WU__crt_internal_free_policy@@@@QAEXXZ 4004ee40 f i libucrtd:argv_parsing.obj
 0001:0004deb0       ___acrt_allocate_buffer_for_argv 4004eeb0 f   libucrtd:argv_parsing.obj
 0001:0004df70       __configure_narrow_argv    4004ef70 f   libucrtd:argv_parsing.obj
 0001:0004df90       __configure_wide_argv      4004ef90 f   libucrtd:argv_parsing.obj
 0001:0004dfb0       __set_pgmptr               4004efb0 f i libucrtd:argv_parsing.obj
 0001:0004dfc0       __set_wpgmptr              4004efc0 f i libucrtd:argv_parsing.obj
 0001:0004dfd0       ??$?R_W@__crt_internal_free_policy@@QBEXQB_W@Z 4004efd0 f i libucrtd:environment_initialization.obj
 0001:0004e7b0       ??$get_environment_from_os@$$V@?$__crt_char_traits@D@@SAPADXZ 4004f7b0 f i libucrtd:environment_initialization.obj
 0001:0004e7c0       ??$get_environment_from_os@$$V@?$__crt_char_traits@_W@@SAPA_WXZ 4004f7c0 f i libucrtd:environment_initialization.obj
 0001:0004ea90       ??$set_variable_in_environment_nolock@PADH@?$__crt_char_traits@D@@SAH$$QAPAD$$QAH@Z 4004fa90 f i libucrtd:environment_initialization.obj
 0001:0004eab0       ??$set_variable_in_environment_nolock@PA_WH@?$__crt_char_traits@_W@@SAH$$QAPA_W$$QAH@Z 4004fab0 f i libucrtd:environment_initialization.obj
 0001:0004ead0       ??$tcscpy_s@PADABIAAPAD@?$__crt_char_traits@D@@SAH$$QAPADABIAAPAD@Z 4004fad0 f i libucrtd:environment_initialization.obj
 0001:0004eb00       ??$tcscpy_s@PA_WABIAAPA_W@?$__crt_char_traits@_W@@SAH$$QAPA_WABIAAPA_W@Z 4004fb00 f i libucrtd:environment_initialization.obj
 0001:0004eb30       ??$tcslen@AAPAD@?$__crt_char_traits@D@@SAIAAPAD@Z 4004fb30 f i libucrtd:environment_initialization.obj
 0001:0004eb50       ??$tcslen@AAPA_W@?$__crt_char_traits@_W@@SAIAAPA_W@Z 4004fb50 f i libucrtd:environment_initialization.obj
 0001:0004eb70       ??$uninitialize@A6AXAAPAPAD@_E@?$dual_state_global@PAPAD@__crt_state_management@@QAEXA6AXAAPAPAD@_E@Z 4004fb70 f i libucrtd:environment_initialization.obj
 0001:0004ebf0       ??$uninitialize@A6AXAAPAPA_W@_E@?$dual_state_global@PAPA_W@__crt_state_management@@QAEXA6AXAAPAPA_W@_E@Z 4004fbf0 f i libucrtd:environment_initialization.obj
 0001:0004ecd0       ??0?$__crt_unique_heap_ptr@_WU__crt_internal_free_policy@@@@QAE@QA_W@Z 4004fcd0 f i libucrtd:environment_initialization.obj
 0001:0004ecf0       ??1?$__crt_unique_heap_ptr@_WU__crt_internal_free_policy@@@@QAE@XZ 4004fcf0 f i libucrtd:environment_initialization.obj
 0001:0004ed10       ??B?$__crt_unique_heap_ptr@PADU__crt_internal_free_policy@@@@QBE_NXZ 4004fd10 f i libucrtd:environment_initialization.obj
 0001:0004ed30       ??B?$__crt_unique_heap_ptr@PA_WU__crt_internal_free_policy@@@@QBE_NXZ 4004fd30 f i libucrtd:environment_initialization.obj
 0001:0004ed50       ??B?$__crt_unique_heap_ptr@_WU__crt_internal_free_policy@@@@QBE_NXZ 4004fd50 f i libucrtd:environment_initialization.obj
 0001:0004ed70       ?__crt_compute_required_transform_buffer_count@@YAIIQBD@Z 4004fd70 f i libucrtd:environment_initialization.obj
 0001:0004ed90       ?__crt_compute_required_transform_buffer_count@@YAIIQB_W@Z 4004fd90 f i libucrtd:environment_initialization.obj
 0001:0004edc0       ?__crt_transform_string@@YAIIQBDQA_WI@Z 4004fdc0 f i libucrtd:environment_initialization.obj
 0001:0004edf0       ?__crt_transform_string@@YAIIQB_WQADI@Z 4004fdf0 f i libucrtd:environment_initialization.obj
 0001:0004ee20       ?detach@?$__crt_unique_heap_ptr@DU__crt_internal_free_policy@@@@QAEPADXZ 4004fe20 f i libucrtd:environment_initialization.obj
 0001:0004ee50       ?detach@?$__crt_unique_heap_ptr@_WU__crt_internal_free_policy@@@@QAEPA_WXZ 4004fe50 f i libucrtd:environment_initialization.obj
 0001:0004ee80       ?get@?$__crt_unique_heap_ptr@_WU__crt_internal_free_policy@@@@QBEPA_WXZ 4004fe80 f i libucrtd:environment_initialization.obj
 0001:0004eea0       ?get_current_state_index@__crt_state_management@@YAIXZ 4004fea0 f i libucrtd:environment_initialization.obj
 0001:0004ef30       ?initialize@?$dual_state_global@PAPAD@__crt_state_management@@QAEXQAPAD@Z 4004ff30 f i libucrtd:environment_initialization.obj
 0001:0004ef70       ?initialize@?$dual_state_global@PAPA_W@__crt_state_management@@QAEXQAPA_W@Z 4004ff70 f i libucrtd:environment_initialization.obj
 0001:0004efb0       ?is_valid@?$__crt_unique_heap_ptr@PADU__crt_internal_free_policy@@@@QBE_NXZ 4004ffb0 f i libucrtd:environment_initialization.obj
 0001:0004efe0       ?is_valid@?$__crt_unique_heap_ptr@PA_WU__crt_internal_free_policy@@@@QBE_NXZ 4004ffe0 f i libucrtd:environment_initialization.obj
 0001:0004f010       ?is_valid@?$__crt_unique_heap_ptr@_WU__crt_internal_free_policy@@@@QBE_NXZ 40050010 f i libucrtd:environment_initialization.obj
 0001:0004f060       ?release@?$__crt_unique_heap_ptr@_WU__crt_internal_free_policy@@@@QAEXXZ 40050060 f i libucrtd:environment_initialization.obj
 0001:0004f090       ?value@?$dual_state_global@PAPAD@__crt_state_management@@QAEAAPAPADXZ 40050090 f i libucrtd:environment_initialization.obj
 0001:0004f0b0       ?value@?$dual_state_global@PAPA_W@__crt_state_management@@QAEAAPAPA_WXZ 400500b0 f i libucrtd:environment_initialization.obj
 0001:0004f0d0       ___dcrt_get_or_create_narrow_environment_nolock 400500d0 f   libucrtd:environment_initialization.obj
 0001:0004f0e0       ___dcrt_get_or_create_wide_environment_nolock 400500e0 f   libucrtd:environment_initialization.obj
 0001:0004f0f0       ___dcrt_uninitialize_environments_nolock 400500f0 f   libucrtd:environment_initialization.obj
 0001:0004f140       ___p__environ              40050140 f   libucrtd:environment_initialization.obj
 0001:0004f160       ___p__wenviron             40050160 f   libucrtd:environment_initialization.obj
 0001:0004f180       __get_initial_narrow_environment 40050180 f   libucrtd:environment_initialization.obj
 0001:0004f190       __get_initial_wide_environment 40050190 f   libucrtd:environment_initialization.obj
 0001:0004f1a0       __initialize_narrow_environment 400501a0 f   libucrtd:environment_initialization.obj
 0001:0004f1b0       __initialize_wide_environment 400501b0 f   libucrtd:environment_initialization.obj
 0001:0004f1c0       ??$?B$$A6AXXZ@__crt_fast_encoded_nullptr_t@@QBEP6AXXZXZ 400501c0 f i libucrtd:onexit.obj
 0001:0004f1e0       ??$?BP6AXXZ@__crt_fast_encoded_nullptr_t@@QBEPAP6AXXZXZ 400501e0 f i libucrtd:onexit.obj
 0001:0004f200       ??$?RP6AXXZ@__crt_internal_free_policy@@QBEXQBQ6AXXZ@Z 40050200 f i libucrtd:onexit.obj
 0001:0004f420       ??$__crt_fast_decode_pointer@P6AXXZ@@YAP6AXXZQ6AXXZ@Z 40050420 f i libucrtd:onexit.obj
 0001:0004f450       ??$__crt_fast_decode_pointer@PAP6AXXZ@@YAPAP6AXXZQAP6AXXZ@Z 40050450 f i libucrtd:onexit.obj
 0001:0004f480       ??$__crt_fast_encode_pointer@P6AHXZ@@YAP6AHXZQ6AHXZ@Z 40050480 f i libucrtd:onexit.obj
 0001:0004f4b0       ??$__crt_fast_encode_pointer@P6AXXZ@@YAP6AXXZQ6AXXZ@Z 400504b0 f i libucrtd:onexit.obj
 0001:0004f4e0       ??$__crt_fast_encode_pointer@PAP6AXXZ@@YAPAP6AXXZQAP6AXXZ@Z 400504e0 f i libucrtd:onexit.obj
 0001:0004f5e0       ??0?$__crt_unique_heap_ptr@P6AXXZU__crt_internal_free_policy@@@@QAE@QAP6AXXZ@Z 400505e0 f i libucrtd:onexit.obj
 0001:0004f600       ??1?$__crt_unique_heap_ptr@P6AXXZU__crt_internal_free_policy@@@@QAE@XZ 40050600 f i libucrtd:onexit.obj
 0001:0004f620       ??1scoped_global_state_reset@__crt_state_management@@QAE@XZ 40050620 f i libucrtd:onexit.obj
 0001:0004faa0       ?detach@?$__crt_unique_heap_ptr@P6AXXZU__crt_internal_free_policy@@@@QAEPAP6AXXZXZ 40050aa0 f i libucrtd:onexit.obj
 0001:0004fad0       ?release@?$__crt_unique_heap_ptr@P6AXXZU__crt_internal_free_policy@@@@QAEXXZ 40050ad0 f i libucrtd:onexit.obj
 0001:0004fb00       __crt_at_quick_exit        40050b00 f   libucrtd:onexit.obj
 0001:0004fb20       __crt_atexit               40050b20 f   libucrtd:onexit.obj
 0001:0004fb40       __execute_onexit_table     40050b40 f   libucrtd:onexit.obj
 0001:0004fb80       __initialize_onexit_table  40050b80 f   libucrtd:onexit.obj
 0001:0004fbe0       __register_onexit_function 40050be0 f   libucrtd:onexit.obj
 0001:0004fe30       ??$?BX@__crt_fast_encoded_nullptr_t@@QBEPAXXZ 40050e30 f i libucrtd:initialization.obj
 0001:0004fe50       ??$__crt_fast_encode_pointer@PAX@@YAPAXQAX@Z 40050e50 f i libucrtd:initialization.obj
 0001:0004ff40       ?initialize@?$dual_state_global@PAU__crt_locale_data@@@__crt_state_management@@QAEXQAU__crt_locale_data@@@Z 40050f40 f i libucrtd:initialization.obj
 0001:0004ff80       ___acrt_initialize         40050f80 f   libucrtd:initialization.obj
 0001:0004ffa0       ___acrt_thread_attach      40050fa0 f   libucrtd:initialization.obj
 0001:0004ffc0       ___acrt_thread_detach      40050fc0 f   libucrtd:initialization.obj
 0001:0004ffd0       ___acrt_uninitialize       40050fd0 f   libucrtd:initialization.obj
 0001:0004fff0       ___acrt_uninitialize_critical 40050ff0 f   libucrtd:initialization.obj
 0001:00050040       __get_terminate            40051040 f   libucrtd:terminate.obj
 0001:00050060       _set_terminate             40051060 f   libucrtd:terminate.obj
 0001:00050090       _terminate                 40051090 f   libucrtd:terminate.obj
 0001:00050a90       __makepath                 40051a90 f   libucrtd:makepath.obj
 0001:00050ac0       __makepath_s               40051ac0 f   libucrtd:makepath.obj
 0001:00050af0       __wmakepath                40051af0 f   libucrtd:makepath.obj
 0001:00050b20       __wmakepath_s              40051b20 f   libucrtd:makepath.obj
 0001:000525f0       ??$tcsncpy_s@AAPADIAAPBDABI@?$__crt_char_traits@D@@SAHAAPAD$$QAIAAPBDABI@Z 400535f0 f i libucrtd:splitpath.obj
 0001:00052620       ??$tcsncpy_s@AAPADIAAPBDH@?$__crt_char_traits@D@@SAHAAPAD$$QAIAAPBD$$QAH@Z 40053620 f i libucrtd:splitpath.obj
 0001:00052650       ??$tcsncpy_s@AAPA_WIAAPB_WABI@?$__crt_char_traits@_W@@SAHAAPA_W$$QAIAAPB_WABI@Z 40053650 f i libucrtd:splitpath.obj
 0001:00052680       ??$tcsncpy_s@AAPA_WIAAPB_WH@?$__crt_char_traits@_W@@SAHAAPA_W$$QAIAAPB_W$$QAH@Z 40053680 f i libucrtd:splitpath.obj
 0001:000528c0       __splitpath                400538c0 f   libucrtd:splitpath.obj
 0001:000528f0       __splitpath_s              400538f0 f   libucrtd:splitpath.obj
 0001:00052940       __wsplitpath               40053940 f   libucrtd:splitpath.obj
 0001:00052970       __wsplitpath_s             40053970 f   libucrtd:splitpath.obj
 0001:00052ce0       _wcscpy_s                  40053ce0 f   libucrtd:wcscpy_s.obj
 0001:00052d00       ___p__crtDbgFlag           40053d00 f   libucrtd:debug_heap.obj
 0001:00052d20       ___p__crtBreakAlloc        40053d20 f   libucrtd:debug_heap.obj
 0001:00052d40       __CrtGetAllocHook          40053d40 f   libucrtd:debug_heap.obj
 0001:00052d60       __CrtSetAllocHook          40053d60 f   libucrtd:debug_heap.obj
 0001:00052d90       __CrtGetDumpClient         40053d90 f   libucrtd:debug_heap.obj
 0001:00052db0       __CrtSetDumpClient         40053db0 f   libucrtd:debug_heap.obj
 0001:00052de0       __CrtCheckMemory           40053de0 f   libucrtd:debug_heap.obj
 0001:00052f70       __CrtDoForAllClientObjects 40053f70 f   libucrtd:debug_heap.obj
 0001:000530d0       __CrtDumpMemoryLeaks       400540d0 f   libucrtd:debug_heap.obj
 0001:00053170       __CrtIsMemoryBlock         40054170 f   libucrtd:debug_heap.obj
 0001:000532c0       __CrtIsValidHeapPointer    400542c0 f   libucrtd:debug_heap.obj
 0001:00053310       __CrtIsValidPointer        40054310 f   libucrtd:debug_heap.obj
 0001:00053340       __CrtMemCheckpoint         40054340 f   libucrtd:debug_heap.obj
 0001:00053580       __CrtMemDifference         40054580 f   libucrtd:debug_heap.obj
 0001:000537f0       __CrtMemDumpAllObjectsSince 400547f0 f   libucrtd:debug_heap.obj
 0001:00053890       __CrtMemDumpStatistics     40054890 f   libucrtd:debug_heap.obj
 0001:000539c0       __CrtReportBlockType       400549c0 f   libucrtd:debug_heap.obj
 0001:000539f0       __CrtSetBreakAlloc         400549f0 f   libucrtd:debug_heap.obj
 0001:00053a20       __CrtSetDbgFlag            40054a20 f   libucrtd:debug_heap.obj
 0001:00053ba0       __aligned_free_dbg         40054ba0 f   libucrtd:debug_heap.obj
 0001:00053c50       __aligned_malloc_dbg       40054c50 f   libucrtd:debug_heap.obj
 0001:00053c80       __aligned_msize_dbg        40054c80 f   libucrtd:debug_heap.obj
 0001:00053db0       __aligned_offset_malloc_dbg 40054db0 f   libucrtd:debug_heap.obj
 0001:00053f90       __aligned_offset_realloc_dbg 40054f90 f   libucrtd:debug_heap.obj
 0001:000542a0       __aligned_offset_recalloc_dbg 400552a0 f   libucrtd:debug_heap.obj
 0001:00054360       __aligned_realloc_dbg      40055360 f   libucrtd:debug_heap.obj
 0001:00054390       __aligned_recalloc_dbg     40055390 f   libucrtd:debug_heap.obj
 0001:000543c0       __calloc_dbg               400553c0 f   libucrtd:debug_heap.obj
 0001:00054440       __expand_dbg               40055440 f   libucrtd:debug_heap.obj
 0001:00054580       __free_dbg                 40055580 f   libucrtd:debug_heap.obj
 0001:00054630       __malloc_dbg               40055630 f   libucrtd:debug_heap.obj
 0001:00054660       __msize_dbg                40055660 f   libucrtd:debug_heap.obj
 0001:000547f0       __realloc_dbg              400557f0 f   libucrtd:debug_heap.obj
 0001:000548a0       __recalloc_dbg             400558a0 f   libucrtd:debug_heap.obj
 0001:00055ba0       __CrtSetDbgBlockType       40056ba0 f   libucrtd:debug_heap.obj
 0001:000564d0       ??0_LocaleUpdate@@QAE@QAU__crt_locale_pointers@@@Z 400574d0 f i libucrtd:debug_heap.obj
 0001:000565a0       ??1_LocaleUpdate@@QAE@XZ   400575a0 f i libucrtd:debug_heap.obj
 0001:000565d0       ?GetLocaleT@_LocaleUpdate@@QAEPAU__crt_locale_pointers@@XZ 400575d0 f i libucrtd:debug_heap.obj
 0001:000565f0       ___acrt_get_locale_data_prefix 400575f0 f i libucrtd:debug_heap.obj
 0001:00056610       __chvalidchk_l             40057610 f i libucrtd:debug_heap.obj
 0001:00056630       __ischartype_l             40057630 f i libucrtd:debug_heap.obj
 0001:000566b0       _strcmp                    400576b0 f   libucrtd:strcmp.obj
 0001:00056740       _strlen                    40057740 f   libucrtd:strlen.obj
 0001:000567d0       __set_abort_behavior       400577d0 f   libucrtd:abort.obj
 0001:00056800       _abort                     40057800 f   libucrtd:abort.obj
 0001:00056870       ??$__crt_fast_decode_pointer@P6AXPB_W00II@Z@@YAP6AXPB_W00II@ZQ6AX000II@Z@Z 40057870 f i libucrtd:invalid_parameter.obj
 0001:000568a0       ??$__crt_fast_encode_pointer@P6AXPB_W00II@Z@@YAP6AXPB_W00II@ZQ6AX000II@Z@Z 400578a0 f i libucrtd:invalid_parameter.obj
 0001:000568d0       ??$initialize_from_array@$$BY00Q6AXPB_W00II@Z@?$dual_state_global@P6AXPB_W00II@Z@__crt_state_management@@QAAXAAY00Q6AXPB_W00II@Z@Z 400578d0 f i libucrtd:invalid_parameter.obj
 0001:00056920       ?check_synchronize_global_state_index@__crt_cached_ptd_host@@AAEIXZ 40057920 f i libucrtd:invalid_parameter.obj
 0001:00056970       ?dangerous_get_state_array@?$dual_state_global@P6AXPB_W00II@Z@__crt_state_management@@QAEPAP6AXPB_W00II@ZXZ 40057970 f i libucrtd:invalid_parameter.obj
 0001:00056980       ?get_current_global_state_index@__crt_cached_ptd_host@@QAEIXZ 40057980 f i libucrtd:invalid_parameter.obj
 0001:000569a0       ?get_raw_ptd_noexit@__crt_cached_ptd_host@@QAEPAU__acrt_ptd@@XZ 400579a0 f i libucrtd:invalid_parameter.obj
 0001:000569c0       ?try_synchronize_per_thread_data@__crt_cached_ptd_host@@AAEPAU__acrt_ptd@@XZ 400579c0 f i libucrtd:invalid_parameter.obj
 0001:000569f0       ?value@?$dual_state_global@P6AXPB_W00II@Z@__crt_state_management@@QAEAAP6AXPB_W00II@ZAAV__crt_cached_ptd_host@@@Z 400579f0 f i libucrtd:invalid_parameter.obj
 0001:00056a10       ?value@?$dual_state_global@P6AXPB_W00II@Z@__crt_state_management@@QAEAAP6AXPB_W00II@ZXZ 40057a10 f i libucrtd:invalid_parameter.obj
 0001:00056a30       ___acrt_call_reportfault   40057a30 f   libucrtd:invalid_parameter.obj
 0001:00056b90       ___acrt_initialize_invalid_parameter_handler 40057b90 f   libucrtd:invalid_parameter.obj
 0001:00056bc0       __get_invalid_parameter_handler 40057bc0 f   libucrtd:invalid_parameter.obj
 0001:00056be0       __get_thread_local_invalid_parameter_handler 40057be0 f   libucrtd:invalid_parameter.obj
 0001:00056c10       __invalid_parameter        40057c10 f   libucrtd:invalid_parameter.obj
 0001:00056c50       __invalid_parameter_internal 40057c50 f   libucrtd:invalid_parameter.obj
 0001:00056d20       __invalid_parameter_noinfo 40057d20 f   libucrtd:invalid_parameter.obj
 0001:00056d40       __invalid_parameter_noinfo_noreturn 40057d40 f   libucrtd:invalid_parameter.obj
 0001:00056d70       __invoke_watson            40057d70 f   libucrtd:invalid_parameter.obj
 0001:00056db0       __set_invalid_parameter_handler 40057db0 f   libucrtd:invalid_parameter.obj
 0001:00056e00       __set_thread_local_invalid_parameter_handler 40057e00 f   libucrtd:invalid_parameter.obj
 0001:00056e30       ??$is_overflow_condition@_K@__crt_strtox@@YA_NI_K@Z 40057e30 f i libucrtd:atox.obj
 0001:00056ec0       ??$make_c_string_character_source@D$$T@__crt_strtox@@YA?AV?$c_string_character_source@D@0@QBD$$T@Z 40057ec0 f i libucrtd:atox.obj
 0001:00056ee0       ??$make_c_string_character_source@_W$$T@__crt_strtox@@YA?AV?$c_string_character_source@_W@0@QB_W$$T@Z 40057ee0 f i libucrtd:atox.obj
 0001:00056f00       ??$parse_integer@KV?$c_string_character_source@D@__crt_strtox@@$00@__crt_strtox@@YAKAAV__crt_cached_ptd_host@@V?$c_string_character_source@D@0@H_N@Z 40057f00 f i libucrtd:atox.obj
 0001:00057260       ??$parse_integer@KV?$c_string_character_source@_W@__crt_strtox@@$00@__crt_strtox@@YAKAAV__crt_cached_ptd_host@@V?$c_string_character_source@_W@0@H_N@Z 40058260 f i libucrtd:atox.obj
 0001:000575d0       ??$parse_integer@_KV?$c_string_character_source@D@__crt_strtox@@$00@__crt_strtox@@YA_KAAV__crt_cached_ptd_host@@V?$c_string_character_source@D@0@H_N@Z 400585d0 f i libucrtd:atox.obj
 0001:000579b0       ??$parse_integer@_KV?$c_string_character_source@_W@__crt_strtox@@$00@__crt_strtox@@YA_KAAV__crt_cached_ptd_host@@V?$c_string_character_source@_W@0@H_N@Z 400589b0 f i libucrtd:atox.obj
 0001:00057da0       ??$parse_integer_from_string@JD$$T@__crt_strtox@@YAJQBD$$THQAU__crt_locale_pointers@@@Z 40058da0 f i libucrtd:atox.obj
 0001:00057e00       ??$parse_integer_from_string@J_W$$T@__crt_strtox@@YAJQB_W$$THQAU__crt_locale_pointers@@@Z 40058e00 f i libucrtd:atox.obj
 0001:00057e60       ??$parse_integer_from_string@_JD$$T@__crt_strtox@@YA_JQBD$$THQAU__crt_locale_pointers@@@Z 40058e60 f i libucrtd:atox.obj
 0001:00057ec0       ??$parse_integer_from_string@_J_W$$T@__crt_strtox@@YA_JQB_W$$THQAU__crt_locale_pointers@@@Z 40058ec0 f i libucrtd:atox.obj
 0001:00057f20       ?is_space@__crt_strtox@@YA_NDQAU__crt_locale_pointers@@@Z 40058f20 f i libucrtd:atox.obj
 0001:00057f60       ?is_space@__crt_strtox@@YA_N_WPAU__crt_locale_pointers@@@Z 40058f60 f i libucrtd:atox.obj
 0001:00057fa0       ?maximum_signed_value@__crt_strtox@@YA_J_K@Z 40058fa0 f i libucrtd:atox.obj
 0001:00057fb0       ?minimum_signed_value@__crt_strtox@@YA_J_K@Z 40058fb0 f i libucrtd:atox.obj
 0001:00057fc0       __atoi64                   40058fc0 f   libucrtd:atox.obj
 0001:00057fe0       __atoi64_l                 40058fe0 f   libucrtd:atox.obj
 0001:00058000       __atoi_l                   40059000 f   libucrtd:atox.obj
 0001:00058020       __atol_l                   40059020 f   libucrtd:atox.obj
 0001:00058040       __atoll_l                  40059040 f   libucrtd:atox.obj
 0001:00058060       __wtoi                     40059060 f   libucrtd:atox.obj
 0001:00058080       __wtoi64                   40059080 f   libucrtd:atox.obj
 0001:000580a0       __wtoi64_l                 400590a0 f   libucrtd:atox.obj
 0001:000580c0       __wtoi_l                   400590c0 f   libucrtd:atox.obj
 0001:000580e0       __wtol                     400590e0 f   libucrtd:atox.obj
 0001:00058100       __wtol_l                   40059100 f   libucrtd:atox.obj
 0001:00058120       __wtoll                    40059120 f   libucrtd:atox.obj
 0001:00058140       __wtoll_l                  40059140 f   libucrtd:atox.obj
 0001:00058160       _atoi                      40059160 f   libucrtd:atox.obj
 0001:00058180       _atol                      40059180 f   libucrtd:atox.obj
 0001:000581a0       _atoll                     400591a0 f   libucrtd:atox.obj
 0001:000581c0       _strncmp                   400591c0 f   libucrtd:strncmp.obj
 0001:00058238       @_guard_check_icall@4      40059238 f i libucrtd:checkcfg.obj
 0001:00058240       _wcsncmp                   40059240 f   libucrtd:wcsncmp.obj
 0001:000582a0       _free                      400592a0 f   libucrtd:free.obj
 0001:000582c0       _malloc                    400592c0 f   libucrtd:malloc.obj
 0001:000582e0       __CrtGetReportHook         400592e0 f   libucrtd:dbgrptt.obj
 0001:000582f0       __CrtSetReportFile         400592f0 f   libucrtd:dbgrptt.obj
 0001:000583f0       __CrtSetReportHook         400593f0 f   libucrtd:dbgrptt.obj
 0001:00058410       __CrtSetReportMode         40059410 f   libucrtd:dbgrptt.obj
 0001:00058550       __VCrtDbgReportA           40059550 f   libucrtd:dbgrptt.obj
 0001:00058e20       __VCrtDbgReportW           40059e20 f   libucrtd:dbgrptt.obj
 0001:00059840       __snprintf_s               4005a840 f i libucrtd:dbgrptt.obj
 0001:00059880       __vsnprintf_s              4005a880 f i libucrtd:dbgrptt.obj
 0001:000598b0       __vsnprintf_s_l            4005a8b0 f i libucrtd:dbgrptt.obj
 0001:00059a10       ?get_doserrno@__crt_cached_ptd_host@@QAE@XZ 4005aa10 f i libucrtd:errno.obj
 0001:00059a30       ?set@?$cached@K@__crt_cached_ptd_host@@QAEKK@Z 4005aa30 f i libucrtd:errno.obj
 0001:00059a60       ___acrt_errno_from_os_error 4005aa60 f   libucrtd:errno.obj
 0001:00059b00       ___acrt_errno_map_os_error 4005ab00 f   libucrtd:errno.obj
 0001:00059b30       ___acrt_errno_map_os_error_ptd 4005ab30 f   libucrtd:errno.obj
 0001:00059b80       ___doserrno                4005ab80 f   libucrtd:errno.obj
 0001:00059bb0       __errno                    4005abb0 f   libucrtd:errno.obj
 0001:00059be0       __get_doserrno             4005abe0 f   libucrtd:errno.obj
 0001:00059c70       __get_errno                4005ac70 f   libucrtd:errno.obj
 0001:00059d00       __set_doserrno             4005ad00 f   libucrtd:errno.obj
 0001:00059d30       __set_errno                4005ad30 f   libucrtd:errno.obj
 0001:0005aa30       ??1?$__crt_simd_cleanup_guard@$00@@QAE@XZ 4005ba30 f i libucrtd:strnlen.obj
 0001:0005aa40       ??1?$__crt_simd_cleanup_guard@$0A@@@QAE@XZ 4005ba40 f i libucrtd:strnlen.obj
 0001:0005aa50       ?compare_equals@?$__crt_simd_traits@$00E@@SA?AT__m256i@@T2@0@Z 4005ba50 f i libucrtd:strnlen.obj
 0001:0005aa90       ?compare_equals@?$__crt_simd_traits@$00G@@SA?AT__m256i@@T2@0@Z 4005ba90 f i libucrtd:strnlen.obj
 0001:0005aad0       ?compare_equals@?$__crt_simd_traits@$0A@E@@SA?AT__m128i@@T2@0@Z 4005bad0 f i libucrtd:strnlen.obj
 0001:0005ab10       ?compare_equals@?$__crt_simd_traits@$0A@G@@SA?AT__m128i@@T2@0@Z 4005bb10 f i libucrtd:strnlen.obj
 0001:0005ab50       ?compute_byte_mask@?$__crt_simd_pack_traits@$00@@SAHT__m256i@@@Z 4005bb50 f i libucrtd:strnlen.obj
 0001:0005ab80       ?compute_byte_mask@?$__crt_simd_pack_traits@$0A@@@SAHT__m128i@@@Z 4005bb80 f i libucrtd:strnlen.obj
 0001:0005abb0       ?get_zero_pack@?$__crt_simd_pack_traits@$00@@SA?AT__m256i@@XZ 4005bbb0 f i libucrtd:strnlen.obj
 0001:0005abe0       ?get_zero_pack@?$__crt_simd_pack_traits@$0A@@@SA?AT__m128i@@XZ 4005bbe0 f i libucrtd:strnlen.obj
 0001:0005ac10       _strnlen                   4005bc10 f   libucrtd:strnlen.obj
 0001:0005ac30       _wcslen                    4005bc30 f   libucrtd:strnlen.obj
 0001:0005ac50       _wcsnlen                   4005bc50 f   libucrtd:strnlen.obj
 0001:0005ac70       ??$__acrt_convert_wcs_mbs_cp@_WDV<lambda_0fec1a7b3f42a53036604e18c2d5e07e>@@U__crt_win32_buffer_no_resizing@@@@YAHQB_WAAV?$__crt_win32_buffer@DU__crt_win32_buffer_no_resizing@@@@ABV<lambda_0fec1a7b3f42a53036604e18c2d5e07e>@@I@Z 4005bc70 f i libucrtd:getmodulefilenamea.obj
 0001:0005adb0       ??$__acrt_wcs_to_mbs_cp@U__crt_win32_buffer_no_resizing@@@@YAHQB_WAAV?$__crt_win32_buffer@DU__crt_win32_buffer_no_resizing@@@@I@Z 4005bdb0 f i libucrtd:getmodulefilenamea.obj
 0001:0005ade0       ??0?$__crt_win32_buffer@DU__crt_win32_buffer_no_resizing@@@@QAE@QADI@Z 4005bde0 f i libucrtd:getmodulefilenamea.obj
 0001:0005ae30       ??1?$__crt_win32_buffer@DU__crt_win32_buffer_no_resizing@@@@QAE@XZ 4005be30 f i libucrtd:getmodulefilenamea.obj
 0001:0005ae80       ??R<lambda_0fec1a7b3f42a53036604e18c2d5e07e>@@QBE@IQB_WQADI@Z 4005be80 f i libucrtd:getmodulefilenamea.obj
 0001:0005aeb0       ?__acrt_get_utf8_acp_compatibility_codepage@@YAIXZ 4005beb0 f i libucrtd:getmodulefilenamea.obj
 0001:0005af40       ?_deallocate@?$__crt_win32_buffer@DU__crt_win32_buffer_no_resizing@@@@AAEXXZ 4005bf40 f i libucrtd:getmodulefilenamea.obj
 0001:0005af90       ?allocate@?$__crt_win32_buffer@DU__crt_win32_buffer_no_resizing@@@@QAEHI@Z 4005bf90 f i libucrtd:getmodulefilenamea.obj
 0001:0005b000       ?allocate@__crt_win32_buffer_no_resizing@@SAHQAPAXIABV__crt_win32_buffer_empty_debug_info@@@Z 4005c000 f i libucrtd:getmodulefilenamea.obj
 0001:0005b020       ?capacity@?$__crt_win32_buffer@DU__crt_win32_buffer_no_resizing@@@@QBEIXZ 4005c020 f i libucrtd:getmodulefilenamea.obj
 0001:0005b040       ?data@?$__crt_win32_buffer@DU__crt_win32_buffer_no_resizing@@@@QAEPADXZ 4005c040 f i libucrtd:getmodulefilenamea.obj
 0001:0005b060       ?deallocate@__crt_win32_buffer_no_resizing@@SAXQAXABV__crt_win32_buffer_empty_debug_info@@@Z 4005c060 f i libucrtd:getmodulefilenamea.obj
 0001:0005b070       ?debug_info@?$__crt_win32_buffer@DU__crt_win32_buffer_no_resizing@@@@QBEABV__crt_win32_buffer_empty_debug_info@@XZ 4005c070 f i libucrtd:getmodulefilenamea.obj
 0001:0005b080       ?set_to_nullptr@?$__crt_win32_buffer@DU__crt_win32_buffer_no_resizing@@@@QAEXXZ 4005c080 f i libucrtd:getmodulefilenamea.obj
 0001:0005b0c0       ?size@?$__crt_win32_buffer@DU__crt_win32_buffer_no_resizing@@@@QAEXI@Z 4005c0c0 f i libucrtd:getmodulefilenamea.obj
 0001:0005b0e0       ?size@?$__crt_win32_buffer@DU__crt_win32_buffer_no_resizing@@@@QBEIXZ 4005c0e0 f i libucrtd:getmodulefilenamea.obj
 0001:0005b100       ___acrt_GetModuleFileNameA 4005c100 f   libucrtd:getmodulefilenamea.obj
 0001:0005b3e0       ??$message_box@$$TABQBDABQBDK@?$__crt_char_traits@D@@SAH$$QA$$TABQBD1$$QAK@Z 4005c3e0 f i libucrtd:crtmbox.obj
 0001:0005b410       ??$message_box@$$TABQB_WABQB_WK@?$__crt_char_traits@_W@@SAH$$QA$$TABQB_W1$$QAK@Z 4005c410 f i libucrtd:crtmbox.obj
 0001:0005b440       ??$message_box@PAUHWND__@@ABQBDABQBDABI@?$__crt_char_traits@D@@SAH$$QAPAUHWND__@@ABQBD1ABI@Z 4005c440 f i libucrtd:crtmbox.obj
 0001:0005b470       ??$message_box@PAUHWND__@@ABQB_WABQB_WABI@?$__crt_char_traits@_W@@SAH$$QAPAUHWND__@@ABQB_W1ABI@Z 4005c470 f i libucrtd:crtmbox.obj
 0001:0005b4a0       ??$output_debug_string@ABQBD@?$__crt_char_traits@D@@SAXABQBD@Z 4005c4a0 f i libucrtd:crtmbox.obj
 0001:0005b4c0       ??$output_debug_string@ABQB_W@?$__crt_char_traits@_W@@SAXABQB_W@Z 4005c4c0 f i libucrtd:crtmbox.obj
 0001:0005b4e0       ___acrt_show_narrow_message_box 4005c4e0 f   libucrtd:crtmbox.obj
 0001:0005b500       ___acrt_show_wide_message_box 4005c500 f   libucrtd:crtmbox.obj
 0001:0005b520       ___acrt_initialize_locks   4005c520 f   libucrtd:locks.obj
 0001:0005b580       ___acrt_lock               4005c580 f   libucrtd:locks.obj
 0001:0005b5a0       ___acrt_uninitialize_locks 4005c5a0 f   libucrtd:locks.obj
 0001:0005b5f0       ___acrt_unlock             4005c5f0 f   libucrtd:locks.obj
 0001:0005b610       __lock_locales             4005c610 f   libucrtd:locks.obj
 0001:0005b630       __unlock_locales           4005c630 f   libucrtd:locks.obj
 0001:0005b650       ??$?B$$A6AXH@Z@__crt_fast_encoded_nullptr_t@@QBEP6AXH@ZXZ 4005c650 f i libucrtd:signal.obj
 0001:0005b770       ??$__crt_fast_decode_pointer@P6AXH@Z@@YAP6AXH@ZQ6AXH@Z@Z 4005c770 f i libucrtd:signal.obj
 0001:0005b7a0       ??$__crt_fast_encode_pointer@P6AXH@Z@@YAP6AXH@ZQ6AXH@Z@Z 4005c7a0 f i libucrtd:signal.obj
 0001:0005ba50       ?initialize@?$dual_state_global@P6AXH@Z@__crt_state_management@@QAEXQ6AXH@Z@Z 4005ca50 f i libucrtd:signal.obj
 0001:0005bb90       ?value@?$dual_state_global@P6AXH@Z@__crt_state_management@@QAEAAP6AXH@ZXZ 4005cb90 f i libucrtd:signal.obj
 0001:0005bbb0       ___acrt_get_sigabrt_handler 4005cbb0 f   libucrtd:signal.obj
 0001:0005bbd0       ___acrt_initialize_signal_handlers 4005cbd0 f   libucrtd:signal.obj
 0001:0005bc10       ___fpecode                 4005cc10 f   libucrtd:signal.obj
 0001:0005bc20       ___pxcptinfoptrs           4005cc20 f   libucrtd:signal.obj
 0001:0005bc30       _raise                     4005cc30 f   libucrtd:signal.obj
 0001:0005c010       _signal                    4005d010 f   libucrtd:signal.obj
 0001:0005c2a0       __CrtGetDebugFillThreshold 4005d2a0 f   libucrtd:debug_fill_threshold.obj
 0001:0005c2b0       __CrtSetDebugFillThreshold 4005d2b0 f   libucrtd:debug_fill_threshold.obj
 0001:0005c2d0       ?value@?$dual_state_global@PAU__crt_locale_data@@@__crt_state_management@@QAEAAPAU__crt_locale_data@@XZ 4005d2d0 f i libucrtd:locale_update.obj
 0001:0005c2f0       ?value@?$dual_state_global@PAU__crt_multibyte_data@@@__crt_state_management@@QAEAAPAU__crt_multibyte_data@@XZ 4005d2f0 f i libucrtd:locale_update.obj
 0001:0005c310       ?value_explicit@?$dual_state_global@PAU__crt_locale_data@@@__crt_state_management@@QAEAAPAU__crt_locale_data@@I@Z 4005d310 f i libucrtd:locale_update.obj
 0001:0005c330       ?value_explicit@?$dual_state_global@PAU__crt_multibyte_data@@@__crt_state_management@@QAEAAPAU__crt_multibyte_data@@I@Z 4005d330 f i libucrtd:locale_update.obj
 0001:0005c350       ___acrt_should_sync_with_global_locale 4005d350 f i libucrtd:locale_update.obj
 0001:0005c380       ___acrt_update_locale_info 4005d380 f   libucrtd:locale_update.obj
 0001:0005c3c0       ___acrt_update_locale_info_explicit 4005d3c0 f   libucrtd:locale_update.obj
 0001:0005c400       ___acrt_update_multibyte_info 4005d400 f   libucrtd:locale_update.obj
 0001:0005c440       ___acrt_update_multibyte_info_explicit 4005d440 f   libucrtd:locale_update.obj
 0001:0005c480       ?__acrt_fp_classify@@YA?AW4__acrt_fp_class@@ABN@Z 4005d480 f i libucrtd:cvt.obj
 0001:0005c5a0       ?__acrt_fp_is_negative@@YA_NABN@Z 4005d5a0 f i libucrtd:cvt.obj
 0001:0005d7b0       ?strrchr@@YAPADQADH@Z      4005e7b0 f i libucrtd:cvt.obj
 0001:0005d7d0       ___acrt_fp_format          4005e7d0 f   libucrtd:cvt.obj
 0001:0005dc50       ?value_or@?$cached@H@__crt_cached_ptd_host@@QBEHH@Z 4005ec50 f i libucrtd:wctomb.obj
 0001:0005dc80       __wctomb_internal          4005ec80 f   libucrtd:wctomb.obj
 0001:0005e000       __wctomb_l                 4005f000 f   libucrtd:wctomb.obj
 0001:0005e080       __wctomb_s_l               4005f080 f   libucrtd:wctomb.obj
 0001:0005e0d0       _wctomb                    4005f0d0 f   libucrtd:wctomb.obj
 0001:0005e140       _wctomb_s                  4005f140 f   libucrtd:wctomb.obj
 0001:0005e190       __isleadbyte_fast_internal 4005f190 f i libucrtd:mbtowc.obj
 0001:0005e1b0       __mbtowc_internal          4005f1b0 f   libucrtd:mbtowc.obj
 0001:0005e440       __mbtowc_l                 4005f440 f   libucrtd:mbtowc.obj
 0001:0005e480       _mbtowc                    4005f480 f   libucrtd:mbtowc.obj
 0001:0005e4c0       ?__mblen_utf8@__crt_mbstring@@YAHPBD@Z 4005f4c0 f   libucrtd:mbrtoc32.obj
 0001:0005e560       ?__mbrtoc32_utf8@__crt_mbstring@@YAIPA_UPBDIPAU_Mbstatet@@AAV__crt_cached_ptd_host@@@Z 4005f560 f   libucrtd:mbrtoc32.obj
 0001:0005e820       _mbrtoc32                  4005f820 f   libucrtd:mbrtoc32.obj
 0001:0005e860       ?__c16rtomb_utf8@__crt_mbstring@@YAIPAD_SPAU_Mbstatet@@AAV__crt_cached_ptd_host@@@Z 4005f860 f   libucrtd:c16rtomb.obj
 0001:0005ea70       _c16rtomb                  4005fa70 f   libucrtd:c16rtomb.obj
 0001:0005eb20       ?__mbrtowc_utf8@__crt_mbstring@@YAIPA_WPBDIPAU_Mbstatet@@AAV__crt_cached_ptd_host@@@Z 4005fb20 f   libucrtd:mbrtowc.obj
 0001:0005eb80       ?__mbsrtowcs_utf8@__crt_mbstring@@YAIPA_WPAPBDIPAU_Mbstatet@@AAV__crt_cached_ptd_host@@@Z 4005fb80 f   libucrtd:mbrtowc.obj
 0001:0005f730       _btowc                     40060730 f   libucrtd:mbrtowc.obj
 0001:0005f7c0       _mbrlen                    400607c0 f   libucrtd:mbrtowc.obj
 0001:0005f830       _mbrtowc                   40060830 f   libucrtd:mbrtowc.obj
 0001:0005f8d0       _mbsrtowcs                 400608d0 f   libucrtd:mbrtowc.obj
 0001:0005f910       _mbsrtowcs_s               40060910 f   libucrtd:mbrtowc.obj
 0001:0005f960       ?lowio_handle@__crt_stdio_stream@@QBEHXZ 40060960 f i libucrtd:fileno.obj
 0001:0005f980       __fileno                   40060980 f   libucrtd:fileno.obj
 0001:0005fa20       ??$?RPAU__crt_stdio_stream_data@@@__crt_internal_free_policy@@QBEXQBQAU__crt_stdio_stream_data@@@Z 40060a20 f i libucrtd:_file.obj
 0001:0005fa40       ??0?$__crt_unique_heap_ptr@PAU__crt_stdio_stream_data@@U__crt_internal_free_policy@@@@QAE@QAPAU__crt_stdio_stream_data@@@Z 40060a40 f i libucrtd:_file.obj
 0001:0005fa60       ??1?$__crt_unique_heap_ptr@PAU__crt_stdio_stream_data@@U__crt_internal_free_policy@@@@QAE@XZ 40060a60 f i libucrtd:_file.obj
 0001:0005fa80       ?detach@?$__crt_unique_heap_ptr@PAU__crt_stdio_stream_data@@U__crt_internal_free_policy@@@@QAEPAPAU__crt_stdio_stream_data@@XZ 40060a80 f i libucrtd:_file.obj
 0001:0005fab0       ?release@?$__crt_unique_heap_ptr@PAU__crt_stdio_stream_data@@U__crt_internal_free_policy@@@@QAEXXZ 40060ab0 f i libucrtd:_file.obj
 0001:0005fae0       ___acrt_initialize_stdio   40060ae0 f   libucrtd:_file.obj
 0001:0005fc50       ___acrt_iob_func           40060c50 f   libucrtd:_file.obj
 0001:0005fc60       ___acrt_uninitialize_stdio 40060c60 f   libucrtd:_file.obj
 0001:0005fce0       __get_stream_buffer_pointers 40060ce0 f   libucrtd:_file.obj
 0001:0005fdc0       __lock_file                40060dc0 f   libucrtd:_file.obj
 0001:0005fdf0       __unlock_file              40060df0 f   libucrtd:_file.obj
 0001:0005fe20       __get_printf_count_output  40060e20 f   libucrtd:printf_count_output.obj
 0001:0005fe50       __set_printf_count_output  40060e50 f   libucrtd:printf_count_output.obj
 0001:00060050       __fputwc_nolock            40061050 f   libucrtd:fputwc.obj
 0001:00060090       __fputwc_nolock_internal   40061090 f   libucrtd:fputwc.obj
 0001:000602a0       __fputwchar                400612a0 f   libucrtd:fputwc.obj
 0001:000602c0       __putwc_nolock             400612c0 f   libucrtd:fputwc.obj
 0001:000602e0       _fputwc                    400612e0 f   libucrtd:fputwc.obj
 0001:00060320       _putwc                     40061320 f   libucrtd:fputwc.obj
 0001:00060340       _putwchar                  40061340 f   libucrtd:fputwc.obj
 0001:000605c0       __fputc_nolock             400615c0 f   libucrtd:fputc.obj
 0001:00060600       __fputc_nolock_internal    40061600 f   libucrtd:fputc.obj
 0001:00060690       __fputchar                 40061690 f   libucrtd:fputc.obj
 0001:000606b0       __putc_nolock              400616b0 f   libucrtd:fputc.obj
 0001:000606d0       _fputc                     400616d0 f   libucrtd:fputc.obj
 0001:00060710       _putc                      40061710 f   libucrtd:fputc.obj
 0001:00060730       _putchar                   40061730 f   libucrtd:fputc.obj
 0001:00060750       ?has_any_buffer@__crt_stdio_stream@@QBE_NXZ 40061750 f i libucrtd:_sftbuf.obj
 0001:00060770       ?has_any_of@__crt_stdio_stream@@QBE_NJ@Z 40061770 f i libucrtd:_sftbuf.obj
 0001:000607b0       ?has_temporary_buffer@__crt_stdio_stream@@QBE_NXZ 400617b0 f i libucrtd:_sftbuf.obj
 0001:000607d0       ?set_flags@__crt_stdio_stream@@QBE_NJ@Z 400617d0 f i libucrtd:_sftbuf.obj
 0001:00060820       ?unset_flags@__crt_stdio_stream@@QBE_NJ@Z 40061820 f i libucrtd:_sftbuf.obj
 0001:00060870       ___acrt_should_use_temporary_buffer 40061870 f   libucrtd:_sftbuf.obj
 0001:000608c0       ___acrt_stdio_begin_temporary_buffering_nolock 400618c0 f   libucrtd:_sftbuf.obj
 0001:00060a90       ___acrt_stdio_end_temporary_buffering_nolock 40061a90 f   libucrtd:_sftbuf.obj
 0001:00060b10       ??$?RU__acrt_ptd@@@__crt_internal_free_policy@@QBEXQBU__acrt_ptd@@@Z 40061b10 f i libucrtd:per_thread_data.obj
 0001:00060ef0       ??$internal_get_ptd_head@P6GPAXK@Z@@YAPAU__acrt_ptd@@P6GPAXK@Z@Z 40061ef0 f i libucrtd:per_thread_data.obj
 0001:00060f30       ??$try_get_ptd_head@P6GPAXK@Z@@YAPAU__acrt_ptd@@P6GPAXK@Z@Z 40061f30 f i libucrtd:per_thread_data.obj
 0001:00061140       ??0?$__crt_unique_heap_ptr@U__acrt_ptd@@U__crt_internal_free_policy@@@@QAE@QAU__acrt_ptd@@@Z 40062140 f i libucrtd:per_thread_data.obj
 0001:00061160       ??1?$__crt_unique_heap_ptr@U__acrt_ptd@@U__crt_internal_free_policy@@@@QAE@XZ 40062160 f i libucrtd:per_thread_data.obj
 0001:00061180       ??B?$__crt_unique_heap_ptr@U__acrt_ptd@@U__crt_internal_free_policy@@@@QBE_NXZ 40062180 f i libucrtd:per_thread_data.obj
 0001:00061490       ?dangerous_get_state_array@?$dual_state_global@PAU__crt_locale_data@@@__crt_state_management@@QAEPAPAU__crt_locale_data@@XZ 40062490 f i libucrtd:per_thread_data.obj
 0001:00061630       ?detach@?$__crt_unique_heap_ptr@U__acrt_ptd@@U__crt_internal_free_policy@@@@QAEPAU__acrt_ptd@@XZ 40062630 f i libucrtd:per_thread_data.obj
 0001:00061660       ?get@?$__crt_unique_heap_ptr@U__acrt_ptd@@U__crt_internal_free_policy@@@@QBEPAU__acrt_ptd@@XZ 40062660 f i libucrtd:per_thread_data.obj
 0001:00061680       ?get_current_state_index2@__crt_state_management@@YAIXZ 40062680 f i libucrtd:per_thread_data.obj
 0001:00061690       ?internal_get_ptd_head_slow@@YAPAU__acrt_ptd@@XZ 40062690 f   libucrtd:per_thread_data.obj
 0001:00061860       ?is_valid@?$__crt_unique_heap_ptr@U__acrt_ptd@@U__crt_internal_free_policy@@@@QBE_NXZ 40062860 f i libucrtd:per_thread_data.obj
 0001:00061890       ?release@?$__crt_unique_heap_ptr@U__acrt_ptd@@U__crt_internal_free_policy@@@@QAEXXZ 40062890 f i libucrtd:per_thread_data.obj
 0001:00061940       ___acrt_freeptd            40062940 f   libucrtd:per_thread_data.obj
 0001:00061980       ___acrt_getptd             40062980 f   libucrtd:per_thread_data.obj
 0001:000619a0       ___acrt_getptd_head        400629a0 f   libucrtd:per_thread_data.obj
 0001:000619d0       ___acrt_getptd_noexit      400629d0 f   libucrtd:per_thread_data.obj
 0001:00061a00       ___acrt_getptd_noexit_explicit 40062a00 f   libucrtd:per_thread_data.obj
 0001:00061a20       ___acrt_initialize_ptd     40062a20 f   libucrtd:per_thread_data.obj
 0001:00061a70       ___acrt_uninitialize_ptd   40062a70 f   libucrtd:per_thread_data.obj
 0001:00061aa0       ___threadhandle            40062aa0 f   libucrtd:per_thread_data.obj
 0001:00061ab0       ___threadid                40062ab0 f   libucrtd:per_thread_data.obj
 0001:00061ad0       ??$?RU__crt_locale_data@@@__crt_internal_free_policy@@QBEXQBU__crt_locale_data@@@Z 40062ad0 f i libucrtd:wsetlocale.obj
 0001:00061af0       ??$?RU__crt_locale_pointers@@@__crt_internal_free_policy@@QBEXQBU__crt_locale_pointers@@@Z 40062af0 f i libucrtd:wsetlocale.obj
 0001:00061b10       ??$?RU__crt_multibyte_data@@@__crt_internal_free_policy@@QBEXQBU__crt_multibyte_data@@@Z 40062b10 f i libucrtd:wsetlocale.obj
 0001:000621f0       ??0?$__crt_unique_heap_ptr@U__crt_locale_data@@U__crt_internal_free_policy@@@@QAE@QAU__crt_locale_data@@@Z 400631f0 f i libucrtd:wsetlocale.obj
 0001:00062210       ??0?$__crt_unique_heap_ptr@U__crt_locale_pointers@@U__crt_internal_free_policy@@@@QAE@QAU__crt_locale_pointers@@@Z 40063210 f i libucrtd:wsetlocale.obj
 0001:00062230       ??0?$__crt_unique_heap_ptr@U__crt_multibyte_data@@U__crt_internal_free_policy@@@@QAE@QAU__crt_multibyte_data@@@Z 40063230 f i libucrtd:wsetlocale.obj
 0001:00062250       ??0_expandlocale_locale_name_cache@@QAE@QA_WIQAU__crt_qualified_locale_data@@@Z 40063250 f i libucrtd:wsetlocale.obj
 0001:000622c0       ??1?$__crt_unique_heap_ptr@U__crt_locale_data@@U__crt_internal_free_policy@@@@QAE@XZ 400632c0 f i libucrtd:wsetlocale.obj
 0001:000622e0       ??1?$__crt_unique_heap_ptr@U__crt_locale_pointers@@U__crt_internal_free_policy@@@@QAE@XZ 400632e0 f i libucrtd:wsetlocale.obj
 0001:00062300       ??1?$__crt_unique_heap_ptr@U__crt_multibyte_data@@U__crt_internal_free_policy@@@@QAE@XZ 40063300 f i libucrtd:wsetlocale.obj
 0001:00062320       ??1_expandlocale_locale_name_cache@@QAE@XZ 40063320 f i libucrtd:wsetlocale.obj
 0001:00062380       ??B?$__crt_unique_heap_ptr@U__crt_locale_data@@U__crt_internal_free_policy@@@@QBE_NXZ 40063380 f i libucrtd:wsetlocale.obj
 0001:000623a0       ??B?$__crt_unique_heap_ptr@U__crt_locale_pointers@@U__crt_internal_free_policy@@@@QBE_NXZ 400633a0 f i libucrtd:wsetlocale.obj
 0001:000623c0       ??B?$__crt_unique_heap_ptr@U__crt_multibyte_data@@U__crt_internal_free_policy@@@@QBE_NXZ 400633c0 f i libucrtd:wsetlocale.obj
 0001:000627b0       ?commit_locale_name@_expandlocale_locale_name_cache@@QAEXQB_WI@Z 400637b0 f i libucrtd:wsetlocale.obj
 0001:00062810       ?commit_locale_name_cache_already_updated@_expandlocale_locale_name_cache@@QAEXQB_WI@Z 40063810 f i libucrtd:wsetlocale.obj
 0001:00062870       ?detach@?$__crt_unique_heap_ptr@U__crt_locale_data@@U__crt_internal_free_policy@@@@QAEPAU__crt_locale_data@@XZ 40063870 f i libucrtd:wsetlocale.obj
 0001:000628a0       ?detach@?$__crt_unique_heap_ptr@U__crt_locale_pointers@@U__crt_internal_free_policy@@@@QAEPAU__crt_locale_pointers@@XZ 400638a0 f i libucrtd:wsetlocale.obj
 0001:000628d0       ?detach@?$__crt_unique_heap_ptr@U__crt_multibyte_data@@U__crt_internal_free_policy@@@@QAEPAU__crt_multibyte_data@@XZ 400638d0 f i libucrtd:wsetlocale.obj
 0001:00062900       ?get@?$__crt_unique_heap_ptr@U__crt_locale_data@@U__crt_internal_free_policy@@@@QBEPAU__crt_locale_data@@XZ 40063900 f i libucrtd:wsetlocale.obj
 0001:00062920       ?get@?$__crt_unique_heap_ptr@U__crt_locale_pointers@@U__crt_internal_free_policy@@@@QBEPAU__crt_locale_pointers@@XZ 40063920 f i libucrtd:wsetlocale.obj
 0001:00062940       ?get@?$__crt_unique_heap_ptr@U__crt_multibyte_data@@U__crt_internal_free_policy@@@@QBEPAU__crt_multibyte_data@@XZ 40063940 f i libucrtd:wsetlocale.obj
 0001:00062960       ?is_valid@?$__crt_unique_heap_ptr@U__crt_locale_data@@U__crt_internal_free_policy@@@@QBE_NXZ 40063960 f i libucrtd:wsetlocale.obj
 0001:00062990       ?is_valid@?$__crt_unique_heap_ptr@U__crt_locale_pointers@@U__crt_internal_free_policy@@@@QBE_NXZ 40063990 f i libucrtd:wsetlocale.obj
 0001:000629c0       ?is_valid@?$__crt_unique_heap_ptr@U__crt_multibyte_data@@U__crt_internal_free_policy@@@@QBE_NXZ 400639c0 f i libucrtd:wsetlocale.obj
 0001:000629f0       ?release@?$__crt_unique_heap_ptr@U__crt_locale_data@@U__crt_internal_free_policy@@@@QAEXXZ 400639f0 f i libucrtd:wsetlocale.obj
 0001:00062a20       ?release@?$__crt_unique_heap_ptr@U__crt_locale_pointers@@U__crt_internal_free_policy@@@@QAEXXZ 40063a20 f i libucrtd:wsetlocale.obj
 0001:00062a50       ?release@?$__crt_unique_heap_ptr@U__crt_multibyte_data@@U__crt_internal_free_policy@@@@QAEXXZ 40063a50 f i libucrtd:wsetlocale.obj
 0001:00062a80       ___acrt_copy_locale_name   40063a80 f   libucrtd:wsetlocale.obj
 0001:00062b20       ___acrt_set_locale_changed 40063b20 f   libucrtd:wsetlocale.obj
 0001:00062b40       ___acrt_uninitialize_locale 40063b40 f   libucrtd:wsetlocale.obj
 0001:00062b60       ___ascii_tolower           40063b60 f i libucrtd:wsetlocale.obj
 0001:00062b80       ___ascii_towlower          40063b80 f i libucrtd:wsetlocale.obj
 0001:00062ba0       ___lc_lctowcs              40063ba0 f   libucrtd:wsetlocale.obj
 0001:00062c50       ___lc_wcstolc              40063c50 f   libucrtd:wsetlocale.obj
 0001:00062e80       __configthreadlocale       40063e80 f   libucrtd:wsetlocale.obj
 0001:00063000       __create_locale            40064000 f   libucrtd:wsetlocale.obj
 0001:00063640       __free_locale              40064640 f   libucrtd:wsetlocale.obj
 0001:00063770       __get_current_locale       40064770 f   libucrtd:wsetlocale.obj
 0001:00063850       __wcreate_locale           40064850 f   libucrtd:wsetlocale.obj
 0001:00063aa0       __wcscats                  40064aa0 f   libucrtd:wsetlocale.obj
 0001:00063b20       __wsetlocale               40064b20 f   libucrtd:wsetlocale.obj
 0001:000652a0       ___p___mb_cur_max          400662a0 f   libucrtd:nlsdata.obj
 0001:000655a0       ___acrt_initialize_lowio   400665a0 f   libucrtd:ioinit.obj
 0001:00065640       ___acrt_uninitialize_lowio 40066640 f   libucrtd:ioinit.obj
 0001:000656a0       ___acrt_app_verifier_enabled 400666a0 f   libucrtd:peb_access.obj
 0001:000656e0       ___acrt_is_secure_process  400666e0 f   libucrtd:peb_access.obj
 0001:00065a30       ___acrt_get_begin_thread_init_policy 40066a30 f   libucrtd:win_policies.obj
 0001:00065a50       ___acrt_get_developer_information_policy 40066a50 f   libucrtd:win_policies.obj
 0001:00065a70       ___acrt_get_process_end_policy 40066a70 f   libucrtd:win_policies.obj
 0001:00065a90       ___acrt_get_windowing_model_policy 40066a90 f   libucrtd:win_policies.obj
 0001:00065af0       ??$__acrt_convert_wcs_mbs_cp@D_WV<lambda_62f6974d9771e494a5ea317cc32e971c>@@U__crt_win32_buffer_internal_dynamic_resizing@@@@YAHQBDAAV?$__crt_win32_buffer@_WU__crt_win32_buffer_internal_dynamic_resizing@@@@ABV<lambda_62f6974d9771e494a5ea317cc32e971c>@@I@Z 40066af0 f i libucrtd:argv_wildcards.obj
 0001:00065c40       ??$__acrt_convert_wcs_mbs_cp@_WDV<lambda_28bda7af82a03b66c1cb3803a755f95d>@@U__crt_win32_buffer_internal_dynamic_resizing@@@@YAHQB_WAAV?$__crt_win32_buffer@DU__crt_win32_buffer_internal_dynamic_resizing@@@@ABV<lambda_28bda7af82a03b66c1cb3803a755f95d>@@I@Z 40066c40 f i libucrtd:argv_wildcards.obj
 0001:00065d80       ??$__acrt_mbs_to_wcs_cp@U__crt_win32_buffer_internal_dynamic_resizing@@@@YAHQBDAAV?$__crt_win32_buffer@_WU__crt_win32_buffer_internal_dynamic_resizing@@@@I@Z 40066d80 f i libucrtd:argv_wildcards.obj
 0001:00065db0       ??$__acrt_wcs_to_mbs_cp@U__crt_win32_buffer_internal_dynamic_resizing@@@@YAHQB_WAAV?$__crt_win32_buffer@DU__crt_win32_buffer_internal_dynamic_resizing@@@@I@Z 40066db0 f i libucrtd:argv_wildcards.obj
 0001:00066d80       ??$tcsncpy_s@AAPADIAAPADABI@?$__crt_char_traits@D@@SAHAAPAD$$QAI0ABI@Z 40067d80 f i libucrtd:argv_wildcards.obj
 0001:00066db0       ??$tcsncpy_s@AAPA_WIAAPA_WABI@?$__crt_char_traits@_W@@SAHAAPA_W$$QAI0ABI@Z 40067db0 f i libucrtd:argv_wildcards.obj
 0001:00066de0       ??$tcsncpy_s@PADABIABQBDABI@?$__crt_char_traits@D@@SAH$$QAPADABIABQBD1@Z 40067de0 f i libucrtd:argv_wildcards.obj
 0001:00066e10       ??$tcsncpy_s@PADIABQBDABI@?$__crt_char_traits@D@@SAH$$QAPAD$$QAIABQBDABI@Z 40067e10 f i libucrtd:argv_wildcards.obj
 0001:00066e40       ??$tcsncpy_s@PA_WABIABQB_WABI@?$__crt_char_traits@_W@@SAH$$QAPA_WABIABQB_W1@Z 40067e40 f i libucrtd:argv_wildcards.obj
 0001:00066e70       ??$tcsncpy_s@PA_WIABQB_WABI@?$__crt_char_traits@_W@@SAH$$QAPA_W$$QAIABQB_WABI@Z 40067e70 f i libucrtd:argv_wildcards.obj
 0001:00066ea0       ??$tcspbrk@AAPADAAY02$$CBD@?$__crt_char_traits@D@@SAPADAAPADAAY02$$CBD@Z 40067ea0 f i libucrtd:argv_wildcards.obj
 0001:00066ef0       ??$tcspbrk@AAPA_WAAY02$$CB_W@?$__crt_char_traits@_W@@SAPA_WAAPA_WAAY02$$CB_W@Z 40067ef0 f i libucrtd:argv_wildcards.obj
 0001:00066f40       ??0?$__crt_unique_handle_t@U__crt_findfile_traits@@@@QAE@QAX@Z 40067f40 f i libucrtd:argv_wildcards.obj
 0001:00066f60       ??0?$__crt_win32_buffer@DU__crt_win32_buffer_internal_dynamic_resizing@@@@QAE@XZ 40067f60 f i libucrtd:argv_wildcards.obj
 0001:00066fb0       ??0?$__crt_win32_buffer@_WU__crt_win32_buffer_internal_dynamic_resizing@@@@QAE@XZ 40067fb0 f i libucrtd:argv_wildcards.obj
 0001:00067060       ??1?$__crt_unique_handle_t@U__crt_findfile_traits@@@@QAE@XZ 40068060 f i libucrtd:argv_wildcards.obj
 0001:00067080       ??1?$__crt_win32_buffer@DU__crt_win32_buffer_internal_dynamic_resizing@@@@QAE@XZ 40068080 f i libucrtd:argv_wildcards.obj
 0001:000670d0       ??1?$__crt_win32_buffer@_WU__crt_win32_buffer_internal_dynamic_resizing@@@@QAE@XZ 400680d0 f i libucrtd:argv_wildcards.obj
 0001:00067200       ??R<lambda_28bda7af82a03b66c1cb3803a755f95d>@@QBE@IQB_WQADI@Z 40068200 f i libucrtd:argv_wildcards.obj
 0001:00067270       ??R<lambda_62f6974d9771e494a5ea317cc32e971c>@@QBE@IQBDQA_WI@Z 40068270 f i libucrtd:argv_wildcards.obj
 0001:00067340       ?_deallocate@?$__crt_win32_buffer@DU__crt_win32_buffer_internal_dynamic_resizing@@@@AAEXXZ 40068340 f i libucrtd:argv_wildcards.obj
 0001:00067390       ?_deallocate@?$__crt_win32_buffer@_WU__crt_win32_buffer_internal_dynamic_resizing@@@@AAEXXZ 40068390 f i libucrtd:argv_wildcards.obj
 0001:000673e0       ?allocate@?$__crt_win32_buffer@DU__crt_win32_buffer_internal_dynamic_resizing@@@@QAEHI@Z 400683e0 f i libucrtd:argv_wildcards.obj
 0001:00067450       ?allocate@?$__crt_win32_buffer@_WU__crt_win32_buffer_internal_dynamic_resizing@@@@QAEHI@Z 40068450 f i libucrtd:argv_wildcards.obj
 0001:000674c0       ?allocate@__crt_win32_buffer_internal_dynamic_resizing@@SAHQAPAXIABV__crt_win32_buffer_empty_debug_info@@@Z 400684c0 f i libucrtd:argv_wildcards.obj
 0001:00067600       ?capacity@?$__crt_win32_buffer@DU__crt_win32_buffer_internal_dynamic_resizing@@@@QBEIXZ 40068600 f i libucrtd:argv_wildcards.obj
 0001:00067620       ?capacity@?$__crt_win32_buffer@_WU__crt_win32_buffer_internal_dynamic_resizing@@@@QBEIXZ 40068620 f i libucrtd:argv_wildcards.obj
 0001:00067640       ?close@?$__crt_unique_handle_t@U__crt_findfile_traits@@@@QAEXXZ 40068640 f i libucrtd:argv_wildcards.obj
 0001:00067680       ?close@__crt_findfile_traits@@SA_NPAX@Z 40068680 f i libucrtd:argv_wildcards.obj
 0001:000676b0       ?data@?$__crt_win32_buffer@DU__crt_win32_buffer_internal_dynamic_resizing@@@@QAEPADXZ 400686b0 f i libucrtd:argv_wildcards.obj
 0001:000676d0       ?data@?$__crt_win32_buffer@_WU__crt_win32_buffer_internal_dynamic_resizing@@@@QAEPA_WXZ 400686d0 f i libucrtd:argv_wildcards.obj
 0001:000676f0       ?deallocate@__crt_win32_buffer_internal_dynamic_resizing@@SAXQAXABV__crt_win32_buffer_empty_debug_info@@@Z 400686f0 f i libucrtd:argv_wildcards.obj
 0001:00067710       ?debug_info@?$__crt_win32_buffer@DU__crt_win32_buffer_internal_dynamic_resizing@@@@QBEABV__crt_win32_buffer_empty_debug_info@@XZ 40068710 f i libucrtd:argv_wildcards.obj
 0001:00067720       ?debug_info@?$__crt_win32_buffer@_WU__crt_win32_buffer_internal_dynamic_resizing@@@@QBEABV__crt_win32_buffer_empty_debug_info@@XZ 40068720 f i libucrtd:argv_wildcards.obj
 0001:00067a30       ?get@?$__crt_unique_handle_t@U__crt_findfile_traits@@@@QBEPAXXZ 40068a30 f i libucrtd:argv_wildcards.obj
 0001:00067aa0       ?get_invalid_value@__crt_findfile_traits@@SAPAXXZ 40068aa0 f i libucrtd:argv_wildcards.obj
 0001:00067b30       ?set_to_nullptr@?$__crt_win32_buffer@DU__crt_win32_buffer_internal_dynamic_resizing@@@@QAEXXZ 40068b30 f i libucrtd:argv_wildcards.obj
 0001:00067b70       ?set_to_nullptr@?$__crt_win32_buffer@_WU__crt_win32_buffer_internal_dynamic_resizing@@@@QAEXXZ 40068b70 f i libucrtd:argv_wildcards.obj
 0001:00067bb0       ?size@?$__crt_win32_buffer@DU__crt_win32_buffer_internal_dynamic_resizing@@@@QAEXI@Z 40068bb0 f i libucrtd:argv_wildcards.obj
 0001:00067bd0       ?size@?$__crt_win32_buffer@_WU__crt_win32_buffer_internal_dynamic_resizing@@@@QAEXI@Z 40068bd0 f i libucrtd:argv_wildcards.obj
 0001:00067c30       ?strpbrk@@YAPADQADQBD@Z    40068c30 f i libucrtd:argv_wildcards.obj
 0001:00067c50       ?wcspbrk@@YAPA_WPA_WPB_W@Z 40068c50 f i libucrtd:argv_wildcards.obj
 0001:00067c70       ___acrt_expand_narrow_argv_wildcards 40068c70 f   libucrtd:argv_wildcards.obj
 0001:00067c90       ___acrt_expand_wide_argv_wildcards 40068c90 f   libucrtd:argv_wildcards.obj
 0001:00067da0       ??$initialize_from_array@$$BY10BAA@E@?$dual_state_global@PAE@__crt_state_management@@QAAXAAY10BAA@E@Z 40068da0 f i libucrtd:mbctype.obj
 0001:00067df0       ??$initialize_from_array@$$BY10BAB@E@?$dual_state_global@PAE@__crt_state_management@@QAAXAAY10BAB@E@Z 40068df0 f i libucrtd:mbctype.obj
 0001:00068070       ?dangerous_get_state_array@?$dual_state_global@PAE@__crt_state_management@@QAEPAPAEXZ 40069070 f i libucrtd:mbctype.obj
 0001:00068080       ?dangerous_get_state_array@?$dual_state_global@PAU__crt_multibyte_data@@@__crt_state_management@@QAEPAPAU__crt_multibyte_data@@XZ 40069080 f i libucrtd:mbctype.obj
 0001:00068150       ?initialize@?$dual_state_global@PAU__crt_multibyte_data@@@__crt_state_management@@QAEXQAU__crt_multibyte_data@@@Z 40069150 f i libucrtd:mbctype.obj
 0001:00068900       ?value@?$dual_state_global@PAE@__crt_state_management@@QAEAAPAEXZ 40069900 f i libucrtd:mbctype.obj
 0001:00068920       ___acrt_initialize_multibyte 40069920 f   libucrtd:mbctype.obj
 0001:000689d0       ___acrt_update_thread_multibyte_data 400699d0 f   libucrtd:mbctype.obj
 0001:00068a10       ___p__mbcasemap            40069a10 f   libucrtd:mbctype.obj
 0001:00068a30       ___p__mbctype              40069a30 f   libucrtd:mbctype.obj
 0001:00068a50       __getmbcp                  40069a50 f   libucrtd:mbctype.obj
 0001:00068ac0       __setmbcp                  40069ac0 f   libucrtd:mbctype.obj
 0001:00068b00       __setmbcp_nolock           40069b00 f   libucrtd:mbctype.obj
 0001:000690b0       __ismbbalnum               4006a0b0 f   libucrtd:ismbbyte.obj
 0001:000690d0       __ismbbalnum_l             4006a0d0 f   libucrtd:ismbbyte.obj
 0001:000690f0       __ismbbalpha               4006a0f0 f   libucrtd:ismbbyte.obj
 0001:00069110       __ismbbalpha_l             4006a110 f   libucrtd:ismbbyte.obj
 0001:00069130       __ismbbblank               4006a130 f   libucrtd:ismbbyte.obj
 0001:00069170       __ismbbblank_l             4006a170 f   libucrtd:ismbbyte.obj
 0001:000691b0       __ismbbgraph               4006a1b0 f   libucrtd:ismbbyte.obj
 0001:000691d0       __ismbbgraph_l             4006a1d0 f   libucrtd:ismbbyte.obj
 0001:000691f0       __ismbbkalnum              4006a1f0 f   libucrtd:ismbbyte.obj
 0001:00069210       __ismbbkalnum_l            4006a210 f   libucrtd:ismbbyte.obj
 0001:00069230       __ismbbkana                4006a230 f   libucrtd:ismbbyte.obj
 0001:00069250       __ismbbkana_l              4006a250 f   libucrtd:ismbbyte.obj
 0001:000692c0       __ismbbkprint              4006a2c0 f   libucrtd:ismbbyte.obj
 0001:000692e0       __ismbbkprint_l            4006a2e0 f   libucrtd:ismbbyte.obj
 0001:00069300       __ismbbkpunct              4006a300 f   libucrtd:ismbbyte.obj
 0001:00069320       __ismbbkpunct_l            4006a320 f   libucrtd:ismbbyte.obj
 0001:00069340       __ismbblead                4006a340 f   libucrtd:ismbbyte.obj
 0001:00069360       __ismbblead_l              4006a360 f   libucrtd:ismbbyte.obj
 0001:00069380       __ismbbprint               4006a380 f   libucrtd:ismbbyte.obj
 0001:000693a0       __ismbbprint_l             4006a3a0 f   libucrtd:ismbbyte.obj
 0001:000693c0       __ismbbpunct               4006a3c0 f   libucrtd:ismbbyte.obj
 0001:000693e0       __ismbbpunct_l             4006a3e0 f   libucrtd:ismbbyte.obj
 0001:00069400       __ismbbtrail               4006a400 f   libucrtd:ismbbyte.obj
 0001:00069420       __ismbbtrail_l             4006a420 f   libucrtd:ismbbyte.obj
 0001:00069440       ___acrt_initialize_command_line 4006a440 f   libucrtd:argv_data.obj
 0001:00069460       ___acrt_uninitialize_command_line 4006a460 f   libucrtd:argv_data.obj
 0001:00069470       ___p___argc                4006a470 f   libucrtd:argv_data.obj
 0001:00069480       ___p___argv                4006a480 f   libucrtd:argv_data.obj
 0001:00069490       ___p___wargv               4006a490 f   libucrtd:argv_data.obj
 0001:000694a0       ___p__acmdln               4006a4a0 f   libucrtd:argv_data.obj
 0001:000694b0       ___p__pgmptr               4006a4b0 f   libucrtd:argv_data.obj
 0001:000694c0       ___p__wcmdln               4006a4c0 f   libucrtd:argv_data.obj
 0001:000694d0       ___p__wpgmptr              4006a4d0 f   libucrtd:argv_data.obj
 0001:000694e0       __get_pgmptr               4006a4e0 f   libucrtd:argv_data.obj
 0001:000695f0       __get_wpgmptr              4006a5f0 f   libucrtd:argv_data.obj
 0001:00069800       ___acrt_MultiByteToWideChar 4006a800 f   libucrtd:multibytetowidechar.obj
 0001:00069950       ___acrt_WideCharToMultiByte 4006a950 f   libucrtd:widechartomultibyte.obj
 0001:00069b70       ___dcrt_get_narrow_environment_from_os 4006ab70 f   libucrtd:get_environment_from_os.obj
 0001:00069ce0       ___dcrt_get_wide_environment_from_os 4006ace0 f   libucrtd:get_environment_from_os.obj
 0001:0006ae90       ??$get_or_create_environment_nolock@$$V@?$__crt_char_traits@D@@SAPAPADXZ 4006be90 f i libucrtd:setenv.obj
 0001:0006aea0       ??$get_or_create_environment_nolock@$$V@?$__crt_char_traits@_W@@SAPAPA_WXZ 4006bea0 f i libucrtd:setenv.obj
 0001:0006aeb0       ??$set_environment_variable@ABQADQAD@?$__crt_char_traits@D@@SAHABQAD$$QBQAD@Z 4006beb0 f i libucrtd:setenv.obj
 0001:0006aed0       ??$set_environment_variable@ABQA_WQA_W@?$__crt_char_traits@_W@@SAHABQA_W$$QBQA_W@Z 4006bed0 f i libucrtd:setenv.obj
 0001:0006aef0       ??$tcschr@ABQADD@?$__crt_char_traits@D@@SAPADABQAD$$QAD@Z 4006bef0 f i libucrtd:setenv.obj
 0001:0006af40       ??$tcschr@ABQA_WD@?$__crt_char_traits@_W@@SAPA_WABQA_W$$QAD@Z 4006bf40 f i libucrtd:setenv.obj
 0001:0006afa0       ??$tcscpy_s@AAPADABIAAPAD@?$__crt_char_traits@D@@SAHAAPADABI0@Z 4006bfa0 f i libucrtd:setenv.obj
 0001:0006afd0       ??$tcscpy_s@AAPA_WABIAAPA_W@?$__crt_char_traits@_W@@SAHAAPA_WABI0@Z 4006bfd0 f i libucrtd:setenv.obj
 0001:0006b000       ??$tcscpy_s@ABQADABIABQAD@?$__crt_char_traits@D@@SAHABQADABI0@Z 4006c000 f i libucrtd:setenv.obj
 0001:0006b030       ??$tcscpy_s@ABQA_WABIABQA_W@?$__crt_char_traits@_W@@SAHABQA_WABI0@Z 4006c030 f i libucrtd:setenv.obj
 0001:0006b060       ??$tcslen@ABQAD@?$__crt_char_traits@D@@SAIABQAD@Z 4006c060 f i libucrtd:setenv.obj
 0001:0006b080       ??$tcslen@ABQA_W@?$__crt_char_traits@_W@@SAIABQA_W@Z 4006c080 f i libucrtd:setenv.obj
 0001:0006b0a0       ??$tcsnicoll@ABQBDAAPADABI@?$__crt_char_traits@D@@SAHABQBDAAPADABI@Z 4006c0a0 f i libucrtd:setenv.obj
 0001:0006b0d0       ??$tcsnicoll@ABQB_WAAPA_WABI@?$__crt_char_traits@_W@@SAHABQB_WAAPA_WABI@Z 4006c0d0 f i libucrtd:setenv.obj
 0001:0006b100       ??$tcsnlen@PADH@?$__crt_char_traits@D@@SAI$$QAPAD$$QAH@Z 4006c100 f i libucrtd:setenv.obj
 0001:0006b120       ??$tcsnlen@PA_WH@?$__crt_char_traits@_W@@SAI$$QAPA_W$$QAH@Z 4006c120 f i libucrtd:setenv.obj
 0001:0006b1e0       ?strchr@@YAPADQADH@Z       4006c1e0 f i libucrtd:setenv.obj
 0001:0006b200       ?wcschr@@YAPA_WPA_W_W@Z    4006c200 f i libucrtd:setenv.obj
 0001:0006b220       ___dcrt_set_variable_in_narrow_environment_nolock 4006c220 f   libucrtd:setenv.obj
 0001:0006b240       ___dcrt_set_variable_in_wide_environment_nolock 4006c240 f   libucrtd:setenv.obj
 0001:0006b4a0       ?ReadPointerNoFence@@YAPAXPDSAX@Z 4006c4a0 f i libucrtd:winapi_thunks.obj
 0001:0006bd60       _GetCurrentThreadEffectiveToken 4006cd60 f i libucrtd:winapi_thunks.obj
 0001:0006bd70       ___acrt_AppPolicyGetProcessTerminationMethodInternal@4 4006cd70 f   libucrtd:winapi_thunks.obj
 0001:0006bdc0       ___acrt_AppPolicyGetShowDeveloperDiagnosticInternal@4 4006cdc0 f   libucrtd:winapi_thunks.obj
 0001:0006be10       ___acrt_AppPolicyGetThreadInitializationTypeInternal@4 4006ce10 f   libucrtd:winapi_thunks.obj
 0001:0006be60       ___acrt_AppPolicyGetWindowingModelInternal@4 4006ce60 f   libucrtd:winapi_thunks.obj
 0001:0006beb0       ___acrt_AreFileApisANSI@0  4006ceb0 f   libucrtd:winapi_thunks.obj
 0001:0006bef0       ___acrt_CompareStringEx@36 4006cef0 f   libucrtd:winapi_thunks.obj
 0001:0006bf80       ___acrt_EnumSystemLocalesEx@16 4006cf80 f   libucrtd:winapi_thunks.obj
 0001:0006bfe0       ___acrt_FlsAlloc@4         4006cfe0 f   libucrtd:winapi_thunks.obj
 0001:0006c000       ___acrt_FlsFree@4          4006d000 f   libucrtd:winapi_thunks.obj
 0001:0006c020       ___acrt_FlsGetValue2@4     4006d020 f   libucrtd:winapi_thunks.obj
 0001:0006c050       ___acrt_FlsGetValue@4      4006d050 f   libucrtd:winapi_thunks.obj
 0001:0006c070       ___acrt_FlsSetValue@8      4006d070 f   libucrtd:winapi_thunks.obj
 0001:0006c090       ___acrt_GetDateFormatEx@28 4006d090 f   libucrtd:winapi_thunks.obj
 0001:0006c110       ___acrt_GetEnabledXStateFeatures@0 4006d110 f   libucrtd:winapi_thunks.obj
 0001:0006c150       ___acrt_GetFileInformationByName@16 4006d150 f   libucrtd:winapi_thunks.obj
 0001:0006c1a0       ___acrt_GetLocaleInfoEx@16 4006d1a0 f   libucrtd:winapi_thunks.obj
 0001:0006c210       ___acrt_GetSystemTimePreciseAsFileTime@4 4006d210 f   libucrtd:winapi_thunks.obj
 0001:0006c260       ___acrt_GetTempPath2W@8    4006d260 f   libucrtd:winapi_thunks.obj
 0001:0006c2b0       ___acrt_GetTimeFormatEx@24 4006d2b0 f   libucrtd:winapi_thunks.obj
 0001:0006c330       ___acrt_GetUserDefaultLocaleName@8 4006d330 f   libucrtd:winapi_thunks.obj
 0001:0006c390       ___acrt_GetXStateFeaturesMask@8 4006d390 f   libucrtd:winapi_thunks.obj
 0001:0006c3e0       ___acrt_InitializeCriticalSectionEx@12 4006d3e0 f   libucrtd:winapi_thunks.obj
 0001:0006c400       ___acrt_IsThreadAFiber@0   4006d400 f   libucrtd:winapi_thunks.obj
 0001:0006c410       ___acrt_IsValidLocaleName@4 4006d410 f   libucrtd:winapi_thunks.obj
 0001:0006c460       ___acrt_LCIDToLocaleName@16 4006d460 f   libucrtd:winapi_thunks.obj
 0001:0006c4c0       ___acrt_LCMapStringEx@36   4006d4c0 f   libucrtd:winapi_thunks.obj
 0001:0006c540       ___acrt_LocaleNameToLCID@8 4006d540 f   libucrtd:winapi_thunks.obj
 0001:0006c590       ___acrt_LocateXStateFeature@12 4006d590 f   libucrtd:winapi_thunks.obj
 0001:0006c5e0       ___acrt_MessageBoxA@16     4006d5e0 f   libucrtd:winapi_thunks.obj
 0001:0006c630       ___acrt_MessageBoxW@16     4006d630 f   libucrtd:winapi_thunks.obj
 0001:0006c680       ___acrt_RoInitialize@4     4006d680 f   libucrtd:winapi_thunks.obj
 0001:0006c6c0       ___acrt_RoUninitialize@0   4006d6c0 f   libucrtd:winapi_thunks.obj
 0001:0006c6f0       ___acrt_RtlGenRandom@8     4006d6f0 f   libucrtd:winapi_thunks.obj
 0001:0006c740       ___acrt_SetThreadStackGuarantee@4 4006d740 f   libucrtd:winapi_thunks.obj
 0001:0006c780       ___acrt_can_show_message_box 4006d780 f   libucrtd:winapi_thunks.obj
 0001:0006c7c0       ___acrt_can_use_vista_locale_apis 4006d7c0 f   libucrtd:winapi_thunks.obj
 0001:0006c7f0       ___acrt_can_use_xstate_apis 4006d7f0 f   libucrtd:winapi_thunks.obj
 0001:0006c820       ___acrt_eagerly_load_locale_apis 4006d820 f   libucrtd:winapi_thunks.obj
 0001:0006c860       ___acrt_get_parent_window  4006d860 f   libucrtd:winapi_thunks.obj
 0001:0006c8d0       ___acrt_initialize_winapi_thunks 4006d8d0 f   libucrtd:winapi_thunks.obj
 0001:0006c910       ___acrt_is_interactive     4006d910 f   libucrtd:winapi_thunks.obj
 0001:0006c9c0       ___acrt_tls2_supported     4006d9c0 f   libucrtd:winapi_thunks.obj
 0001:0006c9f0       ___acrt_uninitialize_winapi_thunks 4006d9f0 f   libucrtd:winapi_thunks.obj
 0001:0006ca60       __get_heap_handle          4006da60 f   libucrtd:heap_handle.obj
 0001:0006caa0       ___acrt_initialize_heap    4006daa0 f   libucrtd:heap_handle.obj
 0001:0006cad0       ___acrt_uninitialize_heap  4006dad0 f   libucrtd:heap_handle.obj
 0001:0006caf0       ___acrt_getheap            4006daf0 f   libucrtd:heap_handle.obj
 0001:0006cb30       ___acrt_execute_initializers 4006db30 f   libucrtd:shared_initialization.obj
 0001:0006cbf0       ___acrt_execute_uninitializers 4006dbf0 f   libucrtd:shared_initialization.obj
 0001:0006cc50       __callnewh                 4006dc50 f   libucrtd:new_handler.obj
 0001:0006cca0       ___acrt_initialize_new_handler 4006dca0 f   libucrtd:new_handler.obj
 0001:0006ccc0       __query_new_handler        4006dcc0 f   libucrtd:new_handler.obj
 0001:0006cd60       __set_new_handler          4006dd60 f   libucrtd:new_handler.obj
 0001:0006ce20       ?_set_new_handler@@YAP6AHI@ZH@Z 4006de20 f   libucrtd:new_handler.obj
 0001:0006ce80       ??$?B$$A6AHI@Z@__crt_fast_encoded_nullptr_t@@QBEP6AHI@ZXZ 4006de80 f i libucrtd:new_handler.obj
 0001:0006cea0       ??$__crt_fast_decode_pointer@P6AHI@Z@@YAP6AHI@ZQ6AHI@Z@Z 4006dea0 f i libucrtd:new_handler.obj
 0001:0006ced0       ??$__crt_fast_encode_pointer@P6AHI@Z@@YAP6AHI@ZQ6AHI@Z@Z 4006ded0 f i libucrtd:new_handler.obj
 0001:0006cf00       ?initialize@?$dual_state_global@P6AHI@Z@__crt_state_management@@QAEXQ6AHI@Z@Z 4006df00 f i libucrtd:new_handler.obj
 0001:0006cf40       ?value@?$dual_state_global@P6AHI@Z@__crt_state_management@@QAEAAP6AHI@ZXZ 4006df40 f i libucrtd:new_handler.obj
 0001:0006cf60       ??$__crt_fast_decode_pointer@P6AHPAU_exception@@@Z@@YAP6AHPAU_exception@@@ZQ6AH0@Z@Z 4006df60 f i libucrtd:matherr.obj
 0001:0006cf80       ??$__crt_fast_encode_pointer@P6AHPAU_exception@@@Z@@YAP6AHPAU_exception@@@ZQ6AH0@Z@Z 4006df80 f i libucrtd:matherr.obj
 0001:0006cfb0       ?initialize@?$dual_state_global@P6AHPAU_exception@@@Z@__crt_state_management@@QAEXQ6AHPAU_exception@@@Z@Z 4006dfb0 f i libucrtd:matherr.obj
 0001:0006cfd0       ?value@?$dual_state_global@P6AHPAU_exception@@@Z@__crt_state_management@@QAEAAP6AHPAU_exception@@@ZXZ 4006dfd0 f i libucrtd:matherr.obj
 0001:0006cfe0       ___acrt_has_user_matherr   4006dfe0 f   libucrtd:matherr.obj
 0001:0006d000       ___acrt_initialize_user_matherr 4006e000 f   libucrtd:matherr.obj
 0001:0006d010       ___acrt_invoke_user_matherr 4006e010 f   libucrtd:matherr.obj
 0001:0006d050       ___setusermatherr          4006e050 f   libucrtd:matherr.obj
 0001:0006d080       __mbsdec                   4006e080 f   libucrtd:mbsdec.obj
 0001:0006d0a0       __mbsdec_l                 4006e0a0 f   libucrtd:mbsdec.obj
 0001:0006d680       _wcsncpy_s                 4006e680 f   libucrtd:wcsncpy_s.obj
 0001:0006dac0       _strncpy_s                 4006eac0 f   libucrtd:strncpy_s.obj
 0001:0006dae0       __chvalidator              4006eae0 f   libucrtd:isctype.obj
 0001:0006db30       __chvalidator_l            4006eb30 f   libucrtd:isctype.obj
 0001:0006dbb0       __isctype                  4006ebb0 f   libucrtd:isctype.obj
 0001:0006dbf0       __isctype_l                4006ebf0 f   libucrtd:isctype.obj
 0001:0006dd80       __free_base                4006ed80 f   libucrtd:free_base.obj
 0001:0006dde0       __realloc_base             4006ede0 f   libucrtd:realloc_base.obj
 0001:0006de80       __expand                   4006ee80 f   libucrtd:expand.obj
 0001:0006deb0       __expand_base              4006eeb0 f   libucrtd:expand.obj
 0001:0006e050       __query_new_mode           4006f050 f   libucrtd:new_mode.obj
 0001:0006e070       __set_new_mode             4006f070 f   libucrtd:new_mode.obj
 0001:0006e110       ?value@?$dual_state_global@J@__crt_state_management@@QAEAAJXZ 4006f110 f i libucrtd:new_mode.obj
 0001:0006e130       __CrtDefaultAllocHook      4006f130 f   libucrtd:debug_heap_hook.obj
 0001:0006e2f0       ___acrt_report_runtime_error 4006f2f0 f   libucrtd:report_runtime_error.obj
 0001:0006e4e0       __query_app_type           4006f4e0 f   libucrtd:report_runtime_error.obj
 0001:0006e4f0       __set_app_type             4006f4f0 f   libucrtd:report_runtime_error.obj
 0001:0006e500       __iswctype_l               4006f500 f   libucrtd:iswctype.obj
 0001:0006e520       _iswctype                  4006f520 f   libucrtd:iswctype.obj
 0001:0006f6a0       __i64toa                   400706a0 f   libucrtd:xtoa.obj
 0001:0006f700       __i64toa_s                 40070700 f   libucrtd:xtoa.obj
 0001:0006f750       __i64tow                   40070750 f   libucrtd:xtoa.obj
 0001:0006f7b0       __i64tow_s                 400707b0 f   libucrtd:xtoa.obj
 0001:0006f800       __itoa                     40070800 f   libucrtd:xtoa.obj
 0001:0006f850       __itoa_s                   40070850 f   libucrtd:xtoa.obj
 0001:0006f8a0       __itow                     400708a0 f   libucrtd:xtoa.obj
 0001:0006f8f0       __itow_s                   400708f0 f   libucrtd:xtoa.obj
 0001:0006f940       __ltoa                     40070940 f   libucrtd:xtoa.obj
 0001:0006f990       __ltoa_s                   40070990 f   libucrtd:xtoa.obj
 0001:0006f9e0       __ltow                     400709e0 f   libucrtd:xtoa.obj
 0001:0006fa30       __ltow_s                   40070a30 f   libucrtd:xtoa.obj
 0001:0006fa80       __ui64toa                  40070a80 f   libucrtd:xtoa.obj
 0001:0006fab0       __ui64toa_s                40070ab0 f   libucrtd:xtoa.obj
 0001:0006fae0       __ui64tow                  40070ae0 f   libucrtd:xtoa.obj
 0001:0006fb10       __ui64tow_s                40070b10 f   libucrtd:xtoa.obj
 0001:0006fb40       __ultoa                    40070b40 f   libucrtd:xtoa.obj
 0001:0006fb70       __ultoa_s                  40070b70 f   libucrtd:xtoa.obj
 0001:0006fba0       __ultow                    40070ba0 f   libucrtd:xtoa.obj
 0001:0006fbd0       __ultow_s                  40070bd0 f   libucrtd:xtoa.obj
 0001:00070320       __mbstowcs_l               40071320 f   libucrtd:mbstowcs.obj
 0001:00070360       __mbstowcs_s_l             40071360 f   libucrtd:mbstowcs.obj
 0001:000703b0       _mbstowcs                  400713b0 f   libucrtd:mbstowcs.obj
 0001:000703f0       _mbstowcs_s                400713f0 f   libucrtd:mbstowcs.obj
 0001:00070ce0       __wcstombs_l               40071ce0 f   libucrtd:wcstombs.obj
 0001:00070d20       __wcstombs_s_l             40071d20 f   libucrtd:wcstombs.obj
 0001:00070d70       _wcstombs                  40071d70 f   libucrtd:wcstombs.obj
 0001:00070db0       _wcstombs_s                40071db0 f   libucrtd:wcstombs.obj
 0001:00071240       _wcscat_s                  40072240 f   libucrtd:wcscat_s.obj
 0001:00071260       ___acrt_OutputDebugStringA@4 40072260 f   libucrtd:outputdebugstringa.obj
 0001:000712f0       ___acrt_add_locale_ref     400722f0 f   libucrtd:locale_refcounting.obj
 0001:00071400       ___acrt_free_locale        40072400 f   libucrtd:locale_refcounting.obj
 0001:000716d0       ___acrt_locale_add_lc_time_reference 400726d0 f   libucrtd:locale_refcounting.obj
 0001:00071710       ___acrt_locale_free_lc_time_if_unreferenced 40072710 f   libucrtd:locale_refcounting.obj
 0001:00071760       ___acrt_locale_release_lc_time_reference 40072760 f   libucrtd:locale_refcounting.obj
 0001:00071790       ___acrt_release_locale_ref 40072790 f   libucrtd:locale_refcounting.obj
 0001:000718a0       ___acrt_update_thread_locale_data 400728a0 f   libucrtd:locale_refcounting.obj
 0001:00071980       __updatetlocinfoEx_nolock  40072980 f   libucrtd:locale_refcounting.obj
 0001:00071b80       ___acrt_fp_strflt_to_string 40072b80 f   libucrtd:_fptostr.obj
 0001:00072580       ??0big_integer@__crt_strtox@@QAE@ABU01@@Z 40073580 f i libucrtd:cfout.obj
 0001:000725c0       ??0big_integer@__crt_strtox@@QAE@XZ 400735c0 f i libucrtd:cfout.obj
 0001:00072700       ??4big_integer@__crt_strtox@@QAEAAU01@ABU01@@Z 40073700 f i libucrtd:cfout.obj
 0001:00072740       ??8__crt_strtox@@YA_NABUbig_integer@0@0@Z 40073740 f i libucrtd:cfout.obj
 0001:000727a0       ??9__crt_strtox@@YA_NABUbig_integer@0@0@Z 400737a0 f i libucrtd:cfout.obj
 0001:000727e0       ?add_carry@__crt_strtox@@YAIAAIII@Z 400737e0 f i libucrtd:cfout.obj
 0001:00072820       ?add_multiply_carry@__crt_strtox@@YAIAAIIII@Z 40073820 f i libucrtd:cfout.obj
 0001:00072860       ?bit_scan_reverse@__crt_strtox@@YAII@Z 40073860 f i libucrtd:cfout.obj
 0001:00072890       ?count_sequential_high_zeroes@__crt_strtox@@YAII@Z 40073890 f i libucrtd:cfout.obj
 0001:000728d0       ?divide@__crt_strtox@@YA_KAAUbig_integer@1@ABU21@@Z 400738d0 f i libucrtd:cfout.obj
 0001:00073330       ?is_zero@__crt_strtox@@YA_NABUbig_integer@1@@Z 40074330 f i libucrtd:cfout.obj
 0001:00073360       ?make_big_integer@__crt_strtox@@YA?AUbig_integer@1@_K@Z 40074360 f i libucrtd:cfout.obj
 0001:00073410       ?make_big_integer_power_of_two@__crt_strtox@@YA?AUbig_integer@1@I@Z 40074410 f i libucrtd:cfout.obj
 0001:000734c0       ?multiply@__crt_strtox@@YA_NAAUbig_integer@1@ABU21@@Z 400744c0 f i libucrtd:cfout.obj
 0001:00073840       ?multiply@__crt_strtox@@YA_NAAUbig_integer@1@I@Z 40074840 f i libucrtd:cfout.obj
 0001:00073910       ?multiply_64_32@__crt_strtox@@YA_K_KI@Z 40074910 f i libucrtd:cfout.obj
 0001:00073930       ?multiply_by_power_of_ten@__crt_strtox@@YA_NAAUbig_integer@1@I@Z 40074930 f i libucrtd:cfout.obj
 0001:00073ad0       ?multiply_core@__crt_strtox@@YAIQAIII@Z 40074ad0 f i libucrtd:cfout.obj
 0001:00073b40       ?shift_left@__crt_strtox@@YA_NAAUbig_integer@1@I@Z 40074b40 f i libucrtd:cfout.obj
 0001:00073e20       ___acrt_fltout             40074e20 f   libucrtd:cfout.obj
 0001:00074240       ___fpe_flt_rounds          40075240 f   libucrtd:fegetround.obj
 0001:00074290       _fegetround                40075290 f   libucrtd:fegetround.obj
 0001:000742a0       ??$?RG@__crt_internal_free_policy@@QBEXQBG@Z 400752a0 f i libucrtd:initctype.obj
 0001:000742c0       ??$?RJ@__crt_internal_free_policy@@QBEXQBJ@Z 400752c0 f i libucrtd:initctype.obj
 0001:000742e0       ??0?$__crt_unique_heap_ptr@GU__crt_internal_free_policy@@@@QAE@QAG@Z 400752e0 f i libucrtd:initctype.obj
 0001:00074300       ??0?$__crt_unique_heap_ptr@JU__crt_internal_free_policy@@@@QAE@QAJ@Z 40075300 f i libucrtd:initctype.obj
 0001:00074320       ??1?$__crt_unique_heap_ptr@GU__crt_internal_free_policy@@@@QAE@XZ 40075320 f i libucrtd:initctype.obj
 0001:00074340       ??1?$__crt_unique_heap_ptr@JU__crt_internal_free_policy@@@@QAE@XZ 40075340 f i libucrtd:initctype.obj
 0001:00074360       ?detach@?$__crt_unique_heap_ptr@GU__crt_internal_free_policy@@@@QAEPAGXZ 40075360 f i libucrtd:initctype.obj
 0001:00074390       ?detach@?$__crt_unique_heap_ptr@JU__crt_internal_free_policy@@@@QAEPAJXZ 40075390 f i libucrtd:initctype.obj
 0001:000743c0       ?release@?$__crt_unique_heap_ptr@GU__crt_internal_free_policy@@@@QAEXXZ 400753c0 f i libucrtd:initctype.obj
 0001:000743f0       ?release@?$__crt_unique_heap_ptr@JU__crt_internal_free_policy@@@@QAEXXZ 400753f0 f i libucrtd:initctype.obj
 0001:00074420       ____lc_codepage_func       40075420 f   libucrtd:initctype.obj
 0001:00074460       ____lc_collate_cp_func     40075460 f   libucrtd:initctype.obj
 0001:000744a0       ____lc_locale_name_func    400754a0 f   libucrtd:initctype.obj
 0001:000744e0       ____mb_cur_max_func        400754e0 f   libucrtd:initctype.obj
 0001:00074520       ____mb_cur_max_l_func      40075520 f   libucrtd:initctype.obj
 0001:00074550       ___acrt_locale_initialize_ctype 40075550 f   libucrtd:initctype.obj
 0001:00074cd0       ?__c32rtomb_utf8@__crt_mbstring@@YAIPAD_UPAU_Mbstatet@@AAV__crt_cached_ptd_host@@@Z 40075cd0 f   libucrtd:c32rtomb.obj
 0001:00074ec0       _c32rtomb                  40075ec0 f   libucrtd:c32rtomb.obj
 0001:00074f00       ?reset_and_return@__crt_mbstring@@YAIIPAU_Mbstatet@@@Z 40075f00 f   libucrtd:common_utf8.obj
 0001:00074f30       ?return_illegal_sequence@__crt_mbstring@@YAIPAU_Mbstatet@@AAV__crt_cached_ptd_host@@@Z 40075f30 f   libucrtd:common_utf8.obj
 0001:00074f70       ??0__crt_stdio_stream@@QAE@QAU__crt_stdio_stream_data@@@Z 40075f70 f i libucrtd:closeall.obj
 0001:00074f90       ?is_in_use@__crt_stdio_stream@@QBE_NXZ 40075f90 f i libucrtd:closeall.obj
 0001:00074fd0       __fcloseall                40075fd0 f   libucrtd:closeall.obj
 0001:00075750       ?__acrt_stdio_reset_buffer@@YAXV__crt_stdio_stream@@@Z 40076750 f i libucrtd:fflush.obj
 0001:00075920       ?has_all_of@__crt_stdio_stream@@QBE_NJ@Z 40076920 f i libucrtd:fflush.obj
 0001:000759f0       ___acrt_stdio_flush_nolock 400769f0 f   libucrtd:fflush.obj
 0001:00075ad0       __fflush_nolock            40076ad0 f   libucrtd:fflush.obj
 0001:00075b10       __flushall                 40076b10 f   libucrtd:fflush.obj
 0001:00075b30       _fflush                    40076b30 f   libucrtd:fflush.obj
 0001:00075bb0       ?has_crt_buffer@__crt_stdio_stream@@QBE_NXZ 40076bb0 f i libucrtd:_freebuf.obj
 0001:00075bd0       ___acrt_stdio_free_buffer_nolock 40076bd0 f   libucrtd:_freebuf.obj
 0001:000763e0       ?has_big_buffer@__crt_stdio_stream@@QBE_NXZ 400773e0 f i libucrtd:_flsbuf.obj
 0001:000764e0       ___acrt_stdio_flush_and_write_narrow_nolock 400774e0 f   libucrtd:_flsbuf.obj
 0001:00076510       ___acrt_stdio_flush_and_write_wide_nolock 40077510 f   libucrtd:_flsbuf.obj
 0001:00076540       __isatty                   40077540 f   libucrtd:isatty.obj
 0001:00076610       ??$?RUlconv@@@__crt_internal_free_policy@@QBEXQBUlconv@@@Z 40077610 f i libucrtd:initmon.obj
 0001:00076630       ??0?$__crt_unique_heap_ptr@Ulconv@@U__crt_internal_free_policy@@@@QAE@QAUlconv@@@Z 40077630 f i libucrtd:initmon.obj
 0001:00076650       ??1?$__crt_unique_heap_ptr@Ulconv@@U__crt_internal_free_policy@@@@QAE@XZ 40077650 f i libucrtd:initmon.obj
 0001:00076670       ?detach@?$__crt_unique_heap_ptr@Ulconv@@U__crt_internal_free_policy@@@@QAEPAUlconv@@XZ 40077670 f i libucrtd:initmon.obj
 0001:000766a0       ?release@?$__crt_unique_heap_ptr@Ulconv@@U__crt_internal_free_policy@@@@QAEXXZ 400776a0 f i libucrtd:initmon.obj
 0001:000766d0       ___acrt_locale_free_monetary 400776d0 f   libucrtd:initmon.obj
 0001:00076880       ___acrt_locale_initialize_monetary 40077880 f   libucrtd:initmon.obj
 0001:00076f20       ___acrt_locale_free_numeric 40077f20 f   libucrtd:initnum.obj
 0001:00076fd0       ___acrt_locale_initialize_numeric 40077fd0 f   libucrtd:initnum.obj
 0001:00077420       ??$?RU__crt_lc_time_data@@@__crt_internal_free_policy@@QBEXQBU__crt_lc_time_data@@@Z 40078420 f i libucrtd:inittime.obj
 0001:00077500       ??0?$__crt_unique_heap_ptr@U__crt_lc_time_data@@U__crt_internal_free_policy@@@@QAE@QAU__crt_lc_time_data@@@Z 40078500 f i libucrtd:inittime.obj
 0001:00077520       ??1?$__crt_unique_heap_ptr@U__crt_lc_time_data@@U__crt_internal_free_policy@@@@QAE@XZ 40078520 f i libucrtd:inittime.obj
 0001:00077540       ??B?$__crt_unique_heap_ptr@U__crt_lc_time_data@@U__crt_internal_free_policy@@@@QBE_NXZ 40078540 f i libucrtd:inittime.obj
 0001:00077560       ?detach@?$__crt_unique_heap_ptr@U__crt_lc_time_data@@U__crt_internal_free_policy@@@@QAEPAU__crt_lc_time_data@@XZ 40078560 f i libucrtd:inittime.obj
 0001:000775d0       ?get@?$__crt_unique_heap_ptr@U__crt_lc_time_data@@U__crt_internal_free_policy@@@@QBEPAU__crt_lc_time_data@@XZ 400785d0 f i libucrtd:inittime.obj
 0001:00077aa0       ?is_valid@?$__crt_unique_heap_ptr@U__crt_lc_time_data@@U__crt_internal_free_policy@@@@QBE_NXZ 40078aa0 f i libucrtd:inittime.obj
 0001:00077ad0       ?release@?$__crt_unique_heap_ptr@U__crt_lc_time_data@@U__crt_internal_free_policy@@@@QAEXXZ 40078ad0 f i libucrtd:inittime.obj
 0001:00077b00       ___acrt_locale_free_time   40078b00 f   libucrtd:inittime.obj
 0001:00077c50       ___acrt_locale_initialize_time 40078c50 f   libucrtd:inittime.obj
 0001:00077cd0       ___pctype_func             40078cd0 f   libucrtd:ctype.obj
 0001:00077d10       ___pwctype_func            40078d10 f   libucrtd:ctype.obj
 0001:00078200       _wcsncat_s                 40079200 f   libucrtd:wcsncat_s.obj
 0001:00078220       _wcscmp                    40079220 f   libucrtd:wcscmpc.obj
 0001:000782a0       _wcscspn                   400792a0 f   libucrtd:wcscspn.obj
 0001:00078300       _wcspbrk                   40079300 f   libucrtd:wcspbrk.obj
 0001:00078350       ??0?$__crt_scoped_stack_ptr@_W@@QAE@U?$__crt_scoped_stack_ptr_tag@_W@@@Z 40079350 f i libucrtd:getstringtypea.obj
 0001:00078370       ??0?$__crt_scoped_stack_ptr_tag@_W@@QAE@QA_W@Z 40079370 f i libucrtd:getstringtypea.obj
 0001:00078390       ??1?$__crt_scoped_stack_ptr@_W@@QAE@XZ 40079390 f i libucrtd:getstringtypea.obj
 0001:000783b0       ?get@?$__crt_scoped_stack_ptr@_W@@QBEPA_WXZ 400793b0 f i libucrtd:getstringtypea.obj
 0001:000783d0       __MallocaComputeSize       400793d0 f i libucrtd:getstringtypea.obj
 0001:00078400       __MarkAllocaS              40079400 f i libucrtd:getstringtypea.obj
 0001:00078430       ___acrt_GetStringTypeA     40079430 f   libucrtd:getstringtypea.obj
 0001:000785f0       __freea_crt                400795f0 f i libucrtd:getstringtypea.obj
 0001:000791d0       ___acrt_get_qualified_locale 4007a1d0 f   libucrtd:get_qualified_locale.obj
 0001:0007a1f0       ___acrt_get_qualified_locale_downlevel 4007b1f0 f   libucrtd:getqloc_downlevel.obj
 0001:0007a4a0       _localeconv                4007b4a0 f   libucrtd:localeconv.obj
 0001:0007a4e0       ??$?RU__crt_lowio_handle_data@@@__crt_internal_free_policy@@QBEXQBU__crt_lowio_handle_data@@@Z 4007b4e0 f i libucrtd:osfinfo.obj
 0001:0007a500       ??0?$__crt_unique_heap_ptr@U__crt_lowio_handle_data@@U__crt_internal_free_policy@@@@QAE@QAU__crt_lowio_handle_data@@@Z 4007b500 f i libucrtd:osfinfo.obj
 0001:0007a520       ??1?$__crt_unique_heap_ptr@U__crt_lowio_handle_data@@U__crt_internal_free_policy@@@@QAE@XZ 4007b520 f i libucrtd:osfinfo.obj
 0001:0007a540       ??B?$__crt_unique_heap_ptr@U__crt_lowio_handle_data@@U__crt_internal_free_policy@@@@QBE_NXZ 4007b540 f i libucrtd:osfinfo.obj
 0001:0007a560       ?detach@?$__crt_unique_heap_ptr@U__crt_lowio_handle_data@@U__crt_internal_free_policy@@@@QAEPAU__crt_lowio_handle_data@@XZ 4007b560 f i libucrtd:osfinfo.obj
 0001:0007a590       ?get@?$__crt_unique_heap_ptr@U__crt_lowio_handle_data@@U__crt_internal_free_policy@@@@QBEPAU__crt_lowio_handle_data@@XZ 4007b590 f i libucrtd:osfinfo.obj
 0001:0007a5b0       ?is_valid@?$__crt_unique_heap_ptr@U__crt_lowio_handle_data@@U__crt_internal_free_policy@@@@QBE_NXZ 4007b5b0 f i libucrtd:osfinfo.obj
 0001:0007a5e0       ?release@?$__crt_unique_heap_ptr@U__crt_lowio_handle_data@@U__crt_internal_free_policy@@@@QAEXXZ 4007b5e0 f i libucrtd:osfinfo.obj
 0001:0007a610       ___acrt_lowio_create_handle_array 4007b610 f   libucrtd:osfinfo.obj
 0001:0007a770       ___acrt_lowio_destroy_handle_array 4007b770 f   libucrtd:osfinfo.obj
 0001:0007a7d0       ___acrt_lowio_ensure_fh_exists 4007b7d0 f   libucrtd:osfinfo.obj
 0001:0007a930       ___acrt_lowio_lock_fh      4007b930 f   libucrtd:osfinfo.obj
 0001:0007a960       ___acrt_lowio_set_os_handle 4007b960 f   libucrtd:osfinfo.obj
 0001:0007aa30       ___acrt_lowio_unlock_fh    4007ba30 f   libucrtd:osfinfo.obj
 0001:0007aa60       __alloc_osfhnd             4007ba60 f   libucrtd:osfinfo.obj
 0001:0007ac40       __free_osfhnd              4007bc40 f   libucrtd:osfinfo.obj
 0001:0007ad30       __get_osfhandle            4007bd30 f   libucrtd:osfinfo.obj
 0001:0007aeb0       __open_osfhandle           4007beb0 f   libucrtd:osfinfo.obj
 0001:0007b1d0       _qsort                     4007c1d0 f   libucrtd:qsort.obj
 0001:0007b800       _strpbrk                   4007c800 f   libucrtd:strpbrk.obj
 0001:0007b840       ??B?$__crt_scoped_stack_ptr@_W@@QBE_NXZ 4007c840 f i libucrtd:lcmapstringa.obj
 0001:0007bc40       ___acrt_LCMapStringA       4007cc40 f   libucrtd:lcmapstringa.obj
 0001:0007bcd0       __wcsnicoll                4007ccd0 f   libucrtd:wcsnicol.obj
 0001:0007bea0       __wcsnicoll_l              4007cea0 f   libucrtd:wcsnicol.obj
 0001:0007c0f0       __strnicoll                4007d0f0 f   libucrtd:strnicol.obj
 0001:0007c140       __strnicoll_l              4007d140 f   libucrtd:strnicol.obj
 0001:0007c400       ___acrt_SetEnvironmentVariableA 4007d400 f   libucrtd:setenvironmentvariablea.obj
 0001:0007c5d0       ___acrt_DownlevelLCIDToLocaleName 4007d5d0 f   libucrtd:lcidtoname_downlevel.obj
 0001:0007c6a0       ___acrt_DownlevelLocaleNameToLCID 4007d6a0 f   libucrtd:lcidtoname_downlevel.obj
 0001:0007c6e0       __malloc_base              4007d6e0 f   libucrtd:malloc_base.obj
 0001:0007c770       __set_error_mode           4007d770 f   libucrtd:set_error_mode.obj
 0001:0007c840       ___acrt_GetStringTypeW     4007d840 f   libucrtd:getstringtypew.obj
 0001:0007c860       ?__wcsrtombs_utf8@__crt_mbstring@@YAIPADPAPB_WIPAU_Mbstatet@@AAV__crt_cached_ptd_host@@@Z 4007d860 f   libucrtd:wcrtomb.obj
 0001:0007d0a0       _wcrtomb                   4007e0a0 f   libucrtd:wcrtomb.obj
 0001:0007d100       _wcrtomb_s                 4007e100 f   libucrtd:wcrtomb.obj
 0001:0007d150       _wcsrtombs                 4007e150 f   libucrtd:wcrtomb.obj
 0001:0007d190       _wcsrtombs_s               4007e190 f   libucrtd:wcrtomb.obj
 0001:0007d590       _wctob                     4007e590 f   libucrtd:wcrtomb.obj
 0001:0007d650       _log10                     4007e650 f   libucrtd:log10.obj
 0001:0007d6a0       __ceil_no_sse41            4007e6a0 f   libucrtd:ceil_pentium4.obj
 0001:0007d6e0       _ceil                      4007e6e0 f   libucrtd:ceil_pentium4.obj
 0001:0007d700       __ceil_pentium4            4007e700 f   libucrtd:ceil_pentium4.obj
 0001:0007d7e0       __controlfp_s              4007e7e0 f   libucrtd:contrlfp.obj
 0001:0007d890       _fegetenv                  4007e890 f   libucrtd:fegetenv.obj
 0001:0007d8b0       _fesetenv                  4007e8b0 f   libucrtd:fesetenv.obj
 0001:0007d910       _feholdexcept              4007e910 f   libucrtd:feholdexcept.obj
 0001:0007d970       ??$__acrt_fenv_shift_bits@W4__acrt_fenv_abstract_control@@@@YA?AW4__acrt_fenv_abstract_control@@W40@0I@Z 4007e970 f i libucrtd:_fenvutils.obj
 0001:0007d990       ??$__acrt_fenv_shift_bits@W4__acrt_fenv_abstract_status@@@@YA?AW4__acrt_fenv_abstract_status@@W40@0I@Z 4007e990 f i libucrtd:_fenvutils.obj
 0001:0007d9b0       ??$__acrt_fenv_translate_bit@W4__acrt_fenv_abstract_control@@W4__acrt_fenv_machine_sse_control@@@@YA?AW4__acrt_fenv_abstract_control@@W4__acrt_fenv_machine_sse_control@@0W40@1@Z 4007e9b0 f i libucrtd:_fenvutils.obj
 0001:0007d9d0       ??$__acrt_fenv_translate_bit@W4__acrt_fenv_abstract_control@@W4__acrt_fenv_machine_x87_control@@@@YA?AW4__acrt_fenv_abstract_control@@W4__acrt_fenv_machine_x87_control@@0W40@1@Z 4007e9d0 f i libucrtd:_fenvutils.obj
 0001:0007d9f0       ??$__acrt_fenv_translate_bit@W4__acrt_fenv_abstract_status@@W4__acrt_fenv_machine_sse_status@@@@YA?AW4__acrt_fenv_abstract_status@@W4__acrt_fenv_machine_sse_status@@0W40@1@Z 4007e9f0 f i libucrtd:_fenvutils.obj
 0001:0007da10       ??$__acrt_fenv_translate_bit@W4__acrt_fenv_abstract_status@@W4__acrt_fenv_machine_x87_status@@@@YA?AW4__acrt_fenv_abstract_status@@W4__acrt_fenv_machine_x87_status@@0W40@1@Z 4007ea10 f i libucrtd:_fenvutils.obj
 0001:0007da30       ??$__acrt_fenv_translate_bit@W4__acrt_fenv_machine_sse_control@@W4__acrt_fenv_abstract_control@@@@YA?AW4__acrt_fenv_machine_sse_control@@W4__acrt_fenv_abstract_control@@0W40@1@Z 4007ea30 f i libucrtd:_fenvutils.obj
 0001:0007da50       ??$__acrt_fenv_translate_bit@W4__acrt_fenv_machine_sse_status@@W4__acrt_fenv_abstract_status@@@@YA?AW4__acrt_fenv_machine_sse_status@@W4__acrt_fenv_abstract_status@@0W40@1@Z 4007ea50 f i libucrtd:_fenvutils.obj
 0001:0007da70       ??$__acrt_fenv_translate_bit@W4__acrt_fenv_machine_x87_control@@W4__acrt_fenv_abstract_control@@@@YA?AW4__acrt_fenv_machine_x87_control@@W4__acrt_fenv_abstract_control@@0W40@1@Z 4007ea70 f i libucrtd:_fenvutils.obj
 0001:0007da90       ??$__acrt_fenv_translate_bit@W4__acrt_fenv_machine_x87_status@@W4__acrt_fenv_abstract_status@@@@YA?AW4__acrt_fenv_machine_x87_status@@W4__acrt_fenv_abstract_status@@0W40@1@Z 4007ea90 f i libucrtd:_fenvutils.obj
 0001:0007dab0       ??$__acrt_fenv_unshift_bits@W4__acrt_fenv_abstract_control@@@@YA?AW4__acrt_fenv_abstract_control@@W40@0I@Z 4007eab0 f i libucrtd:_fenvutils.obj
 0001:0007dad0       ??$__acrt_fenv_unshift_bits@W4__acrt_fenv_abstract_status@@@@YA?AW4__acrt_fenv_abstract_status@@W40@0I@Z 4007ead0 f i libucrtd:_fenvutils.obj
 0001:0007dfb0       ??I@YA?AW4__acrt_fenv_abstract_control@@W40@0@Z 4007efb0 f i libucrtd:_fenvutils.obj
 0001:0007dfc0       ??I@YA?AW4__acrt_fenv_abstract_status@@W40@0@Z 4007efc0 f i libucrtd:_fenvutils.obj
 0001:0007dfd0       ??I@YA?AW4__acrt_fenv_machine_sse_control@@W40@0@Z 4007efd0 f i libucrtd:_fenvutils.obj
 0001:0007dfe0       ??I@YA?AW4__acrt_fenv_machine_sse_status@@W40@0@Z 4007efe0 f i libucrtd:_fenvutils.obj
 0001:0007dff0       ??I@YA?AW4__acrt_fenv_machine_x87_control@@W40@0@Z 4007eff0 f i libucrtd:_fenvutils.obj
 0001:0007e000       ??I@YA?AW4__acrt_fenv_machine_x87_status@@W40@0@Z 4007f000 f i libucrtd:_fenvutils.obj
 0001:0007e010       ??U@YA?AW4__acrt_fenv_abstract_control@@W40@0@Z 4007f010 f i libucrtd:_fenvutils.obj
 0001:0007e020       ??U@YA?AW4__acrt_fenv_abstract_status@@W40@0@Z 4007f020 f i libucrtd:_fenvutils.obj
 0001:0007e030       ??U@YA?AW4__acrt_fenv_machine_sse_control@@W40@0@Z 4007f030 f i libucrtd:_fenvutils.obj
 0001:0007e040       ??U@YA?AW4__acrt_fenv_machine_x87_control@@W40@0@Z 4007f040 f i libucrtd:_fenvutils.obj
 0001:0007e050       ??_5@YAAAW4__acrt_fenv_abstract_control@@AAW40@W40@@Z 4007f050 f i libucrtd:_fenvutils.obj
 0001:0007e060       ??_5@YAAAW4__acrt_fenv_abstract_status@@AAW40@W40@@Z 4007f060 f i libucrtd:_fenvutils.obj
 0001:0007e070       ??_5@YAAAW4__acrt_fenv_machine_sse_control@@AAW40@W40@@Z 4007f070 f i libucrtd:_fenvutils.obj
 0001:0007e090       ??_5@YAAAW4__acrt_fenv_machine_sse_status@@AAW40@W40@@Z 4007f090 f i libucrtd:_fenvutils.obj
 0001:0007e0a0       ??_5@YAAAW4__acrt_fenv_machine_x87_control@@AAW40@W40@@Z 4007f0a0 f i libucrtd:_fenvutils.obj
 0001:0007e0c0       ??_5@YAAAW4__acrt_fenv_machine_x87_status@@AAW40@W40@@Z 4007f0c0 f i libucrtd:_fenvutils.obj
 0001:0007e0d0       ?__acrt_fenv_shift_abstract_sse_control@@YA?AW4__acrt_fenv_abstract_control@@W41@@Z 4007f0d0 f i libucrtd:_fenvutils.obj
 0001:0007e0f0       ?__acrt_fenv_shift_abstract_sse_status@@YA?AW4__acrt_fenv_abstract_status@@W41@@Z 4007f0f0 f i libucrtd:_fenvutils.obj
 0001:0007e100       ?__acrt_fenv_shift_abstract_x87_control@@YA?AW4__acrt_fenv_abstract_control@@W41@@Z 4007f100 f i libucrtd:_fenvutils.obj
 0001:0007e120       ?__acrt_fenv_shift_abstract_x87_status@@YA?AW4__acrt_fenv_abstract_status@@W41@@Z 4007f120 f i libucrtd:_fenvutils.obj
 0001:0007e130       ?__acrt_fenv_unshift_abstract_sse_control@@YA?AW4__acrt_fenv_abstract_control@@W41@@Z 4007f130 f i libucrtd:_fenvutils.obj
 0001:0007e150       ?__acrt_fenv_unshift_abstract_sse_status@@YA?AW4__acrt_fenv_abstract_status@@W41@@Z 4007f150 f i libucrtd:_fenvutils.obj
 0001:0007e160       ?__acrt_fenv_unshift_abstract_x87_control@@YA?AW4__acrt_fenv_abstract_control@@W41@@Z 4007f160 f i libucrtd:_fenvutils.obj
 0001:0007e180       ?__acrt_fenv_unshift_abstract_x87_status@@YA?AW4__acrt_fenv_abstract_status@@W41@@Z 4007f180 f i libucrtd:_fenvutils.obj
 0001:0007e780       ___acrt_fenv_expand_round_control 4007f780 f   libucrtd:_fenvutils.obj
 0001:0007e7c0       ___acrt_fenv_get_common_round_control 4007f7c0 f   libucrtd:_fenvutils.obj
 0001:0007e7f0       ___acrt_fenv_get_control   4007f7f0 f   libucrtd:_fenvutils.obj
 0001:0007e9d0       ___acrt_fenv_get_fp_status_word_from_exception_mask 4007f9d0 f   libucrtd:_fenvutils.obj
 0001:0007e9f0       ___acrt_fenv_get_status    4007f9f0 f   libucrtd:_fenvutils.obj
 0001:0007eaa0       ___acrt_fenv_set_control   4007faa0 f   libucrtd:_fenvutils.obj
 0001:0007ecf0       ___acrt_fenv_set_status    4007fcf0 f   libucrtd:_fenvutils.obj
 0001:0007ef80       ___acrt_GetLocaleInfoA     4007ff80 f   libucrtd:getlocaleinfoa.obj
 0001:0007f600       __fclose_nolock            40080600 f   libucrtd:fclose.obj
 0001:0007f640       _fclose                    40080640 f   libucrtd:fclose.obj
 0001:0007f8c0       __commit                   400808c0 f   libucrtd:commit.obj
 0001:00080c50       __utf8_no_of_trailbytes    40081c50 f i libucrtd:write.obj
 0001:00080c70       __write                    40081c70 f   libucrtd:write.obj
 0001:00080cb0       __write_internal           40081cb0 f   libucrtd:write.obj
 0001:00080f50       __write_nolock             40081f50 f   libucrtd:write.obj
 0001:00081c80       __lseek                    40082c80 f   libucrtd:lseek.obj
 0001:00081cc0       __lseek_internal           40082cc0 f   libucrtd:lseek.obj
 0001:00081ce0       __lseek_nolock             40082ce0 f   libucrtd:lseek.obj
 0001:00081d20       __lseek_nolock_internal    40082d20 f   libucrtd:lseek.obj
 0001:00081d40       __lseeki64                 40082d40 f   libucrtd:lseek.obj
 0001:00081d90       __lseeki64_internal        40082d90 f   libucrtd:lseek.obj
 0001:00081dc0       __lseeki64_nolock          40082dc0 f   libucrtd:lseek.obj
 0001:00081e10       __lseeki64_nolock_internal 40082e10 f   libucrtd:lseek.obj
 0001:00081e40       ___acrt_stdio_allocate_buffer_nolock 40082e40 f   libucrtd:_getbuf.obj
 0001:00082070       ___ascii_wcsicmp           40083070 f   libucrtd:wcsicmp.obj
 0001:00082100       __towlower_fast_internal   40083100 f i libucrtd:wcsicmp.obj
 0001:00082140       __towlower_internal        40083140 f i libucrtd:wcsicmp.obj
 0001:00082180       __wcsicmp                  40083180 f   libucrtd:wcsicmp.obj
 0001:000821e0       __wcsicmp_l                400831e0 f   libucrtd:wcsicmp.obj
 0001:000824f0       ___ascii_wcsnicmp          400834f0 f   libucrtd:wcsnicmp.obj
 0001:00082590       __wcsnicmp                 40083590 f   libucrtd:wcsnicmp.obj
 0001:000825f0       __wcsnicmp_l               400835f0 f   libucrtd:wcsnicmp.obj
 0001:00082810       ___strncnt                 40083810 f   libucrtd:strncnt.obj
 0001:00082860       ___acrt_CompareStringW     40083860 f   libucrtd:comparestringw.obj
 0001:00082ab0       __strnicmp                 40083ab0 f   libucrtd:strnicmp.obj
 0001:00082b20       __strnicmp_l               40083b20 f   libucrtd:strnicmp.obj
 0001:00083210       ___acrt_CompareStringA     40084210 f   libucrtd:comparestringa.obj
 0001:00083270       ___acrt_initialize_sse2    40084270 f   libucrtd:mathfcns.obj
 0001:00083280       __set_SSE2_enable          40084280 f   libucrtd:mathfcns.obj
 0001:000832b0       __CIlog10                  400842b0 f   libucrtd:log10_impl.obj
 0001:000832eb       __CIlog10_default          400842eb f   libucrtd:log10_impl.obj
 0001:000832ff       __log10_default            400842ff     libucrtd:log10_impl.obj
 0001:000833c0       __CIlog10_pentium4         400843c0 f   libucrtd:log10_pentium4.obj
 0001:000833d8       __log10_pentium4           400843d8     libucrtd:log10_pentium4.obj
 0001:00083650       ___libm_error_support      40084650 f   libucrtd:libm_error.obj
 0001:000838f0       ___libm_setusermatherr     400848f0 f   libucrtd:libm_error.obj
 0001:00083920       __ceil_default             40084920 f   libucrtd:ceil.obj
 0001:00083bc0       ___control87_2             40084bc0 f   libucrtd:ieee87.obj
 0001:00084150       ___fpreset_sse2            40085150 f   libucrtd:ieee87.obj
 0001:000843b0       __clearfp                  400853b0 f   libucrtd:ieee87.obj
 0001:000844d0       __control87                400854d0 f   libucrtd:ieee87.obj
 0001:00084860       __controlfp                40085860 f   libucrtd:ieee87.obj
 0001:00084880       __fpreset                  40085880 f   libucrtd:ieee87.obj
 0001:000849c0       __set_controlfp            400859c0 f   libucrtd:ieee87.obj
 0001:00084a50       __statusfp                 40085a50 f   libucrtd:ieee87.obj
 0001:00084b20       __statusfp2                40085b20 f   libucrtd:ieee87.obj
 0001:00084ef0       __close                    40085ef0 f   libucrtd:close.obj
 0001:00084f40       __close_internal           40085f40 f   libucrtd:close.obj
 0001:00085110       __close_nolock             40086110 f   libucrtd:close.obj
 0001:00085150       __close_nolock_internal    40086150 f   libucrtd:close.obj
 0001:000851b0       ??$?RU__crt_stdio_stream_data@@@__crt_internal_free_policy@@QBEXQBU__crt_stdio_stream_data@@@Z 400861b0 f i libucrtd:stream.obj
 0001:000851d0       ??0?$__crt_unique_heap_ptr@U__crt_stdio_stream_data@@U__crt_internal_free_policy@@@@QAE@QAU__crt_stdio_stream_data@@@Z 400861d0 f i libucrtd:stream.obj
 0001:000851f0       ??0__crt_stdio_stream@@QAE@XZ 400861f0 f i libucrtd:stream.obj
 0001:00085210       ??1?$__crt_unique_heap_ptr@U__crt_stdio_stream_data@@U__crt_internal_free_policy@@@@QAE@XZ 40086210 f i libucrtd:stream.obj
 0001:00085230       ?__acrt_stdio_allocate_stream@@YA?AV__crt_stdio_stream@@XZ 40086230 f   libucrtd:stream.obj
 0001:00085320       ?__acrt_stdio_free_stream@@YAXV__crt_stdio_stream@@@Z 40086320 f   libucrtd:stream.obj
 0001:000853a0       ?deallocate@__crt_stdio_stream@@QAEXXZ 400863a0 f i libucrtd:stream.obj
 0001:000853c0       ?detach@?$__crt_unique_heap_ptr@U__crt_stdio_stream_data@@U__crt_internal_free_policy@@@@QAEPAU__crt_stdio_stream_data@@XZ 400863c0 f i libucrtd:stream.obj
 0001:00085530       ?lock@__crt_stdio_stream@@QBEXXZ 40086530 f i libucrtd:stream.obj
 0001:00085550       ?release@?$__crt_unique_heap_ptr@U__crt_stdio_stream_data@@U__crt_internal_free_policy@@@@QAEXXZ 40086550 f i libucrtd:stream.obj
 0001:00085580       ?try_allocate@__crt_stdio_stream@@QAE_NXZ 40086580 f i libucrtd:stream.obj
 0001:000855d0       ?unlock@__crt_stdio_stream@@QBEXXZ 400865d0 f i libucrtd:stream.obj
 0001:000857b0       __putwch                   400867b0 f   libucrtd:putwch.obj
 0001:000857e0       __putwch_nolock            400867e0 f   libucrtd:putwch.obj
 0001:00085820       __putwch_nolock_internal   40086820 f   libucrtd:putwch.obj
 0001:00086280       __read                     40087280 f   libucrtd:read.obj
 0001:00086560       __read_nolock              40087560 f   libucrtd:read.obj
 0001:00086f20       __towlower_l               40087f20 f   libucrtd:towlower.obj
 0001:00087060       _towlower                  40088060 f   libucrtd:towlower.obj
 0001:00087080       ___ascii_strnicmp          40088080 f   libucrtd:_strnicm.obj
 0001:00087110       __fFEXP                    40088110 f   libucrtd:87tran.obj
 0001:00087167       __rtinfpopse               40088167     libucrtd:87tran.obj
 0001:00087169       __rtinfnpopse              40088169     libucrtd:87tran.obj
 0001:00087179       __fFLN                     40088179     libucrtd:87tran.obj
 0001:0008722e       __rtinfpop                 4008822e     libucrtd:87tran.obj
 0001:00087230       __rtinfnpop                40088230     libucrtd:87tran.obj
 0001:00087240       __rtforexpinf              40088240 f   libucrtd:87tran.obj
 0001:0008724d       __ffexpm1                  4008824d     libucrtd:87tran.obj
 0001:00087300       __trandisp1                40088300 f   libucrtd:87disp.obj
 0001:00087375       __trandisp2                40088375 f   libucrtd:87disp.obj
 0001:0008740f       __rttospopde               4008840f     libucrtd:87disp.obj
 0001:00087414       __rttospop                 40088414     libucrtd:87disp.obj
 0001:00087420       __rtnospop                 40088420 f   libucrtd:87disp.obj
 0001:00087430       __rttosnpop                40088430 f   libucrtd:87disp.obj
 0001:00087431       __rtnospopde               40088431     libucrtd:87disp.obj
 0001:00087438       __rtzeropop                40088438     libucrtd:87disp.obj
 0001:0008743a       __rtzeronpop               4008843a     libucrtd:87disp.obj
 0001:00087440       __rtzerospop               40088440 f   libucrtd:87disp.obj
 0001:0008744d       __rtonepop                 4008844d     libucrtd:87disp.obj
 0001:00087450       __rtonenpop                40088450 f   libucrtd:87disp.obj
 0001:00087460       __tosnan1                  40088460 f   libucrtd:87disp.obj
 0001:00087490       __nosnan2                  40088490 f   libucrtd:87disp.obj
 0001:000874a0       __tosnan2                  400884a0 f   libucrtd:87disp.obj
 0001:000874d0       __nan2                     400884d0 f   libucrtd:87disp.obj
 0001:00087510       __rtindfpop                40088510 f   libucrtd:87disp.obj
 0001:00087512       __rtindfnpop               40088512     libucrtd:87disp.obj
 0001:00087523       __rttosnpopde              40088523     libucrtd:87disp.obj
 0001:00087530       __rtatan2inf               40088530 f   libucrtd:87disp.obj
 0001:0008754d       __rtchsifneg               4008854d     libucrtd:87disp.obj
 0001:00087560       ___setfflag                40088560 f   libucrtd:fp_flags.obj
 0001:00087580       __twoToTOS                 40088580 f   libucrtd:common.obj
 0001:00087595       __load_CW                  40088595 f   libucrtd:common.obj
 0001:000875ac       __convertTOStoQNaN         400885ac f   libucrtd:common.obj
 0001:000875c5       __fload_withFB             400885c5 f   libucrtd:common.obj
 0001:00087608       __checkTOS_withFB          40088608 f   libucrtd:common.obj
 0001:0008761e       __fast_exit                4008861e f   libucrtd:common.obj
 0001:0008762b       __math_exit                4008862b f   libucrtd:common.obj
 0001:00087655       __check_overflow_exit      40088655 f   libucrtd:common.obj
 0001:00087669       __check_range_exit         40088669 f   libucrtd:common.obj
 0001:00087710       __startTwoArgErrorHandling 40088710 f   libucrtd:genexcep.obj
 0001:00087727       __startOneArgErrorHandling 40088727 f   libucrtd:genexcep.obj
 0001:00087770       __frnd                     40088770 f   libucrtd:frnd.obj
 0001:00087820       ?should_round_up@__crt_strtox@@YA_N_N000@Z 40088820 f i libucrtd:fpexcept.obj
 0001:000878a0       __errcode                  400888a0 f   libucrtd:fpexcept.obj
 0001:000878e0       __except1                  400888e0 f   libucrtd:fpexcept.obj
 0001:00087a20       __except2                  40088a20 f   libucrtd:fpexcept.obj
 0001:00087b70       __fperrraise               40088b70 f   libucrtd:fpexcept.obj
 0001:00087c50       __handle_exc               40088c50 f   libucrtd:fpexcept.obj
 0001:00087fb0       __handle_qnan2             40088fb0 f   libucrtd:fpexcept.obj
 0001:00087fc0       __raise_exc                40088fc0 f   libucrtd:fpexcept.obj
 0001:00087ff0       __raise_exc_ex             40088ff0 f   libucrtd:fpexcept.obj
 0001:00088320       __raise_excf               40089320 f   libucrtd:fpexcept.obj
 0001:00088350       __set_errno_from_matherr   40089350 f   libucrtd:fpexcept.obj
 0001:00088390       __umatherr                 40089390 f   libucrtd:fpexcept.obj
 0001:00088490       __decomp                   40089490 f i libucrtd:frexp.obj
 0001:000885a0       __set_exp                  400895a0 f i libucrtd:frexp.obj
 0001:000885e0       __sptype                   400895e0 f i libucrtd:frexp.obj
 0001:00088680       _frexp                     40089680 f   libucrtd:frexp.obj
 0001:000888a0       ___clrfp_sse2              400898a0 f   libucrtd:fpctrl.obj
 0001:000888e0       ___ctrlfp_sse2             400898e0 f   libucrtd:fpctrl.obj
 0001:00088930       ___fclrf_sse2              40089930 f   libucrtd:fpctrl.obj
 0001:00088950       ___get_fpsr_sse2           40089950 f   libucrtd:fpctrl.obj
 0001:00088970       ___set_fpsr_sse2           40089970 f   libucrtd:fpctrl.obj
 0001:00088a50       ___set_statfp_sse2         40089a50 f   libucrtd:fpctrl.obj
 0001:00088a80       ___statfp_sse2             40089a80 f   libucrtd:fpctrl.obj
 0001:00088ab0       __clrfp                    40089ab0 f   libucrtd:fpctrl.obj
 0001:00088ad0       __ctrlfp                   40089ad0 f   libucrtd:fpctrl.obj
 0001:00088b00       __set_statfp               40089b00 f   libucrtd:fpctrl.obj
 0001:00088b60       __statfp                   40089b60 f   libucrtd:fpctrl.obj
 0001:00088c90       ___dcrt_lowio_ensure_console_output_initialized 40089c90 f   libucrtd:initcon.obj
 0001:00088cc0       ___dcrt_terminate_console_output 40089cc0 f   libucrtd:initcon.obj
 0001:00088cf0       ___dcrt_write_console      40089cf0 f   libucrtd:initcon.obj
 0001:00088d20       ___acrt_LCMapStringW       40089d20 f   libucrtd:lcmapstringw.obj
 0001:00088d80       __d_inttype                40089d80 f   libucrtd:powhlp.obj
 0001:00088e20       __powhlp                   40089e20 f   libucrtd:powhlp.obj
 0001:00089020       __87except                 4008a020 f   libucrtd:87except.obj
 0001:00089160       ??_4@YAAAW4__acrt_fenv_abstract_status@@AAW40@W40@@Z 4008a160 f i libucrtd:fegetexceptflag.obj
 0001:00089170       _fegetexceptflag           4008a170 f   libucrtd:fegetexceptflag.obj
 0001:000891b0       ??S@YA?AW4__acrt_fenv_abstract_status@@W40@@Z 4008a1b0 f i libucrtd:fesetexceptflag.obj
 0001:000891c0       _fesetexceptflag           4008a1c0 f   libucrtd:fesetexceptflag.obj
 0001:00089230       __chgsign                  4008a230 f   libucrtd:ieeemisc.obj
 0001:00089260       __chgsignf                 4008a260 f   libucrtd:ieeemisc.obj
 0001:00089280       __copysign                 4008a280 f   libucrtd:ieeemisc.obj
 0001:000892b0       __copysignf                4008a2b0 f   libucrtd:ieeemisc.obj
 0001:000892e0       __finite                   4008a2e0 f   libucrtd:ieeemisc.obj
 0001:00089300       __fpclass                  4008a300 f   libucrtd:ieeemisc.obj
 0001:000893d0       __isnan                    4008a3d0 f   libucrtd:ieeemisc.obj
 0001:00089430       __logb                     4008a430 f   libucrtd:ieeemisc.obj
 0001:00089550       __nextafter                4008a550 f   libucrtd:ieeemisc.obj
 0001:00089580       __scalb                    4008a580 f   libucrtd:ieeemisc.obj
 0001:000895a0       _fetestexcept              4008a5a0 f   libucrtd:fetestexcept.obj
 0001:000895f0       _ldexp                     4008a5f0 f   libucrtd:ldexp.obj
 0001:000899e0       _nextafter                 4008a9e0 f   libucrtd:nextafter.obj
 0001:00089a30       _nexttoward                4008aa30 f   libucrtd:nexttoward.obj
 0001:00089b70       __d_int                    4008ab70 f i libucrtd:_test.obj
 0001:00089c40       __dtest                    4008ac40 f i libucrtd:_test.obj
 0001:00089cb0       __dtest_inline             4008acb0 f i libucrtd:_test.obj
 0001:00089d20       __fd_int                   4008ad20 f i libucrtd:_test.obj
 0001:00089db0       __fdtest                   4008adb0 f i libucrtd:_test.obj
 0001:00089e10       __fdtest_inline            4008ae10 f i libucrtd:_test.obj
 0001:00089e70       __ld_int                   4008ae70 f i libucrtd:_test.obj
 0001:00089f40       __ldtest                   4008af40 f i libucrtd:_test.obj
 0001:00089fb0       __ldtest_inline            4008afb0 f i libucrtd:_test.obj
 0001:0008a057       _IsDebuggerPresent@0       4008b057 f   kernel32:KERNEL32.dll
 0001:0008a05d       _RaiseException@16         4008b05d f   kernel32:KERNEL32.dll
 0001:0008a063       _MultiByteToWideChar@24    4008b063 f   kernel32:KERNEL32.dll
 0001:0008a069       _WideCharToMultiByte@32    4008b069 f   kernel32:KERNEL32.dll
 0001:0008a06f       _QueryPerformanceCounter@4 4008b06f f   kernel32:KERNEL32.dll
 0001:0008a075       _GetCurrentProcessId@0     4008b075 f   kernel32:KERNEL32.dll
 0001:0008a07b       _GetCurrentThreadId@0      4008b07b f   kernel32:KERNEL32.dll
 0001:0008a081       _GetSystemTimeAsFileTime@4 4008b081 f   kernel32:KERNEL32.dll
 0001:0008a087       _InitializeSListHead@4     4008b087 f   kernel32:KERNEL32.dll
 0001:0008a08d       _UnhandledExceptionFilter@4 4008b08d f   kernel32:KERNEL32.dll
 0001:0008a093       _SetUnhandledExceptionFilter@4 4008b093 f   kernel32:KERNEL32.dll
 0001:0008a099       _GetStartupInfoW@4         4008b099 f   kernel32:KERNEL32.dll
 0001:0008a09f       _IsProcessorFeaturePresent@4 4008b09f f   kernel32:KERNEL32.dll
 0001:0008a0a5       _GetModuleHandleW@4        4008b0a5 f   kernel32:KERNEL32.dll
 0001:0008a0ab       _GetLastError@0            4008b0ab f   kernel32:KERNEL32.dll
 0001:0008a0b1       _HeapAlloc@12              4008b0b1 f   kernel32:KERNEL32.dll
 0001:0008a0b7       _HeapFree@12               4008b0b7 f   kernel32:KERNEL32.dll
 0001:0008a0bd       _GetProcessHeap@0          4008b0bd f   kernel32:KERNEL32.dll
 0001:0008a0c3       _VirtualQuery@12           4008b0c3 f   kernel32:KERNEL32.dll
 0001:0008a0c9       _FreeLibrary@4             4008b0c9 f   kernel32:KERNEL32.dll
 0001:0008a0cf       _GetProcAddress@8          4008b0cf f   kernel32:KERNEL32.dll
 0001:0008a0d5       _GetCurrentProcess@0       4008b0d5 f   kernel32:KERNEL32.dll
 0001:0008a0db       _TerminateProcess@8        4008b0db f   kernel32:KERNEL32.dll
 0001:0008a0e1       _InterlockedPushEntrySList@8 4008b0e1 f   kernel32:KERNEL32.dll
 0001:0008a0e7       _InterlockedFlushSList@4   4008b0e7 f   kernel32:KERNEL32.dll
 0001:0008a0ed       _GetModuleFileNameW@12     4008b0ed f   kernel32:KERNEL32.dll
 0001:0008a0f3       _LoadLibraryExW@12         4008b0f3 f   kernel32:KERNEL32.dll
 0001:0008a0f9       _RtlUnwind@16              4008b0f9 f   kernel32:KERNEL32.dll
 0001:0008a0ff       _SetLastError@4            4008b0ff f   kernel32:KERNEL32.dll
 0001:0008a105       _EnterCriticalSection@4    4008b105 f   kernel32:KERNEL32.dll
 0001:0008a10b       _LeaveCriticalSection@4    4008b10b f   kernel32:KERNEL32.dll
 0001:0008a111       _DeleteCriticalSection@4   4008b111 f   kernel32:KERNEL32.dll
 0001:0008a117       _InitializeCriticalSectionAndSpinCount@8 4008b117 f   kernel32:KERNEL32.dll
 0001:0008a11d       _TlsAlloc@0                4008b11d f   kernel32:KERNEL32.dll
 0001:0008a123       _TlsGetValue@4             4008b123 f   kernel32:KERNEL32.dll
 0001:0008a129       _TlsSetValue@8             4008b129 f   kernel32:KERNEL32.dll
 0001:0008a12f       _TlsFree@4                 4008b12f f   kernel32:KERNEL32.dll
 0001:0008a135       _EncodePointer@4           4008b135 f   kernel32:KERNEL32.dll
 0001:0008a13b       _GetModuleHandleExW@12     4008b13b f   kernel32:KERNEL32.dll
 0001:0008a141       _ExitProcess@4             4008b141 f   kernel32:KERNEL32.dll
 0001:0008a147       _HeapValidate@12           4008b147 f   kernel32:KERNEL32.dll
 0001:0008a14d       _GetSystemInfo@4           4008b14d f   kernel32:KERNEL32.dll
 0001:0008a153       _GetStdHandle@4            4008b153 f   kernel32:KERNEL32.dll
 0001:0008a159       _GetFileType@4             4008b159 f   kernel32:KERNEL32.dll
 0001:0008a15f       _WriteFile@20              4008b15f f   kernel32:KERNEL32.dll
 0001:0008a165       _OutputDebugStringW@4      4008b165 f   kernel32:KERNEL32.dll
 0001:0008a16b       _WriteConsoleW@20          4008b16b f   kernel32:KERNEL32.dll
 0001:0008a171       _SetConsoleCtrlHandler@8   4008b171 f   kernel32:KERNEL32.dll
 0001:0008a177       _GetCurrentThread@0        4008b177 f   kernel32:KERNEL32.dll
 0001:0008a17d       _FindClose@4               4008b17d f   kernel32:KERNEL32.dll
 0001:0008a183       _FindFirstFileExW@24       4008b183 f   kernel32:KERNEL32.dll
 0001:0008a189       _FindNextFileW@8           4008b189 f   kernel32:KERNEL32.dll
 0001:0008a18f       _IsValidCodePage@4         4008b18f f   kernel32:KERNEL32.dll
 0001:0008a195       _GetACP@0                  4008b195 f   kernel32:KERNEL32.dll
 0001:0008a19b       _GetOEMCP@0                4008b19b f   kernel32:KERNEL32.dll
 0001:0008a1a1       _GetCPInfo@8               4008b1a1 f   kernel32:KERNEL32.dll
 0001:0008a1a7       _GetCommandLineA@0         4008b1a7 f   kernel32:KERNEL32.dll
 0001:0008a1ad       _GetCommandLineW@0         4008b1ad f   kernel32:KERNEL32.dll
 0001:0008a1b3       _GetEnvironmentStringsW@0  4008b1b3 f   kernel32:KERNEL32.dll
 0001:0008a1b9       _FreeEnvironmentStringsW@4 4008b1b9 f   kernel32:KERNEL32.dll
 0001:0008a1bf       _SetEnvironmentVariableW@8 4008b1bf f   kernel32:KERNEL32.dll
 0001:0008a1c5       _GetTempPathW@8            4008b1c5 f   kernel32:KERNEL32.dll
 0001:0008a1cb       _FlsAlloc@4                4008b1cb f   kernel32:KERNEL32.dll
 0001:0008a1d1       _FlsGetValue@4             4008b1d1 f   kernel32:KERNEL32.dll
 0001:0008a1d7       _FlsSetValue@8             4008b1d7 f   kernel32:KERNEL32.dll
 0001:0008a1dd       _FlsFree@4                 4008b1dd f   kernel32:KERNEL32.dll
 0001:0008a1e3       _IsThreadAFiber@0          4008b1e3 f   kernel32:KERNEL32.dll
 0001:0008a1e9       _InitializeCriticalSectionEx@12 4008b1e9 f   kernel32:KERNEL32.dll
 0001:0008a1ef       _VirtualProtect@16         4008b1ef f   kernel32:KERNEL32.dll
 0001:0008a1f5       _GetDateFormatW@24         4008b1f5 f   kernel32:KERNEL32.dll
 0001:0008a1fb       _GetTimeFormatW@24         4008b1fb f   kernel32:KERNEL32.dll
 0001:0008a201       _CompareStringW@24         4008b201 f   kernel32:KERNEL32.dll
 0001:0008a207       _LCMapStringW@24           4008b207 f   kernel32:KERNEL32.dll
 0001:0008a20d       _GetLocaleInfoW@16         4008b20d f   kernel32:KERNEL32.dll
 0001:0008a213       _IsValidLocale@8           4008b213 f   kernel32:KERNEL32.dll
 0001:0008a219       _GetUserDefaultLCID@0      4008b219 f   kernel32:KERNEL32.dll
 0001:0008a21f       _EnumSystemLocalesW@8      4008b21f f   kernel32:KERNEL32.dll
 0001:0008a225       _HeapReAlloc@16            4008b225 f   kernel32:KERNEL32.dll
 0001:0008a22b       _HeapSize@12               4008b22b f   kernel32:KERNEL32.dll
 0001:0008a231       _HeapQueryInformation@20   4008b231 f   kernel32:KERNEL32.dll
 0001:0008a237       _GetFileSizeEx@8           4008b237 f   kernel32:KERNEL32.dll
 0001:0008a23d       _SetFilePointerEx@20       4008b23d f   kernel32:KERNEL32.dll
 0001:0008a243       _GetStringTypeW@16         4008b243 f   kernel32:KERNEL32.dll
 0001:0008a249       _SetStdHandle@8            4008b249 f   kernel32:KERNEL32.dll
 0001:0008a24f       _FlushFileBuffers@4        4008b24f f   kernel32:KERNEL32.dll
 0001:0008a255       _GetConsoleOutputCP@0      4008b255 f   kernel32:KERNEL32.dll
 0001:0008a25b       _GetConsoleMode@8          4008b25b f   kernel32:KERNEL32.dll
 0001:0008a261       _DecodePointer@4           4008b261 f   kernel32:KERNEL32.dll
 0001:0008a267       _CloseHandle@4             4008b267 f   kernel32:KERNEL32.dll
 0001:0008a26d       _ReadFile@20               4008b26d f   kernel32:KERNEL32.dll
 0001:0008a273       _ReadConsoleW@20           4008b273 f   kernel32:KERNEL32.dll
 0001:0008a279       _CreateFileW@28            4008b279 f   kernel32:KERNEL32.dll
 0001:0008a280       __FindPESection            4008b280 f   LIBCMTD:pesect.obj
 0001:0008a300       __IsNonwritableInCurrentImage 4008b300 f   LIBCMTD:pesect.obj
 0001:0008a430       __ValidateImageBase        4008b430 f   LIBCMTD:pesect.obj
 0001:0008a490       ??1type_info@@UAE@XZ       4008b490 f   LIBCMTD:std_type_info_static.obj
 0001:0008a4b0       ??_Etype_info@@UAEPAXI@Z   4008b4b0 f i LIBCMTD:std_type_info_static.obj
 0001:0008a4b0       ??_Gtype_info@@UAEPAXI@Z   4008b4b0 f i LIBCMTD:std_type_info_static.obj
 0001:0008a4e0       __allshl                   4008b4e0 f   LIBCMTD:llshl.obj
 0001:0008a500       __aulldiv                  4008b500 f   LIBCMTD:ulldiv.obj
 0001:0008a570       __aullrem                  4008b570 f   LIBCMTD:ullrem.obj
 0001:0008a5f0       ??3@YAXPAXI@Z              4008b5f0 f   LIBCMTD:delete_scalar_size.obj
 0001:0008a610       __alloca_probe             4008b610 f   LIBCMTD:chkstk.obj
 0001:0008a610       __chkstk                   4008b610 f   LIBCMTD:chkstk.obj
 0001:0008a640       __allmul                   4008b640 f   LIBCMTD:llmul.obj
 0001:0008a680       __alldiv                   4008b680 f   LIBCMTD:lldiv.obj
 0001:0008a730       __allrem                   4008b730 f   LIBCMTD:llrem.obj
 0001:0008a7f0       __aullshr                  4008b7f0 f   LIBCMTD:ullshr.obj
 0001:0008a810       __alloca_probe_16          4008b810 f   LIBCMTD:alloca16.obj
 0001:0008a826       __alloca_probe_8           4008b826     LIBCMTD:alloca16.obj
 0001:0008a840       __ftol2_sse_excpt          4008b840 f   LIBCMTD:ftol2.obj
 0001:0008a850       __ftol2_sse                4008b850 f   LIBCMTD:ftol2.obj
 0001:0008a860       __ftoi2                    4008b860 f   LIBCMTD:ftol2.obj
 0001:0008a8e0       __ftoui2                   4008b8e0 f   LIBCMTD:ftol2.obj
 0001:0008a990       __ftol2                    4008b990 f   LIBCMTD:ftol2.obj
 0001:0008aa40       __ftoul2                   4008ba40 f   LIBCMTD:ftol2.obj
 0001:0008ab00       __ftoul2_legacy            4008bb00 f   LIBCMTD:ftol2.obj
 0001:0008ab20       __initialize_default_precision 4008bb20 f   LIBCMTD:default_precision.obj
 0001:0008ab50       ??3@YAXPAX@Z               4008bb50 f   LIBCMTD:delete_scalar.obj
 0001:0008ab70       _strrchr                   4008bb70 f   libvcruntimed:strrchr.obj
 0001:0008ae60       _memcmp                    4008be60 f   libvcruntimed:memcmp.obj
 0001:0008b730       _strchr                    4008c730 f   libvcruntimed:strchr.obj
 0001:0008b79e       ___from_strstr_to_strchr   4008c79e     libvcruntimed:strchr.obj
 0001:0008b860       _wcschr                    4008c860 f   libvcruntimed:wcschr.obj
 0001:0008b9d0       __filter_x86_sse2_floating_point_exception 4008c9d0 f   LIBCMTD:x86_exception_filter.obj
 0001:0008b9d0       __filter_x86_sse2_floating_point_exception_default 4008c9d0 f   LIBCMTD:x86_exception_filter.obj
 0002:00000000       __imp__IsDebuggerPresent@0 4008e000     kernel32:KERNEL32.dll
 0002:00000004       __imp__RaiseException@16   4008e004     kernel32:KERNEL32.dll
 0002:00000008       __imp__MultiByteToWideChar@24 4008e008     kernel32:KERNEL32.dll
 0002:0000000c       __imp__WideCharToMultiByte@32 4008e00c     kernel32:KERNEL32.dll
 0002:00000010       __imp__QueryPerformanceCounter@4 4008e010     kernel32:KERNEL32.dll
 0002:00000014       __imp__GetCurrentProcessId@0 4008e014     kernel32:KERNEL32.dll
 0002:00000018       __imp__GetCurrentThreadId@0 4008e018     kernel32:KERNEL32.dll
 0002:0000001c       __imp__GetSystemTimeAsFileTime@4 4008e01c     kernel32:KERNEL32.dll
 0002:00000020       __imp__InitializeSListHead@4 4008e020     kernel32:KERNEL32.dll
 0002:00000024       __imp__UnhandledExceptionFilter@4 4008e024     kernel32:KERNEL32.dll
 0002:00000028       __imp__SetUnhandledExceptionFilter@4 4008e028     kernel32:KERNEL32.dll
 0002:0000002c       __imp__GetStartupInfoW@4   4008e02c     kernel32:KERNEL32.dll
 0002:00000030       __imp__IsProcessorFeaturePresent@4 4008e030     kernel32:KERNEL32.dll
 0002:00000034       __imp__GetModuleHandleW@4  4008e034     kernel32:KERNEL32.dll
 0002:00000038       __imp__GetLastError@0      4008e038     kernel32:KERNEL32.dll
 0002:0000003c       __imp__HeapAlloc@12        4008e03c     kernel32:KERNEL32.dll
 0002:00000040       __imp__HeapFree@12         4008e040     kernel32:KERNEL32.dll
 0002:00000044       __imp__GetProcessHeap@0    4008e044     kernel32:KERNEL32.dll
 0002:00000048       __imp__VirtualQuery@12     4008e048     kernel32:KERNEL32.dll
 0002:0000004c       __imp__FreeLibrary@4       4008e04c     kernel32:KERNEL32.dll
 0002:00000050       __imp__GetProcAddress@8    4008e050     kernel32:KERNEL32.dll
 0002:00000054       __imp__GetCurrentProcess@0 4008e054     kernel32:KERNEL32.dll
 0002:00000058       __imp__TerminateProcess@8  4008e058     kernel32:KERNEL32.dll
 0002:0000005c       __imp__InterlockedPushEntrySList@8 4008e05c     kernel32:KERNEL32.dll
 0002:00000060       __imp__InterlockedFlushSList@4 4008e060     kernel32:KERNEL32.dll
 0002:00000064       __imp__GetModuleFileNameW@12 4008e064     kernel32:KERNEL32.dll
 0002:00000068       __imp__LoadLibraryExW@12   4008e068     kernel32:KERNEL32.dll
 0002:0000006c       __imp__RtlUnwind@16        4008e06c     kernel32:KERNEL32.dll
 0002:00000070       __imp__SetLastError@4      4008e070     kernel32:KERNEL32.dll
 0002:00000074       __imp__EnterCriticalSection@4 4008e074     kernel32:KERNEL32.dll
 0002:00000078       __imp__LeaveCriticalSection@4 4008e078     kernel32:KERNEL32.dll
 0002:0000007c       __imp__DeleteCriticalSection@4 4008e07c     kernel32:KERNEL32.dll
 0002:00000080       __imp__InitializeCriticalSectionAndSpinCount@8 4008e080     kernel32:KERNEL32.dll
 0002:00000084       __imp__TlsAlloc@0          4008e084     kernel32:KERNEL32.dll
 0002:00000088       __imp__TlsGetValue@4       4008e088     kernel32:KERNEL32.dll
 0002:0000008c       __imp__TlsSetValue@8       4008e08c     kernel32:KERNEL32.dll
 0002:00000090       __imp__TlsFree@4           4008e090     kernel32:KERNEL32.dll
 0002:00000094       __imp__EncodePointer@4     4008e094     kernel32:KERNEL32.dll
 0002:00000098       __imp__GetModuleHandleExW@12 4008e098     kernel32:KERNEL32.dll
 0002:0000009c       __imp__ExitProcess@4       4008e09c     kernel32:KERNEL32.dll
 0002:000000a0       __imp__HeapValidate@12     4008e0a0     kernel32:KERNEL32.dll
 0002:000000a4       __imp__GetSystemInfo@4     4008e0a4     kernel32:KERNEL32.dll
 0002:000000a8       __imp__GetStdHandle@4      4008e0a8     kernel32:KERNEL32.dll
 0002:000000ac       __imp__GetFileType@4       4008e0ac     kernel32:KERNEL32.dll
 0002:000000b0       __imp__WriteFile@20        4008e0b0     kernel32:KERNEL32.dll
 0002:000000b4       __imp__OutputDebugStringW@4 4008e0b4     kernel32:KERNEL32.dll
 0002:000000b8       __imp__WriteConsoleW@20    4008e0b8     kernel32:KERNEL32.dll
 0002:000000bc       __imp__SetConsoleCtrlHandler@8 4008e0bc     kernel32:KERNEL32.dll
 0002:000000c0       __imp__GetCurrentThread@0  4008e0c0     kernel32:KERNEL32.dll
 0002:000000c4       __imp__FindClose@4         4008e0c4     kernel32:KERNEL32.dll
 0002:000000c8       __imp__FindFirstFileExW@24 4008e0c8     kernel32:KERNEL32.dll
 0002:000000cc       __imp__FindNextFileW@8     4008e0cc     kernel32:KERNEL32.dll
 0002:000000d0       __imp__IsValidCodePage@4   4008e0d0     kernel32:KERNEL32.dll
 0002:000000d4       __imp__GetACP@0            4008e0d4     kernel32:KERNEL32.dll
 0002:000000d8       __imp__GetOEMCP@0          4008e0d8     kernel32:KERNEL32.dll
 0002:000000dc       __imp__GetCPInfo@8         4008e0dc     kernel32:KERNEL32.dll
 0002:000000e0       __imp__GetCommandLineA@0   4008e0e0     kernel32:KERNEL32.dll
 0002:000000e4       __imp__GetCommandLineW@0   4008e0e4     kernel32:KERNEL32.dll
 0002:000000e8       __imp__GetEnvironmentStringsW@0 4008e0e8     kernel32:KERNEL32.dll
 0002:000000ec       __imp__FreeEnvironmentStringsW@4 4008e0ec     kernel32:KERNEL32.dll
 0002:000000f0       __imp__SetEnvironmentVariableW@8 4008e0f0     kernel32:KERNEL32.dll
 0002:000000f4       __imp__GetTempPathW@8      4008e0f4     kernel32:KERNEL32.dll
 0002:000000f8       __imp__FlsAlloc@4          4008e0f8     kernel32:KERNEL32.dll
 0002:000000fc       __imp__FlsGetValue@4       4008e0fc     kernel32:KERNEL32.dll
 0002:00000100       __imp__FlsSetValue@8       4008e100     kernel32:KERNEL32.dll
 0002:00000104       __imp__FlsFree@4           4008e104     kernel32:KERNEL32.dll
 0002:00000108       __imp__IsThreadAFiber@0    4008e108     kernel32:KERNEL32.dll
 0002:0000010c       __imp__InitializeCriticalSectionEx@12 4008e10c     kernel32:KERNEL32.dll
 0002:00000110       __imp__VirtualProtect@16   4008e110     kernel32:KERNEL32.dll
 0002:00000114       __imp__GetDateFormatW@24   4008e114     kernel32:KERNEL32.dll
 0002:00000118       __imp__GetTimeFormatW@24   4008e118     kernel32:KERNEL32.dll
 0002:0000011c       __imp__CompareStringW@24   4008e11c     kernel32:KERNEL32.dll
 0002:00000120       __imp__LCMapStringW@24     4008e120     kernel32:KERNEL32.dll
 0002:00000124       __imp__GetLocaleInfoW@16   4008e124     kernel32:KERNEL32.dll
 0002:00000128       __imp__IsValidLocale@8     4008e128     kernel32:KERNEL32.dll
 0002:0000012c       __imp__GetUserDefaultLCID@0 4008e12c     kernel32:KERNEL32.dll
 0002:00000130       __imp__EnumSystemLocalesW@8 4008e130     kernel32:KERNEL32.dll
 0002:00000134       __imp__HeapReAlloc@16      4008e134     kernel32:KERNEL32.dll
 0002:00000138       __imp__HeapSize@12         4008e138     kernel32:KERNEL32.dll
 0002:0000013c       __imp__HeapQueryInformation@20 4008e13c     kernel32:KERNEL32.dll
 0002:00000140       __imp__GetFileSizeEx@8     4008e140     kernel32:KERNEL32.dll
 0002:00000144       __imp__SetFilePointerEx@20 4008e144     kernel32:KERNEL32.dll
 0002:00000148       __imp__GetStringTypeW@16   4008e148     kernel32:KERNEL32.dll
 0002:0000014c       __imp__SetStdHandle@8      4008e14c     kernel32:KERNEL32.dll
 0002:00000150       __imp__FlushFileBuffers@4  4008e150     kernel32:KERNEL32.dll
 0002:00000154       __imp__GetConsoleOutputCP@0 4008e154     kernel32:KERNEL32.dll
 0002:00000158       __imp__GetConsoleMode@8    4008e158     kernel32:KERNEL32.dll
 0002:0000015c       __imp__DecodePointer@4     4008e15c     kernel32:KERNEL32.dll
 0002:00000160       __imp__CloseHandle@4       4008e160     kernel32:KERNEL32.dll
 0002:00000164       __imp__ReadFile@20         4008e164     kernel32:KERNEL32.dll
 0002:00000168       __imp__ReadConsoleW@20     4008e168     kernel32:KERNEL32.dll
 0002:0000016c       __imp__CreateFileW@28      4008e16c     kernel32:KERNEL32.dll
 0002:00000170       \177KERNEL32_NULL_THUNK_DATA 4008e170     kernel32:KERNEL32.dll
 0002:00000174       ___guard_check_icall_fptr  4008e174     LIBCMTD:guard_support.obj
 0002:00000178       ___guard_xfg_check_icall_fptr 4008e178     LIBCMTD:guard_support.obj
 0002:0000017c       ___castguard_check_failure_os_handled_fptr 4008e17c     LIBCMTD:guard_support.obj
 0002:00000180       ___xc_a                    4008e180     LIBCMTD:initializers.obj
 0002:00000184       ___xc_z                    4008e184     LIBCMTD:initializers.obj
 0002:00000188       ___xi_a                    4008e188     LIBCMTD:initializers.obj
 0002:0000018c       ___acrt_stdio_initializer  4008e18c     libucrtd:stdio_initializer.obj
 0002:00000190       ___acrt_multibyte_initializer 4008e190     libucrtd:multibyte_initializer.obj
 0002:00000194       ___acrt_tran_sse2_initializer 4008e194     libucrtd:sse2_initializer.obj
 0002:00000198       ___xi_z                    4008e198     LIBCMTD:initializers.obj
 0002:0000019c       ___xp_a                    4008e19c     LIBCMTD:initializers.obj
 0002:000001a0       ___acrt_locale_terminator  4008e1a0     libucrtd:locale_initializer.obj
 0002:000001a4       ___dcrt_console_output_terminator 4008e1a4     libucrtd:console_output_initializer.obj
 0002:000001a8       ___acrt_stdio_terminator   4008e1a8     libucrtd:stdio_initializer.obj
 0002:000001ac       ___xp_z                    4008e1ac     LIBCMTD:initializers.obj
 0002:000001b0       ___xt_a                    4008e1b0     LIBCMTD:initializers.obj
 0002:000001b4       ___xt_z                    4008e1b4     LIBCMTD:initializers.obj
 0002:000001c0       __pDefaultRawDllMain       4008e1c0     LIBCMTD:dll_dllmain.obj
 0002:000001c0       __pRawDllMain              4008e1c0     LIBCMTD:dll_dllmain.obj
 0002:00000260       ??_C@_0NN@JMPELKLB@The?5value?5of?5ESP?5was?5not?5proper@ 4008e260     LIBCMTD:error.obj
 0002:00000340       ??_C@_0BBN@ELNNILBE@A?5cast?5to?5a?5smaller?5data?5type?5h@ 4008e340     LIBCMTD:error.obj
 0002:00000460       ??_C@_0BN@BPOGFMJL@Stack?5memory?5was?5corrupted?$AN?6@ 4008e460     LIBCMTD:error.obj
 0002:00000480       ??_C@_0DG@DAJCDLPN@A?5local?5variable?5was?5used?5befor@ 4008e480     LIBCMTD:error.obj
 0002:000004b8       ??_C@_0CM@JMIDGKLA@Stack?5memory?5around?5_alloca?5was@ 4008e4b8     LIBCMTD:error.obj
 0002:000004e4       ??_C@_0BO@CHIONIOI@Unknown?5Runtime?5Check?5Error?$AN?6@ 4008e4e4     LIBCMTD:error.obj
 0002:00000508       ??_C@_1GM@CNOOJIHC@?$AAR?$AAu?$AAn?$AAt?$AAi?$AAm?$AAe?$AA?5?$AAC?$AAh?$AAe?$AAc?$AAk?$AA?5?$AAE@ 4008e508     LIBCMTD:error.obj
 0002:00000578       ??_C@_1EA@NFKNIFJP@?$AAR?$AAu?$AAn?$AA?9?$AAT?$AAi?$AAm?$AAe?$AA?5?$AAC?$AAh?$AAe?$AAc?$AAk?$AA?5@ 4008e578     LIBCMTD:error.obj
 0002:000005b8       ??_C@_0BB@PFFGGCJP@Unknown?5Filename@ 4008e5b8     LIBCMTD:error.obj
 0002:000005cc       ??_C@_0BE@GNBOBNCK@Unknown?5Module?5Name@ 4008e5cc     LIBCMTD:error.obj
 0002:000005e0       ??_C@_0CA@IODNCDPG@Run?9Time?5Check?5Failure?5?$CD?$CFd?5?9?5?$CFs@ 4008e5e0     LIBCMTD:error.obj
 0002:00000600       ??_C@_0CG@IAFNJNEE@Stack?5corrupted?5near?5unknown?5va@ 4008e600     LIBCMTD:error.obj
 0002:00000628       ??_C@_05MKKEDADM@?$CF?42X?5@ 4008e628     LIBCMTD:error.obj
 0002:00000630       ??_C@_0EJ@LJKNEOLN@Stack?5area?5around?5_alloca?5memor@ 4008e630     LIBCMTD:error.obj
 0002:0000067c       ??_C@_01EEMJAFIK@?6@       4008e67c     LIBCMTD:error.obj
 0002:00000680       ??_C@_02LLMPMKNF@?$DO?5@   4008e680     LIBCMTD:error.obj
 0002:00000684       ??_C@_08OMAHNMHJ@?6Data?3?5?$DM@ 4008e684     LIBCMTD:error.obj
 0002:00000690       ??_C@_0CK@DKGBICFE@?6Allocation?5number?5within?5this?5@ 4008e690     LIBCMTD:error.obj
 0002:000006bc       ??_C@_07DFDJCKFN@?6Size?3?5@ 4008e6bc     LIBCMTD:error.obj
 0002:000006c4       ??_C@_0N@MHFFIMFG@?6Address?3?50x@ 4008e6c4     LIBCMTD:error.obj
 0002:000006d8       ??_C@_0EI@CLEPFNGI@Stack?5area?5around?5_alloca?5memor@ 4008e6d8     LIBCMTD:error.obj
 0002:00000720       ??_C@_0BK@ODNDAGKB@?$CFs?$CFs?$CFp?$CFs?$CFzd?$CFs?$CFd?$CFs?$CFs?$CFs?$CFs?$CFs@ 4008e720     LIBCMTD:error.obj
 0002:0000073c       ??_C@_0DE@OHJBPMBP@A?5variable?5is?5being?5used?5withou@ 4008e73c     LIBCMTD:error.obj
 0002:00000784       ??_C@_0BJ@HEGAHDFO@Stack?5pointer?5corruption@ 4008e784     LIBCMTD:userapi.obj
 0002:000007a0       ??_C@_0CK@FEGOIOPB@Cast?5to?5smaller?5type?5causing?5lo@ 4008e7a0     LIBCMTD:userapi.obj
 0002:000007cc       ??_C@_0BI@CIGMDCBH@Stack?5memory?5corruption@ 4008e7cc     LIBCMTD:userapi.obj
 0002:000007e4       ??_C@_0CK@CNLNOEPB@Local?5variable?5used?5before?5init@ 4008e7e4     LIBCMTD:userapi.obj
 0002:00000810       ??_C@_0BP@OGBCLIBO@Stack?5around?5_alloca?5corrupted@ 4008e810     LIBCMTD:userapi.obj
 0002:00000878       ??_C@_1EI@MLPKHBGE@?$AAa?$AAp?$AAi?$AA?9?$AAm?$AAs?$AA?9?$AAw?$AAi?$AAn?$AA?9?$AAc?$AAo?$AAr?$AAe@ 4008e878     LIBCMTD:pdblkup.obj
 0002:000008c0       ??_C@_1BK@JHLNAEJL@?$AAa?$AAd?$AAv?$AAa?$AAp?$AAi?$AA3?$AA2?$AA?4?$AAd?$AAl?$AAl@ 4008e8c0     LIBCMTD:pdblkup.obj
 0002:000008dc       ??_C@_0O@COHOBMLB@RegOpenKeyExW@ 4008e8dc     LIBCMTD:pdblkup.obj
 0002:000008ec       ??_C@_0BB@GLNAEDBD@RegQueryValueExW@ 4008e8ec     LIBCMTD:pdblkup.obj
 0002:00000900       ??_C@_0M@HLOHPNFA@RegCloseKey@ 4008e900     LIBCMTD:pdblkup.obj
 0002:00000910       ??_C@_1HE@EBEAGLFB@?$AAS?$AAO?$AAF?$AAT?$AAW?$AAA?$AAR?$AAE?$AA?2?$AAW?$AAo?$AAw?$AA6?$AA4?$AA3@ 4008e910     LIBCMTD:pdblkup.obj
 0002:00000984       ??_C@_1BG@EABPBLLF@?$AAP?$AAr?$AAo?$AAd?$AAu?$AAc?$AAt?$AAD?$AAi?$AAr@ 4008e984     LIBCMTD:pdblkup.obj
 0002:000009b8       ??_C@_1BC@JINFINNJ@?$AAM?$AAS?$AAP?$AAD?$AAB?$AA1?$AA4?$AA0@ 4008e9b8     LIBCMTD:pdblkup.obj
 0002:000009cc       ??_C@_0BB@KCIACLNC@PDBOpenValidate5@ 4008e9cc     LIBCMTD:pdblkup.obj
 0002:000009e0       ??_C@_01KDCPPGHE@r@        4008e9e0     LIBCMTD:pdblkup.obj
 0002:000009f0       ??_C@_0EC@CDJPIOJK@D?3?2a?2_work?21?2s?2src?2vctools?2crt?2@ 4008e9f0     libvcruntimed:std_type_info.obj
 0002:00000a34       __pDestructExceptionObject 4008ea34     libvcruntimed:ehhelpers.obj
 0002:00000dc0       ??_C@_08EHJDFFNH@__based?$CI@ 4008edc0     libvcruntimed:undname.obj
 0002:00000dcc       ??_C@_07KOLFKCDI@__cdecl@  4008edcc     libvcruntimed:undname.obj
 0002:00000dd4       ??_C@_09IFJBGAPI@__stdcall@ 4008edd4     libvcruntimed:undname.obj
 0002:00000de0       ??_C@_0L@NPHFGOKO@__thiscall@ 4008ede0     libvcruntimed:undname.obj
 0002:00000dec       ??_C@_0L@JMKHOMEK@__fastcall@ 4008edec     libvcruntimed:undname.obj
 0002:00000df8       ??_C@_0N@BCKKPABJ@__vectorcall@ 4008edf8     libvcruntimed:undname.obj
 0002:00000e08       ??_C@_0BA@NAGGFLJK@__preserve_none@ 4008ee08     libvcruntimed:undname.obj
 0002:00000e18       ??_C@_09HIJEGCPM@__clrcall@ 4008ee18     libvcruntimed:undname.obj
 0002:00000e24       ??_C@_06GHPCKEAG@__eabi@   4008ee24     libvcruntimed:undname.obj
 0002:00000e2c       ??_C@_09IOPIDJLG@__swift_1@ 4008ee2c     libvcruntimed:undname.obj
 0002:00000e38       ??_C@_09KFNFGKHF@__swift_2@ 4008ee38     libvcruntimed:undname.obj
 0002:00000e44       ??_C@_09LMMOFLDE@__swift_3@ 4008ee44     libvcruntimed:undname.obj
 0002:00000e50       ??_C@_07JOMMBBKO@__ptr64@  4008ee50     libvcruntimed:undname.obj
 0002:00000e58       ??_C@_0L@PILCLIHE@__restrict@ 4008ee58     libvcruntimed:undname.obj
 0002:00000e64       ??_C@_0M@GFIIJFMG@__unaligned@ 4008ee64     libvcruntimed:undname.obj
 0002:00000e70       ??_C@_09DHDLOLLB@restrict?$CI@ 4008ee70     libvcruntimed:undname.obj
 0002:00000e7a       ??_C@_00CNPNBAHC@@         4008ee7a     libvcruntimed:undname.obj
 0002:00000e7c       ??_C@_04NIHEBCM@?5new@     4008ee7c     libvcruntimed:undname.obj
 0002:00000e84       ??_C@_07FPCDHGMM@?5delete@ 4008ee84     libvcruntimed:undname.obj
 0002:00000e8c       ??_C@_01NEMOKFLO@?$DN@     4008ee8c     libvcruntimed:undname.obj
 0002:00000e90       ??_C@_02GPIOPFAK@?$DO?$DO@ 4008ee90     libvcruntimed:undname.obj
 0002:00000e94       ??_C@_02FODMEDOG@?$DM?$DM@ 4008ee94     libvcruntimed:undname.obj
 0002:00000e98       ??_C@_01DCLJPIOD@?$CB@     4008ee98     libvcruntimed:undname.obj
 0002:00000e9c       ??_C@_02EGOFBIJA@?$DN?$DN@ 4008ee9c     libvcruntimed:undname.obj
 0002:00000ea0       ??_C@_02FDNJECIE@?$CB?$DN@ 4008eea0     libvcruntimed:undname.obj
 0002:00000ea4       ??_C@_02GPECMEKF@?$FL?$FN@ 4008eea4     libvcruntimed:undname.obj
 0002:00000ea8       ??_C@_08LHJFAFGD@operator@ 4008eea8     libvcruntimed:undname.obj
 0002:00000eb4       ??_C@_02HBOOOICD@?9?$DO@   4008eeb4     libvcruntimed:undname.obj
 0002:00000eb8       ??_C@_01NBENCBCI@?$CK@     4008eeb8     libvcruntimed:undname.obj
 0002:00000ebc       ??_C@_02ECNGHCIF@?$CL?$CL@ 4008eebc     libvcruntimed:undname.obj
 0002:00000ec0       ??_C@_02BAABKJLB@?9?9@     4008eec0     libvcruntimed:undname.obj
 0002:00000ec4       ??_C@_01JOAMLHOP@?9@       4008eec4     libvcruntimed:undname.obj
 0002:00000ec8       ??_C@_01MIFGBAGJ@?$CL@     4008eec8     libvcruntimed:undname.obj
 0002:00000ecc       ??_C@_01HNPIGOCE@?$CG@     4008eecc     libvcruntimed:undname.obj
 0002:00000ed0       ??_C@_03MNHNFDLC@?9?$DO?$CK@ 4008eed0     libvcruntimed:undname.obj
 0002:00000ed4       ??_C@_01KMDKNFGN@?1@       4008eed4     libvcruntimed:undname.obj
 0002:00000ed8       ??_C@_01FGNFDNOH@?$CF@     4008eed8     libvcruntimed:undname.obj
 0002:00000edc       ??_C@_01MNNFJEPP@?$DM@     4008eedc     libvcruntimed:undname.obj
 0002:00000ee0       ??_C@_02EHCHHCKH@?$DM?$DN@ 4008eee0     libvcruntimed:undname.obj
 0002:00000ee4       ??_C@_01PPODPGHN@?$DO@     4008eee4     libvcruntimed:undname.obj
 0002:00000ee8       ??_C@_02EEKDKGMJ@?$DO?$DN@ 4008eee8     libvcruntimed:undname.obj
 0002:00000eec       ??_C@_01IHBHIGKO@?0@       4008eeec     libvcruntimed:undname.obj
 0002:00000ef0       ??_C@_02HCKGKOFO@?$CI?$CJ@ 4008eef0     libvcruntimed:undname.obj
 0002:00000ef4       ??_C@_01PJKLJHI@?$HO@      4008eef4     libvcruntimed:undname.obj
 0002:00000ef8       ??_C@_01JKBOJNNK@?$FO@     4008eef8     libvcruntimed:undname.obj
 0002:00000efc       ??_C@_01DNKMNLPK@?$HM@     4008eefc     libvcruntimed:undname.obj
 0002:00000f00       ??_C@_02PPKAJPJL@?$CG?$CG@ 4008ef00     libvcruntimed:undname.obj
 0002:00000f04       ??_C@_02NONPIBCD@?$HM?$HM@ 4008ef04     libvcruntimed:undname.obj
 0002:00000f08       ??_C@_02FPIMKNGF@?$CK?$DN@ 4008ef08     libvcruntimed:undname.obj
 0002:00000f0c       ??_C@_02FOEOMHFC@?$CL?$DN@ 4008ef0c     libvcruntimed:undname.obj
 0002:00000f10       ??_C@_02FKMDLLOA@?9?$DN@   4008ef10     libvcruntimed:undname.obj
 0002:00000f14       ??_C@_02FJEHGPIO@?1?$DN@   4008ef14     libvcruntimed:undname.obj
 0002:00000f18       ??_C@_02FENAOKFI@?$CF?$DN@ 4008ef18     libvcruntimed:undname.obj
 0002:00000f1c       ??_C@_03IKFCCPFF@?$DO?$DO?$DN@ 4008ef1c     libvcruntimed:undname.obj
 0002:00000f20       ??_C@_03CDNPDDLA@?$DM?$DM?$DN@ 4008ef20     libvcruntimed:undname.obj
 0002:00000f24       ??_C@_02FGJGFEAB@?$CG?$DN@ 4008ef24     libvcruntimed:undname.obj
 0002:00000f28       ??_C@_02DHLNPPGH@?$HM?$DN@ 4008ef28     libvcruntimed:undname.obj
 0002:00000f2c       ??_C@_02MHEGNOJ@?$FO?$DN@  4008ef2c     libvcruntimed:undname.obj
 0002:00000f30       ??_C@_09IFPLHPGF@?$GAvftable?8@ 4008ef30     libvcruntimed:undname.obj
 0002:00000f3c       ??_C@_09BLBHBJP@?$GAvbtable?8@ 4008ef3c     libvcruntimed:undname.obj
 0002:00000f48       ??_C@_07FEEIOKP@?$GAvcall?8@ 4008ef48     libvcruntimed:undname.obj
 0002:00000f50       ??_C@_08LLFFHHDJ@?$GAtypeof?8@ 4008ef50     libvcruntimed:undname.obj
 0002:00000f5c       ??_C@_0BF@KDPPACIK@?$GAlocal?5static?5guard?8@ 4008ef5c     libvcruntimed:undname.obj
 0002:00000f74       ??_C@_08OBABFOLI@?$GAstring?8@ 4008ef74     libvcruntimed:undname.obj
 0002:00000f80       ??_C@_0BD@JDLKDPAB@?$GAvbase?5destructor?8@ 4008ef80     libvcruntimed:undname.obj
 0002:00000f94       ??_C@_0BN@DEGPLNFK@?$GAvector?5deleting?5destructor?8@ 4008ef94     libvcruntimed:undname.obj
 0002:00000fb4       ??_C@_0BO@OBMKPJIG@?$GAdefault?5constructor?5closure?8@ 4008efb4     libvcruntimed:undname.obj
 0002:00000fd4       ??_C@_0BN@IMDCHIKM@?$GAscalar?5deleting?5destructor?8@ 4008efd4     libvcruntimed:undname.obj
 0002:00000ff4       ??_C@_0BO@PFGOCPJJ@?$GAvector?5constructor?5iterator?8@ 4008eff4     libvcruntimed:undname.obj
 0002:00001014       ??_C@_0BN@LFPFMEDL@?$GAvector?5destructor?5iterator?8@ 4008f014     libvcruntimed:undname.obj
 0002:00001034       ??_C@_0CE@IKBNEHA@?$GAvector?5vbase?5constructor?5itera@ 4008f034     libvcruntimed:undname.obj
 0002:00001058       ??_C@_0BL@NILFHHPC@?$GAvirtual?5displacement?5map?8@ 4008f058     libvcruntimed:undname.obj
 0002:00001074       ??_C@_0CB@JONCMFFK@?$GAeh?5vector?5constructor?5iterator@ 4008f074     libvcruntimed:undname.obj
 0002:00001098       ??_C@_0CA@GCEOPDGL@?$GAeh?5vector?5destructor?5iterator?8@ 4008f098     libvcruntimed:undname.obj
 0002:000010b8       ??_C@_0CH@OOJPLCPH@?$GAeh?5vector?5vbase?5constructor?5it@ 4008f0b8     libvcruntimed:undname.obj
 0002:000010e0       ??_C@_0BL@LLKPOHJI@?$GAcopy?5constructor?5closure?8@ 4008f0e0     libvcruntimed:undname.obj
 0002:000010fc       ??_C@_0BA@KBCDOMBN@?$GAudt?5returning?8@ 4008f0fc     libvcruntimed:undname.obj
 0002:0000110c       ??_C@_03KLGMFNMG@?$GAEH@   4008f10c     libvcruntimed:undname.obj
 0002:00001110       ??_C@_05KHLCHHI@?$GARTTI@  4008f110     libvcruntimed:undname.obj
 0002:00001118       ??_C@_0BA@KKLDJDLB@?$GAlocal?5vftable?8@ 4008f118     libvcruntimed:undname.obj
 0002:00001128       ??_C@_0CE@IIHCMGGL@?$GAlocal?5vftable?5constructor?5clos@ 4008f128     libvcruntimed:undname.obj
 0002:0000114c       ??_C@_06FHBGPFGH@?5new?$FL?$FN@ 4008f14c     libvcruntimed:undname.obj
 0002:00001154       ??_C@_09LBNFPBCA@?5delete?$FL?$FN@ 4008f154     libvcruntimed:undname.obj
 0002:00001160       ??_C@_0P@HJKNJFNN@?$GAomni?5callsig?8@ 4008f160     libvcruntimed:undname.obj
 0002:00001170       ??_C@_0BL@CNOONJFP@?$GAplacement?5delete?5closure?8@ 4008f170     libvcruntimed:undname.obj
 0002:0000118c       ??_C@_0BN@CKNJLHMB@?$GAplacement?5delete?$FL?$FN?5closure?8@ 4008f18c     libvcruntimed:undname.obj
 0002:000011ac       ??_C@_0CG@CFDHKGGD@?$GAmanaged?5vector?5constructor?5ite@ 4008f1ac     libvcruntimed:undname.obj
 0002:000011d4       ??_C@_0CF@IMGKMJNO@?$GAmanaged?5vector?5destructor?5iter@ 4008f1d4     libvcruntimed:undname.obj
 0002:000011fc       ??_C@_0CG@HLDDJMAG@?$GAeh?5vector?5copy?5constructor?5ite@ 4008f1fc     libvcruntimed:undname.obj
 0002:00001224       ??_C@_0CM@FCBBDIGB@?$GAeh?5vector?5vbase?5copy?5construct@ 4008f224     libvcruntimed:undname.obj
 0002:00001250       ??_C@_0BL@CLIPGLGB@?$GAdynamic?5initializer?5for?5?8@ 4008f250     libvcruntimed:undname.obj
 0002:0000126c       ??_C@_0CB@PDBIFEP@?$GAdynamic?5atexit?5destructor?5for?5@ 4008f26c     libvcruntimed:undname.obj
 0002:00001290       ??_C@_0CD@CGAJBKEJ@?$GAvector?5copy?5constructor?5iterat@ 4008f290     libvcruntimed:undname.obj
 0002:000012b4       ??_C@_0CJ@GJELGAMM@?$GAvector?5vbase?5copy?5constructor?5@ 4008f2b4     libvcruntimed:undname.obj
 0002:000012e0       ??_C@_0CL@FGIJHLCE@?$GAmanaged?5vector?5copy?5constructo@ 4008f2e0     libvcruntimed:undname.obj
 0002:0000130c       ??_C@_0BM@PMGGMLDN@?$GAlocal?5static?5thread?5guard?8@ 4008f30c     libvcruntimed:undname.obj
 0002:00001328       ??_C@_0N@BDNMDMOL@operator?5?$CC?$CC?5@ 4008f328     libvcruntimed:undname.obj
 0002:00001338       ??_C@_0BC@GGEBGALA@operator?5co_await@ 4008f338     libvcruntimed:undname.obj
 0002:0000134c       ??_C@_0M@GAAIMMOH@operator?$DM?$DN?$DO@ 4008f34c     libvcruntimed:undname.obj
 0002:00001358       ??_C@_0BC@DAFEJGAK@?5Type?5Descriptor?8@ 4008f358     libvcruntimed:undname.obj
 0002:0000136c       ??_C@_0BM@LDKODKLH@?5Base?5Class?5Descriptor?5at?5?$CI@ 4008f36c     libvcruntimed:undname.obj
 0002:00001388       ??_C@_0BD@LGICGFMM@?5Base?5Class?5Array?8@ 4008f388     libvcruntimed:undname.obj
 0002:0000139c       ??_C@_0BN@MECKDCOJ@?5Class?5Hierarchy?5Descriptor?8@ 4008f39c     libvcruntimed:undname.obj
 0002:000013bc       ??_C@_0BK@CFCOFLF@?5Complete?5Object?5Locator?8@ 4008f3bc     libvcruntimed:undname.obj
 0002:000013d8       ??_C@_0BG@JNJLAMPM@?$GAanonymous?5namespace?8@ 4008f3d8     libvcruntimed:undname.obj
 0002:000013ee       ?in_place@std@@3Uin_place_t@1@B 4008f3ee     libvcruntimed:undname.obj
 0002:000013f0       ??_C@_04HEJADOOB@CV?3?5@   4008f3f0     libvcruntimed:undname.obj
 0002:000013f8       ??_C@_03GDILBHBJ@$$h@      4008f3f8     libvcruntimed:undname.obj
 0002:000013fc       ??_C@_02MOLJINC@?3?3@      4008f3fc     libvcruntimed:undname.obj
 0002:00001400       ??_C@_0BE@JAEOCHPE@template?9parameter?9@ 4008f400     libvcruntimed:undname.obj
 0002:00001414       ??_C@_0BF@LNLGBBNL@?$GAtemplate?9parameter?9@ 4008f414     libvcruntimed:undname.obj
 0002:0000142c       ??_C@_0O@KHGCOMHP@generic?9type?9@ 4008f42c     libvcruntimed:undname.obj
 0002:0000143c       ??_C@_0P@ODDENDLM@?$GAgeneric?9type?9@ 4008f43c     libvcruntimed:undname.obj
 0002:0000144c       ??_C@_02OHHJMEON@?8?8@     4008f44c     libvcruntimed:undname.obj
 0002:00001450       ??_C@_0BN@IBLMMFAP@?$GAnon?9type?9template?9parameter@ 4008f450     libvcruntimed:undname.obj
 0002:00001470       ??_C@_03DLDNIBIK@?$CFlf@   4008f470     libvcruntimed:undname.obj
 0002:00001474       ??_C@_04OFALKAJ@?$DP?$DP_C@ 4008f474     libvcruntimed:undname.obj
 0002:0000147c       ??_C@_03KHICJKCI@?4?4?4@   4008f47c     libvcruntimed:undname.obj
 0002:00001480       ??_C@_04HIBGFPH@NULL@      4008f480     libvcruntimed:undname.obj
 0002:00001488       ??_C@_02DPKJAMEF@?$CFd@    4008f488     libvcruntimed:undname.obj
 0002:0000148c       ??_C@_0BK@IHCCFNEL@?$GAtemplate?9type?9parameter?9@ 4008f48c     libvcruntimed:undname.obj
 0002:000014a8       ??_C@_0BK@OFCNNNKO@?$GAgeneric?9class?9parameter?9@ 4008f4a8     libvcruntimed:undname.obj
 0002:000014c4       ??_C@_0BL@NGJBLFIL@?$GAgeneric?9method?9parameter?9@ 4008f4c4     libvcruntimed:undname.obj
 0002:000014e0       ??_C@_07OHNGEDJK@nullptr@  4008f4e0     libvcruntimed:undname.obj
 0002:000014e8       ??_C@_06COJIGPIB@lambda@   4008f4e8     libvcruntimed:undname.obj
 0002:000014f0       ??_C@_04GKJNKENE@void@     4008f4f0     libvcruntimed:undname.obj
 0002:000014f8       ??_C@_0BE@EODMJLIF@?$GAtemplate?9parameter@ 4008f4f8     libvcruntimed:undname.obj
 0002:0000150c       ??_C@_03OPGICMGF@?$HN?8?5@ 4008f50c     libvcruntimed:undname.obj
 0002:00001510       ??_C@_02IGFCGPIL@?$HN?8@   4008f510     libvcruntimed:undname.obj
 0002:00001514       ??_C@_0N@CBHHHENL@?$GAvtordispex?$HL@ 4008f514     libvcruntimed:undname.obj
 0002:00001524       ??_C@_0L@GHPFDFH@?$GAvtordisp?$HL@ 4008f524     libvcruntimed:undname.obj
 0002:00001530       ??_C@_0L@HNGCOGAE@?$GAadjustor?$HL@ 4008f530     libvcruntimed:undname.obj
 0002:0000153c       ??_C@_0CB@KJDOOODE@?$GAlocal?5static?5destructor?5helper@ 4008f53c     libvcruntimed:undname.obj
 0002:00001560       ??_C@_0DB@ILEFOCIJ@?$GAtemplate?5static?5data?5member?5co@ 4008f560     libvcruntimed:undname.obj
 0002:00001594       ??_C@_0DA@HGFJFBBE@?$GAtemplate?5static?5data?5member?5de@ 4008f594     libvcruntimed:undname.obj
 0002:000015c4       ??_C@_07PGOEDBHP@static?5@ 4008f5c4     libvcruntimed:undname.obj
 0002:000015cc       ??_C@_08NIEOINHE@virtual?5@ 4008f5cc     libvcruntimed:undname.obj
 0002:000015d8       ??_C@_09LAPHOOG@private?3?5@ 4008f5d8     libvcruntimed:undname.obj
 0002:000015e4       ??_C@_0M@GAIFPFIP@protected?3?5@ 4008f5e4     libvcruntimed:undname.obj
 0002:000015f0       ??_C@_08GPDDCMKI@public?3?5@ 4008f5f0     libvcruntimed:undname.obj
 0002:000015fc       ??_C@_08KJLFOPNE@?$FLthunk?$FN?3@ 4008f5fc     libvcruntimed:undname.obj
 0002:00001608       ??_C@_0M@DHNBOJMP@extern?5?$CCC?$CC?5@ 4008f608     libvcruntimed:undname.obj
 0002:00001614       ??_C@_02KCKGHPCA@?$CJ?5@   4008f614     libvcruntimed:undname.obj
 0002:00001618       ??_C@_05CIHEBHNO@char?5@   4008f618     libvcruntimed:undname.obj
 0002:00001620       ??_C@_06EHJMALKF@short?5@  4008f620     libvcruntimed:undname.obj
 0002:00001628       ??_C@_04LAHKHJMA@int?5@    4008f628     libvcruntimed:undname.obj
 0002:00001630       ??_C@_05CJIMAING@long?5@   4008f630     libvcruntimed:undname.obj
 0002:00001638       ??_C@_09EBBEKKIH@unsigned?5@ 4008f638     libvcruntimed:undname.obj
 0002:00001644       ??_C@_05BEFAKPML@void?5@   4008f644     libvcruntimed:undname.obj
 0002:0000164c       ??_C@_09GAIEOBLP@volatile?5@ 4008f64c     libvcruntimed:undname.obj
 0002:00001658       ??_C@_08PABEKFH@volatile@  4008f658     libvcruntimed:undname.obj
 0002:00001664       ??_C@_0BA@LKIJLKPP@std?3?3nullptr_t?5@ 4008f664     libvcruntimed:undname.obj
 0002:00001674       ??_C@_0P@GCOCNKDM@std?3?3nullptr_t@ 4008f674     libvcruntimed:undname.obj
 0002:00001684       ??_C@_0L@EGPHHEKN@?$DMellipsis?$DO@ 4008f684     libvcruntimed:undname.obj
 0002:00001690       ??_C@_04EENFHACM@?0?4?4?4@ 4008f690     libvcruntimed:undname.obj
 0002:00001698       ??_C@_0M@ELJOJFFH@?0?$DMellipsis?$DO@ 4008f698     libvcruntimed:undname.obj
 0002:000016a4       ??_C@_09DNHFEOJI@?5noexcept@ 4008f6a4     libvcruntimed:undname.obj
 0002:000016b0       ??_C@_03PBJBJNON@cpu@      4008f6b0     libvcruntimed:undname.obj
 0002:000016b4       ??_C@_03DCBBJBAA@amp@      4008f6b4     libvcruntimed:undname.obj
 0002:000016b8       ??_C@_02KEGNLNML@?0?5@     4008f6b8     libvcruntimed:undname.obj
 0002:000016bc       ??_C@_04ENMBGAPA@char@     4008f6bc     libvcruntimed:undname.obj
 0002:000016c4       ??_C@_05BFKKPKCG@short@    4008f6c4     libvcruntimed:undname.obj
 0002:000016cc       ??_C@_03JBIPMCLC@int@      4008f6cc     libvcruntimed:undname.obj
 0002:000016d0       ??_C@_04GOKPGOLB@long@     4008f6d0     libvcruntimed:undname.obj
 0002:000016d8       ??_C@_05KNFBNCOH@float@    4008f6d8     libvcruntimed:undname.obj
 0002:000016e0       ??_C@_06BNJCAIGJ@double@   4008f6e0     libvcruntimed:undname.obj
 0002:000016e8       ??_C@_04DDKJGDCM@bool@     4008f6e8     libvcruntimed:undname.obj
 0002:000016f0       ??_C@_06EBGKOKIG@__int8@   4008f6f0     libvcruntimed:undname.obj
 0002:000016f8       ??_C@_07ICFHOGAF@__int16@  4008f6f8     libvcruntimed:undname.obj
 0002:00001700       ??_C@_07OFLPPHGP@__int32@  4008f700     libvcruntimed:undname.obj
 0002:00001708       ??_C@_07LFCOJCAC@__int64@  4008f708     libvcruntimed:undname.obj
 0002:00001710       ??_C@_08GAHOLHEO@__int128@ 4008f710     libvcruntimed:undname.obj
 0002:0000171c       ??_C@_09EEKGDCPH@?$DMunknown?$DO@ 4008f71c     libvcruntimed:undname.obj
 0002:00001728       ??_C@_07CFHGOPCN@char8_t@  4008f728     libvcruntimed:undname.obj
 0002:00001730       ??_C@_08HBIPOFJB@char16_t@ 4008f730     libvcruntimed:undname.obj
 0002:0000173c       ??_C@_08IECNCBKG@char32_t@ 4008f73c     libvcruntimed:undname.obj
 0002:00001748       ??_C@_07CLGGIAMF@wchar_t@  4008f748     libvcruntimed:undname.obj
 0002:00001750       ??_C@_04HAPDLBFF@auto@     4008f750     libvcruntimed:undname.obj
 0002:00001758       ??_C@_0P@LHCGKIGK@decltype?$CIauto?$CJ@ 4008f758     libvcruntimed:undname.obj
 0002:00001768       ??_C@_05PCNBGHCF@this?5@   4008f768     libvcruntimed:undname.obj
 0002:00001770       ??_C@_06GCICPBLB@__w64?5@  4008f770     libvcruntimed:undname.obj
 0002:00001778       ??_C@_07NFANNNEC@UNKNOWN@  4008f778     libvcruntimed:undname.obj
 0002:00001780       ??_C@_07EDHNAJHC@signed?5@ 4008f780     libvcruntimed:undname.obj
 0002:00001788       ??_C@_05BNCCCJPP@const@    4008f788     libvcruntimed:undname.obj
 0002:00001790       ??_C@_09EFNPDFFP@?5volatile@ 4008f790     libvcruntimed:undname.obj
 0002:0000179c       ??_C@_0P@GCIFDJCJ@?$GAunknown?5ecsu?8@ 4008f79c     libvcruntimed:undname.obj
 0002:000017ac       ??_C@_06MOJHIBMG@union?5@  4008f7ac     libvcruntimed:undname.obj
 0002:000017b4       ??_C@_07DIBCDNGL@struct?5@ 4008f7b4     libvcruntimed:undname.obj
 0002:000017bc       ??_C@_06LJBABKPM@class?5@  4008f7bc     libvcruntimed:undname.obj
 0002:000017c4       ??_C@_08KOFANOFK@coclass?5@ 4008f7c4     libvcruntimed:undname.obj
 0002:000017d0       ??_C@_0N@DLIEFKNA@cointerface?5@ 4008f7d0     libvcruntimed:undname.obj
 0002:000017e0       ??_C@_05LJGMCFOG@enum?5@   4008f7e0     libvcruntimed:undname.obj
 0002:000017e8       ??_C@_06LIJLOJAG@const?5@  4008f7e8     libvcruntimed:undname.obj
 0002:000017f0       ??_C@_02KJPKDIBN@?$CG?5@   4008f7f0     libvcruntimed:undname.obj
 0002:000017f4       ??_C@_03PCKGMOPB@?$CG?$CG?5@ 4008f7f4     libvcruntimed:undname.obj
 0002:000017f8       ??_C@_0M@EALIELKG@cli?3?3array?$DM@ 4008f7f8     libvcruntimed:undname.obj
 0002:00001804       ??_C@_0O@GKABPPIF@cli?3?3pin_ptr?$DM@ 4008f804     libvcruntimed:undname.obj
 0002:00001814       ??_C@_02GOGNNPBN@?$CJ?$FL@ 4008f814     libvcruntimed:undname.obj
 0002:00001818       ??_C@_06EEGAIFAK@?$HLflat?$HN@ 4008f818     libvcruntimed:undname.obj
 0002:00001820       ??_C@_05JIBOFOHK@?$HLfor?5@ 4008f820     libvcruntimed:undname.obj
 0002:00001828       ??_C@_02MDINNEEG@s?5@      4008f828     libvcruntimed:undname.obj
 0002:00001830       ??_7DNameNode@@6B@         4008f830     libvcruntimed:undname.obj
 0002:00001844       ??_7charNode@@6B@          4008f844     libvcruntimed:undname.obj
 0002:00001858       ??_7pcharNode@@6B@         4008f858     libvcruntimed:undname.obj
 0002:0000186c       ??_7pDNameNode@@6B@        4008f86c     libvcruntimed:undname.obj
 0002:00001880       ??_7DNameStatusNode@@6B@   4008f880     libvcruntimed:undname.obj
 0002:00001894       ??_7pairNode@@6B@          4008f894     libvcruntimed:undname.obj
 0002:000019a8       ??_C@_04OKOHEJBO@?5?$DP?$DP?5@ 4008f9a8     libvcruntimed:undname.obj
 0002:000019b0       ?nodes@?1??make@DNameStatusNode@@SAPBV2@W4DNameStatus@@@Z@4QBV2@B 4008f9b0     libvcruntimed:undname.obj
 0002:000019e0       ??_C@_0CF@ONAOGJIP@operator?$CK?$CI?$CJ?5called?5on?5empty?5opt@ 4008f9e0     libvcruntimed:undname.obj
 0002:00001a08       ??_C@_02DKCKIIND@?$CFs@    4008fa08     libvcruntimed:undname.obj
 0002:00001a0c       ??_C@_0CM@FHELMHAP@D?3?2a?2_work?21?2s?2binaries?2x86ret?2@ 4008fa0c     libvcruntimed:undname.obj
 0002:00001a38       ??_C@_0EK@HNOIOKGA@D?3?2a?2_work?21?2s?2src?2vctools?2crt?2@ 4008fa38     libvcruntimed:per_thread_data.obj
 0002:00001a90       ??_C@_1DM@KHCHBNEB@?$AAa?$AAp?$AAi?$AA?9?$AAm?$AAs?$AA?9?$AAw?$AAi?$AAn?$AA?9?$AAc?$AAo?$AAr?$AAe@ 4008fa90     libvcruntimed:winapi_downlevel.obj
 0002:00001acc       ??_C@_1DK@LPPGFMPP@?$AAa?$AAp?$AAi?$AA?9?$AAm?$AAs?$AA?9?$AAw?$AAi?$AAn?$AA?9?$AAc?$AAo?$AAr?$AAe@ 4008facc     libvcruntimed:winapi_downlevel.obj
 0002:00001b08       ??_C@_1BC@GDMECMAK@?$AAk?$AAe?$AAr?$AAn?$AAe?$AAl?$AA3?$AA2@ 4008fb08     libvcruntimed:winapi_downlevel.obj
 0002:00001b1c       ??_C@_17CNPHIMPH@?$AA?$CF?$AAl?$AAs@ 4008fb1c     libvcruntimed:winapi_downlevel.obj
 0002:00001b24       ??_C@_1BA@PFFKHIOG@?$AAa?$AAp?$AAi?$AA?9?$AAm?$AAs?$AA?9@ 4008fb24     libvcruntimed:winapi_downlevel.obj
 0002:00001b38       ??_C@_1EM@LBIFGLGH@?$AAc?$AAa?$AAc?$AAh?$AAe?$AAd?$AA_?$AAh?$AAa?$AAn?$AAd?$AAl?$AAe?$AA?5?$AA?$DN@ 4008fb38     libvcruntimed:winapi_downlevel.obj
 0002:00001b88       ??_C@_1JG@EAIBPIGC@?$AAD?$AA?3?$AA?2?$AAa?$AA?2?$AA_?$AAw?$AAo?$AAr?$AAk?$AA?2?$AA1?$AA?2?$AAs?$AA?2@ 4008fb88     libvcruntimed:winapi_downlevel.obj
 0002:00001c20       ??_C@_1DI@MAHEDLDB@?$AAc?$AAa?$AAc?$AAh?$AAe?$AAd?$AA_?$AAh?$AAa?$AAn?$AAd?$AAl?$AAe?$AA?5?$AA?$DN@ 4008fc20     libvcruntimed:winapi_downlevel.obj
 0002:00001c58       ??_C@_1FC@IBNCGNKL@?$AAc?$AAa?$AAc?$AAh?$AAe?$AAd?$AA_?$AAf?$AAp?$AA?5?$AA?$DN?$AA?$DN?$AA?5?$AAi?$AAn@ 4008fc58     libvcruntimed:winapi_downlevel.obj
 0002:00001cac       ??_C@_1CI@GDJBAGLP@?$AAc?$AAa?$AAc?$AAh?$AAe?$AAd?$AA_?$AAf?$AAp?$AA?5?$AA?$DN?$AA?$DN?$AA?5?$AAn?$AAe@ 4008fcac     libvcruntimed:winapi_downlevel.obj
 0002:00001cdc       ??_C@_08KNHFBNJ@FlsAlloc@  4008fcdc     libvcruntimed:winapi_downlevel.obj
 0002:00001cf0       ??_C@_07PEJMOBNF@FlsFree@  4008fcf0     libvcruntimed:winapi_downlevel.obj
 0002:00001d00       ??_C@_0M@GDNOONDI@FlsGetValue@ 4008fd00     libvcruntimed:winapi_downlevel.obj
 0002:00001d14       ??_C@_0M@JCPCPOEF@FlsSetValue@ 4008fd14     libvcruntimed:winapi_downlevel.obj
 0002:00001d28       ??_C@_0BM@HCFOFFN@InitializeCriticalSectionEx@ 4008fd28     libvcruntimed:winapi_downlevel.obj
 0002:00001d48       ??_7exception@std@@6B@     4008fd48     libvcruntimed:frame.obj
 0002:00001d50       ??_C@_0BC@EOODALEL@Unknown?5exception@ 4008fd50     libvcruntimed:frame.obj
 0002:00001d68       ??_7bad_exception@std@@6B@ 4008fd68     libvcruntimed:frame.obj
 0002:00001d70       ??_C@_0O@DPKOEFFH@bad?5exception@ 4008fd70     libvcruntimed:frame.obj
 0002:00001d80       ??_C@_1FK@OACNEHHA@?$AAt?$AAo?$AA?9?$AA?$DO?$AA_?$AAW?$AAh?$AAa?$AAt?$AA?5?$AA?$DN?$AA?$DN?$AA?5?$AAn?$AAu@ 4008fd80     libvcruntimed:std_exception.obj
 0002:00001de0       ??_C@_1IE@BLOAAGCK@?$AAD?$AA?3?$AA?2?$AAa?$AA?2?$AA_?$AAw?$AAo?$AAr?$AAk?$AA?2?$AA1?$AA?2?$AAs?$AA?2@ 4008fde0     libvcruntimed:std_exception.obj
 0002:00001e70       ??_C@_1BA@GLMCNLEM@?$AAW?$AAa?$AAr?$AAn?$AAi?$AAn?$AAg@ 4008fe70     libucrtd:dbgrpt.obj
 0002:00001e80       ??_C@_1M@ILHOPKA@?$AAE?$AAr?$AAr?$AAo?$AAr@ 4008fe80     libucrtd:dbgrpt.obj
 0002:00001e8c       ??_C@_1CC@CGHMNGDG@?$AAA?$AAs?$AAs?$AAe?$AAr?$AAt?$AAi?$AAo?$AAn?$AA?5?$AAF?$AAa?$AAi?$AAl?$AAe@ 4008fe8c     libucrtd:dbgrpt.obj
 0002:00001eb8       ??_C@_1OG@PMPPFHAF@?$AA?6?$AA?6?$AAF?$AAo?$AAr?$AA?5?$AAi?$AAn?$AAf?$AAo?$AAr?$AAm?$AAa?$AAt?$AAi@ 4008feb8     libucrtd:dbgrpt.obj
 0002:00001fa0       ??_C@_1MG@LJLILFFD@?$AAD?$AAe?$AAb?$AAu?$AAg?$AA?5?$AA?$CF?$AAl?$AAs?$AA?$CB?$AA?6?$AA?6?$AAP?$AAr?$AAo@ 4008ffa0     libucrtd:dbgrpt.obj
 0002:00002068       ??_C@_1MG@OODCADGL@?$AAD?$AAe?$AAb?$AAu?$AAg?$AA?5?$AA?$CF?$AAl?$AAs?$AA?$CB?$AA?6?$AA?6?$AAP?$AAr?$AAo@ 40090068     libucrtd:dbgrpt.obj
 0002:00002130       ??_C@_0BH@DNAGHKFM@?$DMprogram?5name?5unknown?$DO@ 40090130     libucrtd:dbgrpt.obj
 0002:00002148       ??_C@_1CO@EAEJAADC@?$AA?$DM?$AAp?$AAr?$AAo?$AAg?$AAr?$AAa?$AAm?$AA?5?$AAn?$AAa?$AAm?$AAe?$AA?5?$AAu@ 40090148     libucrtd:dbgrpt.obj
 0002:00002178       ??_C@_1FK@BNNDOGMN@?$AA?$CI?$AA?$CC?$AAT?$AAh?$AAe?$AA?5?$AAh?$AAo?$AAo?$AAk?$AA?5?$AAf?$AAu?$AAn?$AAc@ 40090178     libucrtd:dbgrpt.obj
 0002:000021d8       ??_C@_1FO@GMJDLAJD@?$AAm?$AAi?$AAn?$AAk?$AAe?$AAr?$AAn?$AAe?$AAl?$AA?2?$AAc?$AAr?$AAt?$AAs?$AA?2@ 400901d8     libucrtd:dbgrpt.obj
 0002:00002238       ??_C@_0CP@HDJNPEFB@minkernel?2crts?2ucrt?2src?2appcrt?2@ 40090238     libucrtd:dbgrpt.obj
 0002:00002268       ??_C@_1HI@OFEHGPPC@?$AAm?$AAo?$AAd?$AAe?$AA?5?$AA?$DN?$AA?$DN?$AA?5?$AA_?$AAC?$AAR?$AAT?$AA_?$AAR?$AAP@ 40090268     libucrtd:dbgrpt.obj
 0002:000022e0       ??_C@_1CO@FFNKOJOG@?$AAc?$AAo?$AAm?$AAm?$AAo?$AAn?$AA_?$AAs?$AAe?$AAt?$AA_?$AAr?$AAe?$AAp?$AAo@ 400902e0     libucrtd:dbgrpt.obj
 0002:00002310       ??_C@_1CI@ONEHFNHD@?$AAn?$AAe?$AAw?$AA_?$AAh?$AAo?$AAo?$AAk?$AA?5?$AA?$CB?$AA?$DN?$AA?5?$AAn?$AAu?$AAl@ 40090310     libucrtd:dbgrpt.obj
 0002:0000233c       ??_C@_1CM@EHMOGBJJ@?$AAc?$AAo?$AAm?$AAm?$AAo?$AAn?$AA_?$AAm?$AAe?$AAs?$AAs?$AAa?$AAg?$AAe?$AA_@ 4009033c     libucrtd:dbgrpt.obj
 0002:00002368       ??_C@_1PE@ECNALGCA@?$AAt?$AAr?$AAa?$AAi?$AAt?$AAs?$AA?3?$AA?3?$AAt?$AAc?$AAs?$AAc?$AAp?$AAy?$AA_@ 40090368     libucrtd:dbgrpt.obj
 0002:0000245c       ??_C@_11LOCGONAA@@         4009045c     libucrtd:dbgrpt.obj
 0002:00002460       ??_C@_1BK@PEDCIPMA@?$AAE?$AAx?$AAp?$AAr?$AAe?$AAs?$AAs?$AAi?$AAo?$AAn?$AA?3?$AA?5@ 40090460     libucrtd:dbgrpt.obj
 0002:0000247c       ??_C@_15IABLJNFO@?$AA?6?$AA?6@ 4009047c     libucrtd:dbgrpt.obj
 0002:00002484       ??_C@_1BA@GLLGCPCK@?$AA?6?$AAL?$AAi?$AAn?$AAe?$AA?3?$AA?5@ 40090484     libucrtd:dbgrpt.obj
 0002:00002494       ??_C@_1BA@LNHECFIM@?$AA?6?$AAF?$AAi?$AAl?$AAe?$AA?3?$AA?5@ 40090494     libucrtd:dbgrpt.obj
 0002:000024a4       ??_C@_17LGKOMLJ@?$AA?4?$AA?4?$AA?4@ 400904a4     libucrtd:dbgrpt.obj
 0002:000024ac       ??_C@_1BE@CGCJKGHI@?$AA?6?$AAM?$AAo?$AAd?$AAu?$AAl?$AAe?$AA?3?$AA?5@ 400904ac     libucrtd:dbgrpt.obj
 0002:000024c0       ??_C@_1BI@KALLJECN@?$AA?$CI?$AA?$CK?$AA_?$AAe?$AAr?$AAr?$AAn?$AAo?$AA?$CI?$AA?$CJ?$AA?$CJ@ 400904c0     libucrtd:dbgrpt.obj
 0002:000024d8       ??_C@_1JM@IBOIJEOO@?$AAw?$AAc?$AAs?$AAc?$AAp?$AAy?$AA_?$AAs?$AA?$CI?$AAm?$AAe?$AAs?$AAs?$AAa?$AAg@ 400904d8     libucrtd:dbgrpt.obj
 0002:00002578       ??_C@_1FG@BBOLDHGF@?$AA_?$AAC?$AAr?$AAt?$AAD?$AAb?$AAg?$AAR?$AAe?$AAp?$AAo?$AAr?$AAt?$AA?3?$AA?5@ 40090578     libucrtd:dbgrpt.obj
 0002:000025d0       ??_C@_1EK@MBDPDCGA@?$AAM?$AAi?$AAc?$AAr?$AAo?$AAs?$AAo?$AAf?$AAt?$AA?5?$AAV?$AAi?$AAs?$AAu?$AAa@ 400905d0     libucrtd:dbgrpt.obj
 0002:00002620       ??_C@_1GI@BBAEIKL@?$AA?$CI?$AA?$CI?$AAd?$AAe?$AAs?$AAt?$AAi?$AAn?$AAa?$AAt?$AAi?$AAo?$AAn?$AA?$CJ?$AA?$CJ@ 40090620     libucrtd:strcpy_s.obj
 0002:00002688       ??_C@_1HI@PBJPCEBC@?$AAm?$AAi?$AAn?$AAk?$AAe?$AAr?$AAn?$AAe?$AAl?$AA?2?$AAc?$AAr?$AAt?$AAs?$AA?2@ 40090688     libucrtd:strcpy_s.obj
 0002:00002700       ??_C@_1CA@FHIAGDFH@?$AAc?$AAo?$AAm?$AAm?$AAo?$AAn?$AA_?$AAt?$AAc?$AAs?$AAc?$AAp?$AAy?$AA_?$AAs@ 40090700     libucrtd:strcpy_s.obj
 0002:00002720       ??_C@_1CK@EIOKGPJL@?$AA?$CI?$AA?$CI?$AA?$CI?$AAs?$AAo?$AAu?$AAr?$AAc?$AAe?$AA?$CJ?$AA?$CJ?$AA?$CJ?$AA?5?$AA?$CB?$AA?$DN@ 40090720     libucrtd:strcpy_s.obj
 0002:0000274c       ??_C@_1CI@HCPHDDLE@?$AAB?$AAu?$AAf?$AAf?$AAe?$AAr?$AA?5?$AAi?$AAs?$AA?5?$AAt?$AAo?$AAo?$AA?5?$AAs@ 4009074c     libucrtd:strcpy_s.obj
 0002:00002774       ??_C@_1DM@MADKGDLO@?$AA?$CI?$AAL?$AA?$CC?$AAB?$AAu?$AAf?$AAf?$AAe?$AAr?$AA?5?$AAi?$AAs?$AA?5?$AAt?$AAo@ 40090774     libucrtd:strcpy_s.obj
 0002:000027b0       ??_C@_1CA@EOJJMFA@?$AAc?$AAo?$AAm?$AAm?$AAo?$AAn?$AA_?$AAt?$AAc?$AAs?$AAc?$AAa?$AAt?$AA_?$AAs@ 400907b0     libucrtd:strcat_s.obj
 0002:000027d0       ??_C@_1DM@FHLMIEG@?$AAS?$AAt?$AAr?$AAi?$AAn?$AAg?$AA?5?$AAi?$AAs?$AA?5?$AAn?$AAo?$AAt?$AA?5?$AAn@ 400907d0     libucrtd:strcat_s.obj
 0002:00002810       ??_C@_1FA@MJKDNFFB@?$AA?$CI?$AAL?$AA?$CC?$AAS?$AAt?$AAr?$AAi?$AAn?$AAg?$AA?5?$AAi?$AAs?$AA?5?$AAn?$AAo@ 40090810     libucrtd:strcat_s.obj
 0002:00002860       __Fenv1                    40090860     libucrtd:output.obj
 0002:00002868       ?standard_lookup_table_spectre@__crt_stdio_output@@3V?$spectre_mitigated_lookup_table@Ustate_transition_pair@__crt_stdio_output@@$0IA@@1@B 40090868     libucrtd:output.obj
 0002:00002968       ?format_validation_lookup_table_spectre@__crt_stdio_output@@3V?$spectre_mitigated_lookup_table@Ustate_transition_pair@__crt_stdio_output@@$0IA@@1@B 40090968     libucrtd:output.obj
 0002:00002a68       ??_C@_1BDG@MKBKGHOH@?$AA?$CI?$AA?5?$AA?$CI?$AA_?$AAS?$AAt?$AAr?$AAe?$AAa?$AAm?$AA?4?$AAi?$AAs?$AA_?$AAs@ 40090a68     libucrtd:output.obj
 0002:00002ba0       ??_C@_1GC@LCDLABEA@?$AAm?$AAi?$AAn?$AAk?$AAe?$AAr?$AAn?$AAe?$AAl?$AA?2?$AAc?$AAr?$AAt?$AAs?$AA?2@ 40090ba0     libucrtd:output.obj
 0002:00002c08       ??_C@_1II@DIIMCJOK@?$AA_?$AA_?$AAa?$AAc?$AAr?$AAt?$AA_?$AAs?$AAt?$AAd?$AAi?$AAo?$AA_?$AAc?$AAh@ 40090c08     libucrtd:output.obj
 0002:00002c90       ??_C@_1GE@DPGDJKLM@?$AAm?$AAi?$AAn?$AAk?$AAe?$AAr?$AAn?$AAe?$AAl?$AA?2?$AAc?$AAr?$AAt?$AAs?$AA?2@ 40090c90     libucrtd:output.obj
 0002:00002cf4       ??_C@_1CE@JLIJLEKO@?$AAs?$AAt?$AAr?$AAe?$AAa?$AAm?$AA?5?$AA?$CB?$AA?$DN?$AA?5?$AAn?$AAu?$AAl?$AAl?$AAp@ 40090cf4     libucrtd:output.obj
 0002:00002d18       ??_C@_1GA@MOBAPGIO@?$AAm?$AAi?$AAn?$AAk?$AAe?$AAr?$AAn?$AAe?$AAl?$AA?2?$AAc?$AAr?$AAt?$AAs?$AA?2@ 40090d18     libucrtd:output.obj
 0002:00002d78       ??_C@_1CA@GELIJBMC@?$AAc?$AAo?$AAm?$AAm?$AAo?$AAn?$AA_?$AAv?$AAf?$AAp?$AAr?$AAi?$AAn?$AAt?$AAf@ 40090d78     libucrtd:output.obj
 0002:00002d98       ??_C@_1CE@EAKLPBKK@?$AAf?$AAo?$AAr?$AAm?$AAa?$AAt?$AA?5?$AA?$CB?$AA?$DN?$AA?5?$AAn?$AAu?$AAl?$AAl?$AAp@ 40090d98     libucrtd:output.obj
 0002:00002dbc       ??_C@_1CA@PIMGHCEK@?$AAc?$AAo?$AAm?$AAm?$AAo?$AAn?$AA_?$AAv?$AAs?$AAp?$AAr?$AAi?$AAn?$AAt?$AAf@ 40090dbc     libucrtd:output.obj
 0002:00002de0       ??_C@_1EO@EGEEFEFM@?$AAb?$AAu?$AAf?$AAf?$AAe?$AAr?$AA_?$AAc?$AAo?$AAu?$AAn?$AAt?$AA?5?$AA?$DN?$AA?$DN@ 40090de0     libucrtd:output.obj
 0002:00002e30       ??_C@_1CE@JEILLNB@?$AAc?$AAo?$AAm?$AAm?$AAo?$AAn?$AA_?$AAv?$AAs?$AAp?$AAr?$AAi?$AAn?$AAt?$AAf@ 40090e30     libucrtd:output.obj
 0002:00002e58       ??_C@_1EM@OAFHAOLH@?$AAb?$AAu?$AAf?$AAf?$AAe?$AAr?$AA?5?$AA?$CB?$AA?$DN?$AA?5?$AAn?$AAu?$AAl?$AAl?$AAp@ 40090e58     libucrtd:output.obj
 0002:00002ea4       ??_C@_1DA@HPBFKMEB@?$AA?$CI?$AA?$CC?$AAB?$AAu?$AAf?$AAf?$AAe?$AAr?$AA?5?$AAt?$AAo?$AAo?$AA?5?$AAs?$AAm@ 40090ea4     libucrtd:output.obj
 0002:00002ed4       ??_C@_1CG@LHFJHFBB@?$AAc?$AAo?$AAm?$AAm?$AAo?$AAn?$AA_?$AAv?$AAs?$AAn?$AAp?$AAr?$AAi?$AAn?$AAt@ 40090ed4     libucrtd:output.obj
 0002:00002efc       ??_C@_1CM@JOIJBMEM@?$AA_?$AAf?$AAo?$AAr?$AAm?$AAa?$AAt?$AA_?$AAi?$AAt?$AA?5?$AA?$CB?$AA?$DN?$AA?5?$AAn@ 40090efc     libucrtd:output.obj
 0002:00002f28       ??_C@_1HA@DMAAKIJP@?$AAm?$AAi?$AAn?$AAk?$AAe?$AAr?$AAn?$AAe?$AAl?$AA?2?$AAc?$AAr?$AAt?$AAs?$AA?2@ 40090f28     libucrtd:output.obj
 0002:00002f98       ??_C@_1BNA@OIIAGHJI@?$AA_?$AA_?$AAc?$AAr?$AAt?$AA_?$AAs?$AAt?$AAd?$AAi?$AAo?$AA_?$AAo?$AAu?$AAt@ 40090f98     libucrtd:output.obj
 0002:00003168       ??_C@_1EE@DMAIGNBG@?$AA?$CI?$AA?$CC?$AAI?$AAn?$AAc?$AAo?$AAr?$AAr?$AAe?$AAc?$AAt?$AA?5?$AAf?$AAo?$AAr@ 40091168     libucrtd:output.obj
 0002:000031b0       ??_C@_1BLI@EGFICANE@?$AA_?$AA_?$AAc?$AAr?$AAt?$AA_?$AAs?$AAt?$AAd?$AAi?$AAo?$AA_?$AAo?$AAu?$AAt@ 400911b0     libucrtd:output.obj
 0002:00003368       ??_C@_1BLI@IKDKMDHI@?$AA_?$AA_?$AAc?$AAr?$AAt?$AA_?$AAs?$AAt?$AAd?$AAi?$AAo?$AA_?$AAo?$AAu?$AAt@ 40091368     libucrtd:output.obj
 0002:00003520       ??_C@_1BKA@DNADAJMC@?$AA_?$AA_?$AAc?$AAr?$AAt?$AA_?$AAs?$AAt?$AAd?$AAi?$AAo?$AA_?$AAo?$AAu?$AAt@ 40091520     libucrtd:output.obj
 0002:000036c0       ??_C@_1BNA@HGLCOOBP@?$AA_?$AA_?$AAc?$AAr?$AAt?$AA_?$AAs?$AAt?$AAd?$AAi?$AAo?$AA_?$AAo?$AAu?$AAt@ 400916c0     libucrtd:output.obj
 0002:00003890       ??_C@_1BLI@FOCNEPKJ@?$AA_?$AA_?$AAc?$AAr?$AAt?$AA_?$AAs?$AAt?$AAd?$AAi?$AAo?$AA_?$AAo?$AAu?$AAt@ 40091890     libucrtd:output.obj
 0002:00003a48       ??_C@_1BMK@CPBKHDIH@?$AA_?$AA_?$AAc?$AAr?$AAt?$AA_?$AAs?$AAt?$AAd?$AAi?$AAo?$AA_?$AAo?$AAu?$AAt@ 40091a48     libucrtd:output.obj
 0002:00003c18       ??_C@_1BLC@PMCLHHAE@?$AA_?$AA_?$AAc?$AAr?$AAt?$AA_?$AAs?$AAt?$AAd?$AAi?$AAo?$AA_?$AAo?$AAu?$AAt@ 40091c18     libucrtd:output.obj
 0002:00003dd0       ??_C@_1BLI@EEAAPJD@?$AA_?$AA_?$AAc?$AAr?$AAt?$AA_?$AAs?$AAt?$AAd?$AAi?$AAo?$AA_?$AAo?$AAu?$AAt@ 40091dd0     libucrtd:output.obj
 0002:00003f88       ??_C@_1BKA@IIAAOGBO@?$AA_?$AA_?$AAc?$AAr?$AAt?$AA_?$AAs?$AAt?$AAd?$AAi?$AAo?$AA_?$AAo?$AAu?$AAt@ 40091f88     libucrtd:output.obj
 0002:00004128       ??_C@_1FG@OBJBDPAC@?$AA?$CI?$AA?$CC?$AAN?$AA?5?$AAl?$AAe?$AAn?$AAg?$AAt?$AAh?$AA?5?$AAm?$AAo?$AAd?$AAi@ 40092128     libucrtd:output.obj
 0002:00004180       ??_C@_1BOA@BMEGDMHF@?$AA_?$AA_?$AAc?$AAr?$AAt?$AA_?$AAs?$AAt?$AAd?$AAi?$AAo?$AA_?$AAo?$AAu?$AAt@ 40092180     libucrtd:output.obj
 0002:00004360       ??_C@_1EC@GJPNJDCN@?$AA_?$AAl?$AAe?$AAn?$AAg?$AAt?$AAh?$AA?5?$AA?$DN?$AA?$DN?$AA?5?$AAl?$AAe?$AAn?$AAg@ 40092360     libucrtd:output.obj
 0002:000043a4       ??_C@_1DG@CEJKFDMO@?$AAs?$AAt?$AAa?$AAt?$AAe?$AA_?$AAc?$AAa?$AAs?$AAe?$AA_?$AAn?$AAo?$AAr?$AAm@ 400923a4     libucrtd:output.obj
 0002:000043e0       ??_C@_1BOE@IPKNNOEE@?$AA_?$AA_?$AAc?$AAr?$AAt?$AA_?$AAs?$AAt?$AAd?$AAi?$AAo?$AA_?$AAo?$AAu?$AAt@ 400923e0     libucrtd:output.obj
 0002:000045c8       ??_C@_1IC@NLEOMCDL@?$AA_?$AAt?$AAy?$AAp?$AAe?$AA_?$AAi?$AAn?$AAd?$AAe?$AAx?$AA?5?$AA?$DO?$AA?$DN?$AA?5@ 400925c8     libucrtd:output.obj
 0002:00004650       ??_C@_1BFK@KNCMELHH@?$AA_?$AA_?$AAc?$AAr?$AAt?$AA_?$AAs?$AAt?$AAd?$AAi?$AAo?$AA_?$AAo?$AAu?$AAt@ 40092650     libucrtd:output.obj
 0002:000047b0       ??_C@_1FK@BCPANIEK@?$AA?$CI?$AA?$CC?$AAM?$AAi?$AAs?$AAs?$AAi?$AAn?$AAg?$AA?5?$AAp?$AAo?$AAs?$AAi?$AAt@ 400927b0     libucrtd:output.obj
 0002:00004810       ??_C@_1BEI@IHLBHMLJ@?$AA_?$AA_?$AAc?$AAr?$AAt?$AA_?$AAs?$AAt?$AAd?$AAi?$AAo?$AA_?$AAo?$AAu?$AAt@ 40092810     libucrtd:output.obj
 0002:00004958       ??_C@_1BMI@LKDDDFDL@?$AA_?$AA_?$AAc?$AAr?$AAt?$AA_?$AAs?$AAt?$AAd?$AAi?$AAo?$AA_?$AAo?$AAu?$AAt@ 40092958     libucrtd:output.obj
 0002:00004b20       ??_C@_1BMM@JGEKEBKL@?$AA_?$AA_?$AAc?$AAr?$AAt?$AA_?$AAs?$AAt?$AAd?$AAi?$AAo?$AA_?$AAo?$AAu?$AAt@ 40092b20     libucrtd:output.obj
 0002:00004cf0       ??_C@_1BEO@ODGKIOAL@?$AA_?$AA_?$AAc?$AAr?$AAt?$AA_?$AAs?$AAt?$AAd?$AAi?$AAo?$AA_?$AAo?$AAu?$AAt@ 40092cf0     libucrtd:output.obj
 0002:00004e40       ??_C@_1BDM@GFCGMNL@?$AA_?$AA_?$AAc?$AAr?$AAt?$AA_?$AAs?$AAt?$AAd?$AAi?$AAo?$AA_?$AAo?$AAu?$AAt@ 40092e40     libucrtd:output.obj
 0002:00004f80       ??_C@_1BMI@KBPJOJJI@?$AA_?$AA_?$AAc?$AAr?$AAt?$AA_?$AAs?$AAt?$AAd?$AAi?$AAo?$AA_?$AAo?$AAu?$AAt@ 40092f80     libucrtd:output.obj
 0002:00005148       ??_C@_1BMM@PGHHMNDM@?$AA_?$AA_?$AAc?$AAr?$AAt?$AA_?$AAs?$AAt?$AAd?$AAi?$AAo?$AA_?$AAo?$AAu?$AAt@ 40093148     libucrtd:output.obj
 0002:00005314       ??_C@_1CI@DDKMNCPP@?$AA_?$AAc?$AAo?$AAn?$AAt?$AAe?$AAx?$AAt?$AA?5?$AA?$CB?$AA?$DN?$AA?5?$AAn?$AAu?$AAl@ 40093314     libucrtd:output.obj
 0002:00005340       ??_C@_1HK@IIPGOADH@?$AA_?$AA_?$AAc?$AAr?$AAt?$AA_?$AAs?$AAt?$AAd?$AAi?$AAo?$AA_?$AAo?$AAu?$AAt@ 40093340     libucrtd:output.obj
 0002:000053c0       ??_C@_1BLA@MEDMHIOH@?$AA_?$AA_?$AAc?$AAr?$AAt?$AA_?$AAs?$AAt?$AAd?$AAi?$AAo?$AA_?$AAo?$AAu?$AAt@ 400933c0     libucrtd:output.obj
 0002:00005570       ??_C@_1BLE@LCKPBJON@?$AA_?$AA_?$AAc?$AAr?$AAt?$AA_?$AAs?$AAt?$AAd?$AAi?$AAo?$AA_?$AAo?$AAu?$AAt@ 40093570     libucrtd:output.obj
 0002:00005728       ??_C@_1HE@IACOMEJF@?$AA_?$AA_?$AAc?$AAr?$AAt?$AA_?$AAs?$AAt?$AAd?$AAi?$AAo?$AA_?$AAo?$AAu?$AAt@ 40093728     libucrtd:output.obj
 0002:000057a0       ??_C@_1BOA@CBIEMBEE@?$AA_?$AA_?$AAc?$AAr?$AAt?$AA_?$AAs?$AAt?$AAd?$AAi?$AAo?$AA_?$AAo?$AAu?$AAt@ 400937a0     libucrtd:output.obj
 0002:00005980       ??_C@_1BOE@NLICFINO@?$AA_?$AA_?$AAc?$AAr?$AAt?$AA_?$AAs?$AAt?$AAd?$AAi?$AAo?$AA_?$AAo?$AAu?$AAt@ 40093980     libucrtd:output.obj
 0002:00005b68       ??_C@_1BFK@IOIDDMPJ@?$AA_?$AA_?$AAc?$AAr?$AAt?$AA_?$AAs?$AAt?$AAd?$AAi?$AAo?$AA_?$AAo?$AAu?$AAt@ 40093b68     libucrtd:output.obj
 0002:00005cc8       ??_C@_1BEI@JNJAFAD@?$AA_?$AA_?$AAc?$AAr?$AAt?$AA_?$AAs?$AAt?$AAd?$AAi?$AAo?$AA_?$AAo?$AAu?$AAt@ 40093cc8     libucrtd:output.obj
 0002:00005e10       ??_C@_1BMI@PKGBOKJK@?$AA_?$AA_?$AAc?$AAr?$AAt?$AA_?$AAs?$AAt?$AAd?$AAi?$AAo?$AA_?$AAo?$AAu?$AAt@ 40093e10     libucrtd:output.obj
 0002:00005fd8       ??_C@_1BMM@BLBJDDIA@?$AA_?$AA_?$AAc?$AAr?$AAt?$AA_?$AAs?$AAt?$AAd?$AAi?$AAo?$AA_?$AAo?$AAu?$AAt@ 40093fd8     libucrtd:output.obj
 0002:000061a8       ??_C@_1BEO@JEHLMMKB@?$AA_?$AA_?$AAc?$AAr?$AAt?$AA_?$AAs?$AAt?$AAd?$AAi?$AAo?$AA_?$AAo?$AAu?$AAt@ 400941a8     libucrtd:output.obj
 0002:000062f8       ??_C@_1BDM@FDOLKCHK@?$AA_?$AA_?$AAc?$AAr?$AAt?$AA_?$AAs?$AAt?$AAd?$AAi?$AAo?$AA_?$AAo?$AAu?$AAt@ 400942f8     libucrtd:output.obj
 0002:00006438       ??_C@_1BNK@ONPHCEAM@?$AA_?$AA_?$AAc?$AAr?$AAt?$AA_?$AAs?$AAt?$AAd?$AAi?$AAo?$AA_?$AAo?$AAu?$AAt@ 40094438     libucrtd:output.obj
 0002:00006618       ??_C@_1BNO@LMMLJOOJ@?$AA_?$AA_?$AAc?$AAr?$AAt?$AA_?$AAs?$AAt?$AAd?$AAi?$AAo?$AA_?$AAo?$AAu?$AAt@ 40094618     libucrtd:output.obj
 0002:000067f8       ??_C@_1GC@BNMHNGKM@?$AA_?$AAs?$AAt?$AAa?$AAt?$AAe?$AA?5?$AA?$DN?$AA?$DN?$AA?5?$AAs?$AAt?$AAa?$AAt?$AAe@ 400947f8     libucrtd:output.obj
 0002:00006860       ??_C@_1BEC@FNIGNBHI@?$AA_?$AA_?$AAc?$AAr?$AAt?$AA_?$AAs?$AAt?$AAd?$AAi?$AAo?$AA_?$AAo?$AAu?$AAt@ 40094860     libucrtd:output.obj
 0002:000069a8       ??_C@_1BMC@DAENMDAD@?$AA_?$AA_?$AAc?$AAr?$AAt?$AA_?$AAs?$AAt?$AAd?$AAi?$AAo?$AA_?$AAo?$AAu?$AAt@ 400949a8     libucrtd:output.obj
 0002:00006b70       ??_C@_1BMG@KOENKAMB@?$AA_?$AA_?$AAc?$AAr?$AAt?$AA_?$AAs?$AAt?$AAd?$AAi?$AAo?$AA_?$AAo?$AAu?$AAt@ 40094b70     libucrtd:output.obj
 0002:00006d38       ??_C@_1BDG@PLANJEFE@?$AA_?$AA_?$AAc?$AAr?$AAt?$AA_?$AAs?$AAt?$AAd?$AAi?$AAo?$AA_?$AAo?$AAu?$AAt@ 40094d38     libucrtd:output.obj
 0002:00006e70       ??_C@_1BMI@DNMDMAAN@?$AA_?$AA_?$AAc?$AAr?$AAt?$AA_?$AAs?$AAt?$AAd?$AAi?$AAo?$AA_?$AAo?$AAu?$AAt@ 40094e70     libucrtd:output.obj
 0002:00007038       ??_C@_1BMM@JHGFKAND@?$AA_?$AA_?$AAc?$AAr?$AAt?$AA_?$AAs?$AAt?$AAd?$AAi?$AAo?$AA_?$AAo?$AAu?$AAt@ 40095038     libucrtd:output.obj
 0002:00007204       ??_C@_1CA@ONEGMNAN@?$AA_?$AAs?$AAt?$AAr?$AAe?$AAa?$AAm?$AA?4?$AAv?$AAa?$AAl?$AAi?$AAd?$AA?$CI?$AA?$CJ@ 40095204     libucrtd:output.obj
 0002:00007228       ??_C@_1HK@MPBCDOK@?$AA_?$AA_?$AAc?$AAr?$AAt?$AA_?$AAs?$AAt?$AAd?$AAi?$AAo?$AA_?$AAo?$AAu?$AAt@ 40095228     libucrtd:output.obj
 0002:000072a8       ??_C@_1BLA@GJNGKGIK@?$AA_?$AA_?$AAc?$AAr?$AAt?$AA_?$AAs?$AAt?$AAd?$AAi?$AAo?$AA_?$AAo?$AAu?$AAt@ 400952a8     libucrtd:output.obj
 0002:00007458       ??_C@_1BLE@PAACOKDK@?$AA_?$AA_?$AAc?$AAr?$AAt?$AA_?$AAs?$AAt?$AAd?$AAi?$AAo?$AA_?$AAo?$AAu?$AAt@ 40095458     libucrtd:output.obj
 0002:00007610       ??_C@_1HE@FGKHNBNL@?$AA_?$AA_?$AAc?$AAr?$AAt?$AA_?$AAs?$AAt?$AAd?$AAi?$AAo?$AA_?$AAo?$AAu?$AAt@ 40095610     libucrtd:output.obj
 0002:00007688       ??_C@_1EK@PNGFDECN@?$AA?$CI?$AA?$CC?$AA?8?$AAn?$AA?8?$AA?5?$AAf?$AAo?$AAr?$AAm?$AAa?$AAt?$AA?5?$AAs?$AAp@ 40095688     libucrtd:output.obj
 0002:000076d8       ??_C@_1BNI@OPBGCNOB@?$AA_?$AA_?$AAc?$AAr?$AAt?$AA_?$AAs?$AAt?$AAd?$AAi?$AAo?$AA_?$AAo?$AAu?$AAt@ 400956d8     libucrtd:output.obj
 0002:000078b0       ??_C@_1EO@GHKFGFKL@?$AA?$CI?$AA?$CC?$AAI?$AAn?$AAv?$AAa?$AAl?$AAi?$AAd?$AA?5?$AAi?$AAn?$AAt?$AAe?$AAg@ 400958b0     libucrtd:output.obj
 0002:00007900       ??_C@_1JC@PMCLKCOC@?$AAp?$AAr?$AAe?$AAc?$AAi?$AAs?$AAi?$AAo?$AAn?$AA_?$AAi?$AAn?$AAd?$AAe?$AAx@ 40095900     libucrtd:output.obj
 0002:00007998       ??_C@_1BAG@GKCGGKOF@?$AA_?$AA_?$AAc?$AAr?$AAt?$AA_?$AAs?$AAt?$AAd?$AAi?$AAo?$AA_?$AAo?$AAu?$AAt@ 40095998     libucrtd:output.obj
 0002:00007aa0       ??_C@_1IC@KGDNLBNC@?$AAw?$AAi?$AAd?$AAt?$AAh?$AA_?$AAi?$AAn?$AAd?$AAe?$AAx?$AA?5?$AA?$DO?$AA?$DN?$AA?5@ 40095aa0     libucrtd:output.obj
 0002:00007b28       ??_C@_1BAK@CDLANFGA@?$AA_?$AA_?$AAc?$AAr?$AAt?$AA_?$AAs?$AAt?$AAd?$AAi?$AAo?$AA_?$AAo?$AAu?$AAt@ 40095b28     libucrtd:output.obj
 0002:00007c38       ??_C@_1BEC@NDOOKIMC@?$AA_?$AA_?$AAc?$AAr?$AAt?$AA_?$AAs?$AAt?$AAd?$AAi?$AAo?$AA_?$AAo?$AAu?$AAt@ 40095c38     libucrtd:output.obj
 0002:00007d80       ??_C@_1BMA@CBPCAOAB@?$AA_?$AA_?$AAc?$AAr?$AAt?$AA_?$AAs?$AAt?$AAd?$AAi?$AAo?$AA_?$AAo?$AAu?$AAt@ 40095d80     libucrtd:output.obj
 0002:00007f40       ??_C@_1PK@KBJLALII@?$AA_?$AA_?$AAc?$AAr?$AAt?$AA_?$AAs?$AAt?$AAd?$AAi?$AAo?$AA_?$AAo?$AAu?$AAt@ 40095f40     libucrtd:output.obj
 0002:00008040       ??_C@_1PO@PODEJAGE@?$AA_?$AA_?$AAc?$AAr?$AAt?$AA_?$AAs?$AAt?$AAd?$AAi?$AAo?$AA_?$AAo?$AAu?$AAt@ 40096040     libucrtd:output.obj
 0002:00008140       ??_C@_1BDG@KOLEFKPF@?$AA_?$AA_?$AAc?$AAr?$AAt?$AA_?$AAs?$AAt?$AAd?$AAi?$AAo?$AA_?$AAo?$AAu?$AAt@ 40096140     libucrtd:output.obj
 0002:00008278       ??_C@_1BMA@IHIBOLMD@?$AA_?$AA_?$AAc?$AAr?$AAt?$AA_?$AAs?$AAt?$AAd?$AAi?$AAo?$AA_?$AAo?$AAu?$AAt@ 40096278     libucrtd:output.obj
 0002:00008438       ??_C@_1BKI@CJEIGDAI@?$AA_?$AA_?$AAc?$AAr?$AAt?$AA_?$AAs?$AAt?$AAd?$AAi?$AAo?$AA_?$AAo?$AAu?$AAt@ 40096438     libucrtd:output.obj
 0002:000085e0       ??_C@_1BNI@IMOCDBNE@?$AA_?$AA_?$AAc?$AAr?$AAt?$AA_?$AAs?$AAt?$AAd?$AAi?$AAo?$AA_?$AAo?$AAu?$AAt@ 400965e0     libucrtd:output.obj
 0002:000087b8       ??_C@_1BAG@DOFNHDMF@?$AA_?$AA_?$AAc?$AAr?$AAt?$AA_?$AAs?$AAt?$AAd?$AAi?$AAo?$AA_?$AAo?$AAu?$AAt@ 400967b8     libucrtd:output.obj
 0002:000088c0       ??_C@_1BAK@DALINHHB@?$AA_?$AA_?$AAc?$AAr?$AAt?$AA_?$AAs?$AAt?$AAd?$AAi?$AAo?$AA_?$AAo?$AAu?$AAt@ 400968c0     libucrtd:output.obj
 0002:000089d0       ??_C@_1BMA@GACGPGHN@?$AA_?$AA_?$AAc?$AAr?$AAt?$AA_?$AAs?$AAt?$AAd?$AAi?$AAo?$AA_?$AAo?$AAu?$AAt@ 400969d0     libucrtd:output.obj
 0002:00008b90       ??_C@_1PK@KBJECIEM@?$AA_?$AA_?$AAc?$AAr?$AAt?$AA_?$AAs?$AAt?$AAd?$AAi?$AAo?$AA_?$AAo?$AAu?$AAt@ 40096b90     libucrtd:output.obj
 0002:00008c90       ??_C@_1PO@LKIIANED@?$AA_?$AA_?$AAc?$AAr?$AAt?$AA_?$AAs?$AAt?$AAd?$AAi?$AAo?$AA_?$AAo?$AAu?$AAt@ 40096c90     libucrtd:output.obj
 0002:00008d90       ??_C@_1BNC@DONELHFF@?$AA_?$AA_?$AAc?$AAr?$AAt?$AA_?$AAs?$AAt?$AAd?$AAi?$AAo?$AA_?$AAo?$AAu?$AAt@ 40096d90     libucrtd:output.obj
 0002:00008f68       ??_C@_1BLK@BGFMMAPO@?$AA_?$AA_?$AAc?$AAr?$AAt?$AA_?$AAs?$AAt?$AAd?$AAi?$AAo?$AA_?$AAo?$AAu?$AAt@ 40096f68     libucrtd:output.obj
 0002:00009128       ??_C@_1BMA@PGOJAHFP@?$AA_?$AA_?$AAc?$AAr?$AAt?$AA_?$AAs?$AAt?$AAd?$AAi?$AAo?$AA_?$AAo?$AAu?$AAt@ 40097128     libucrtd:output.obj
 0002:000092e8       ??_C@_1BKI@NDKBCDGP@?$AA_?$AA_?$AAc?$AAr?$AAt?$AA_?$AAs?$AAt?$AAd?$AAi?$AAo?$AA_?$AAo?$AAu?$AAt@ 400972e8     libucrtd:output.obj
 0002:00009490       ??_C@_1O@CEDCILHN@?$AA?$CI?$AAn?$AAu?$AAl?$AAl?$AA?$CJ@ 40097490     libucrtd:output.obj
 0002:000094a0       ??_C@_06OJHGLDPL@?$CInull?$CJ@ 400974a0     libucrtd:output.obj
 0002:000094a8       ??_C@_1LO@HECDHMMI@?$AAi?$AAs?$AA_?$AAp?$AAo?$AAs?$AAi?$AAt?$AAi?$AAo?$AAn?$AAa?$AAl?$AA_?$AAp@ 400974a8     libucrtd:output.obj
 0002:00009568       ??_C@_1BCI@OBMMNJKK@?$AA_?$AA_?$AAc?$AAr?$AAt?$AA_?$AAs?$AAt?$AAd?$AAi?$AAo?$AA_?$AAo?$AAu?$AAt@ 40097568     libucrtd:output.obj
 0002:00009690       ??_C@_1FE@IAFJEKN@?$AA_?$AAt?$AAy?$AAp?$AAe?$AA_?$AAi?$AAn?$AAd?$AAe?$AAx?$AA?5?$AA?$DO?$AA?$DN?$AA?5@ 40097690     libucrtd:output.obj
 0002:000096e8       ??_C@_1BCC@GJLKCHIG@?$AA_?$AA_?$AAc?$AAr?$AAt?$AA_?$AAs?$AAt?$AAd?$AAi?$AAo?$AA_?$AAo?$AAu?$AAt@ 400976e8     libucrtd:output.obj
 0002:0000980c       ??_C@_1CK@LGDCECDH@?$AA_?$AAf?$AAo?$AAr?$AAm?$AAa?$AAt?$AA_?$AAc?$AAh?$AAa?$AAr?$AA?5?$AA?$CB?$AA?$DN@ 4009780c     libucrtd:output.obj
 0002:00009838       ??_C@_1BNI@EDCGAPJB@?$AA_?$AA_?$AAc?$AAr?$AAt?$AA_?$AAs?$AAt?$AAd?$AAi?$AAo?$AA_?$AAo?$AAu?$AAt@ 40097838     libucrtd:output.obj
 0002:00009a10       ??_C@_1BBM@CBBAFMPJ@?$AA_?$AA_?$AAc?$AAr?$AAt?$AA_?$AAs?$AAt?$AAd?$AAi?$AAo?$AA_?$AAo?$AAu?$AAt@ 40097a10     libucrtd:output.obj
 0002:00009b30       ??_C@_1BBG@KIHCHFIM@?$AA_?$AA_?$AAc?$AAr?$AAt?$AA_?$AAs?$AAt?$AAd?$AAi?$AAo?$AA_?$AAo?$AAu?$AAt@ 40097b30     libucrtd:output.obj
 0002:00009c48       ??_C@_1BMA@FANDDEHK@?$AA_?$AA_?$AAc?$AAr?$AAt?$AA_?$AAs?$AAt?$AAd?$AAi?$AAo?$AA_?$AAo?$AAu?$AAt@ 40097c48     libucrtd:output.obj
 0002:00009e08       ??_C@_1BCI@ILAANKJG@?$AA_?$AA_?$AAc?$AAr?$AAt?$AA_?$AAs?$AAt?$AAd?$AAi?$AAo?$AA_?$AAo?$AAu?$AAt@ 40097e08     libucrtd:output.obj
 0002:00009f30       ??_C@_1BCC@PDNLFIHK@?$AA_?$AA_?$AAc?$AAr?$AAt?$AA_?$AAs?$AAt?$AAd?$AAi?$AAo?$AA_?$AAo?$AAu?$AAt@ 40097f30     libucrtd:output.obj
 0002:0000a058       ??_C@_1BNI@EJPCEBAG@?$AA_?$AA_?$AAc?$AAr?$AAt?$AA_?$AAs?$AAt?$AAd?$AAi?$AAo?$AA_?$AAo?$AAu?$AAt@ 40098058     libucrtd:output.obj
 0002:0000a230       ??_C@_1BBM@LLHBCDAF@?$AA_?$AA_?$AAc?$AAr?$AAt?$AA_?$AAs?$AAt?$AAd?$AAi?$AAo?$AA_?$AAo?$AAu?$AAt@ 40098230     libucrtd:output.obj
 0002:0000a350       ??_C@_1BBG@JLLDGFML@?$AA_?$AA_?$AAc?$AAr?$AAt?$AA_?$AAs?$AAt?$AAd?$AAi?$AAo?$AA_?$AAo?$AAu?$AAt@ 40098350     libucrtd:output.obj
 0002:0000a468       ??_C@_1BNC@BAMNIOCM@?$AA_?$AA_?$AAc?$AAr?$AAt?$AA_?$AAs?$AAt?$AAd?$AAi?$AAo?$AA_?$AAo?$AAu?$AAt@ 40098468     libucrtd:output.obj
 0002:0000a640       ??_C@_1BMA@MEBEEDJE@?$AA_?$AA_?$AAc?$AAr?$AAt?$AA_?$AAs?$AAt?$AAd?$AAi?$AAo?$AA_?$AAo?$AAu?$AAt@ 40098640     libucrtd:output.obj
 0002:0000a800       ??_C@_1BCA@HCPCJFGA@?$AA_?$AA_?$AAc?$AAr?$AAt?$AA_?$AAs?$AAt?$AAd?$AAi?$AAo?$AA_?$AAo?$AAu?$AAt@ 40098800     libucrtd:output.obj
 0002:0000a920       ??_C@_1BOE@LIBLDKPN@?$AA_?$AA_?$AAc?$AAr?$AAt?$AA_?$AAs?$AAt?$AAd?$AAi?$AAo?$AA_?$AAo?$AAu?$AAt@ 40098920     libucrtd:output.obj
 0002:0000ab04       ??_C@_0DI@KIFBHMNO@minkernel?2crts?2ucrt?2inc?2corecrt@ 40098b04     libucrtd:output.obj
 0002:0000ab40       ??_C@_1BBE@IBPNPIIM@?$AA_?$AA_?$AAc?$AAr?$AAt?$AA_?$AAs?$AAt?$AAd?$AAi?$AAo?$AA_?$AAo?$AAu?$AAt@ 40098b40     libucrtd:output.obj
 0002:0000ac58       ??_C@_1BMM@KBPMKFBC@?$AA_?$AA_?$AAc?$AAr?$AAt?$AA_?$AAs?$AAt?$AAd?$AAi?$AAo?$AA_?$AAo?$AAu?$AAt@ 40098c58     libucrtd:output.obj
 0002:0000ae28       ??_C@_1BMM@MBMBCJIF@?$AA_?$AA_?$AAc?$AAr?$AAt?$AA_?$AAs?$AAt?$AAd?$AAi?$AAo?$AA_?$AAo?$AAu?$AAt@ 40098e28     libucrtd:output.obj
 0002:0000aff8       ??_C@_1BLE@IFBJPNFE@?$AA_?$AA_?$AAc?$AAr?$AAt?$AA_?$AAs?$AAt?$AAd?$AAi?$AAo?$AA_?$AAo?$AAu?$AAt@ 40098ff8     libucrtd:output.obj
 0002:0000b1b0       ??_C@_1BCA@FCGNBIN@?$AA_?$AA_?$AAc?$AAr?$AAt?$AA_?$AAs?$AAt?$AAd?$AAi?$AAo?$AA_?$AAo?$AAu?$AAt@ 400991b0     libucrtd:output.obj
 0002:0000b2d0       ??_C@_1BOE@OMDELMGH@?$AA_?$AA_?$AAc?$AAr?$AAt?$AA_?$AAs?$AAt?$AAd?$AAi?$AAo?$AA_?$AAo?$AAu?$AAt@ 400992d0     libucrtd:output.obj
 0002:0000b4b8       ??_C@_1BBE@FLKADCDA@?$AA_?$AA_?$AAc?$AAr?$AAt?$AA_?$AAs?$AAt?$AAd?$AAi?$AAo?$AA_?$AAo?$AAu?$AAt@ 400994b8     libucrtd:output.obj
 0002:0000b5d0       ??_C@_1BMM@CMKPNHDJ@?$AA_?$AA_?$AAc?$AAr?$AAt?$AA_?$AAs?$AAt?$AAd?$AAi?$AAo?$AA_?$AAo?$AAu?$AAt@ 400995d0     libucrtd:output.obj
 0002:0000b7a0       ??_C@_1BNO@ILHNHKFA@?$AA_?$AA_?$AAc?$AAr?$AAt?$AA_?$AAs?$AAt?$AAd?$AAi?$AAo?$AA_?$AAo?$AAu?$AAt@ 400997a0     libucrtd:output.obj
 0002:0000b980       ??_C@_1BMG@JJPLEEHI@?$AA_?$AA_?$AAc?$AAr?$AAt?$AA_?$AAs?$AAt?$AAd?$AAi?$AAo?$AA_?$AAo?$AAu?$AAt@ 40099980     libucrtd:output.obj
 0002:0000bb48       ??_C@_1BMM@KANDEEGK@?$AA_?$AA_?$AAc?$AAr?$AAt?$AA_?$AAs?$AAt?$AAd?$AAi?$AAo?$AA_?$AAo?$AAu?$AAt@ 40099b48     libucrtd:output.obj
 0002:0000bd18       ??_C@_1BLE@MHLEAOID@?$AA_?$AA_?$AAc?$AAr?$AAt?$AA_?$AAs?$AAt?$AAd?$AAi?$AAo?$AA_?$AAo?$AAu?$AAt@ 40099d18     libucrtd:output.obj
 0002:0000bed0       ??_C@_1BMK@JGIBNIA@?$AA_?$AA_?$AAc?$AAr?$AAt?$AA_?$AAs?$AAt?$AAd?$AAi?$AAo?$AA_?$AAo?$AAu?$AAt@ 40099ed0     libucrtd:output.obj
 0002:0000c0a0       ??_C@_1BLC@INKIGOCN@?$AA_?$AA_?$AAc?$AAr?$AAt?$AA_?$AAs?$AAt?$AAd?$AAi?$AAo?$AA_?$AAo?$AAu?$AAt@ 4009a0a0     libucrtd:output.obj
 0002:0000c258       ??_C@_1BNK@KHNJGCCP@?$AA_?$AA_?$AAc?$AAr?$AAt?$AA_?$AAs?$AAt?$AAd?$AAi?$AAo?$AA_?$AAo?$AAu?$AAt@ 4009a258     libucrtd:output.obj
 0002:0000c438       ??_C@_1BNO@OHFFMOOJ@?$AA_?$AA_?$AAc?$AAr?$AAt?$AA_?$AAs?$AAt?$AAd?$AAi?$AAo?$AA_?$AAo?$AAu?$AAt@ 4009a438     libucrtd:output.obj
 0002:0000c618       ??_C@_1BMC@FAGJFBLI@?$AA_?$AA_?$AAc?$AAr?$AAt?$AA_?$AAs?$AAt?$AAd?$AAi?$AAo?$AA_?$AAo?$AAu?$AAt@ 4009a618     libucrtd:output.obj
 0002:0000c7e0       ??_C@_1BMG@CGPDIFDK@?$AA_?$AA_?$AAc?$AAr?$AAt?$AA_?$AAs?$AAt?$AAd?$AAi?$AAo?$AA_?$AAo?$AAu?$AAt@ 4009a7e0     libucrtd:output.obj
 0002:0000c9a8       ??_C@_1BNC@OHPDPPJK@?$AA_?$AA_?$AAc?$AAr?$AAt?$AA_?$AAs?$AAt?$AAd?$AAi?$AAo?$AA_?$AAo?$AAu?$AAt@ 4009a9a8     libucrtd:output.obj
 0002:0000cb80       ??_C@_1BLK@FOLFMPJH@?$AA_?$AA_?$AAc?$AAr?$AAt?$AA_?$AAs?$AAt?$AAd?$AAi?$AAo?$AA_?$AAo?$AAu?$AAt@ 4009ab80     libucrtd:output.obj
 0002:0000cd40       ??_C@_1BNC@JPKLPOHO@?$AA_?$AA_?$AAc?$AAr?$AAt?$AA_?$AAs?$AAt?$AAd?$AAi?$AAo?$AA_?$AAo?$AAu?$AAt@ 4009ad40     libucrtd:output.obj
 0002:0000cf18       ??_C@_1EO@MLJCKPIB@?$AAb?$AAa?$AAs?$AAe?$AA?5?$AA?$DN?$AA?$DN?$AA?5?$AA0?$AA?5?$AA?$HM?$AA?$HM?$AA?5?$AA?$CI?$AA2@ 4009af18     libucrtd:output.obj
 0002:0000cf68       ??_C@_1DI@BANODKFL@?$AA_?$AA_?$AAc?$AAr?$AAt?$AA_?$AAs?$AAt?$AAr?$AAt?$AAo?$AAx?$AA?3?$AA?3?$AAp@ 4009af68     libucrtd:output.obj
 0002:0000cfa0       ??_C@_1BNO@NAODCKFA@?$AA_?$AA_?$AAc?$AAr?$AAt?$AA_?$AAs?$AAt?$AAd?$AAi?$AAo?$AA_?$AAo?$AAu?$AAt@ 4009afa0     libucrtd:output.obj
 0002:0000d180       ??_C@_1BMG@BBEFGBID@?$AA_?$AA_?$AAc?$AAr?$AAt?$AA_?$AAs?$AAt?$AAd?$AAi?$AAo?$AA_?$AAo?$AAu?$AAt@ 4009b180     libucrtd:output.obj
 0002:0000d348       ??_C@_1CM@GJENOOEJ@?$AAc?$AA?5?$AA?$DN?$AA?$DN?$AA?5?$AA?8?$AA?2?$AA0?$AA?8?$AA?5?$AA?$HM?$AA?$HM?$AA?5?$AA?$CK?$AA_@ 4009b348     libucrtd:output.obj
 0002:0000d378       ??_C@_1GK@MNHIDABG@?$AA_?$AA_?$AAc?$AAr?$AAt?$AA_?$AAs?$AAt?$AAr?$AAt?$AAo?$AAx?$AA?3?$AA?3?$AAc@ 4009b378     libucrtd:output.obj
 0002:0000d3e4       ??_C@_1BM@PNEBBBDO@?$AA_?$AAp?$AA?5?$AA?$CB?$AA?$DN?$AA?5?$AAn?$AAu?$AAl?$AAl?$AAp?$AAt?$AAr@ 4009b3e4     libucrtd:output.obj
 0002:0000d400       ??_C@_1HA@MKKIHBHP@?$AA_?$AA_?$AAc?$AAr?$AAt?$AA_?$AAs?$AAt?$AAr?$AAt?$AAo?$AAx?$AA?3?$AA?3?$AAc@ 4009b400     libucrtd:output.obj
 0002:0000d470       ??_C@_1HA@CONLANFI@?$AA_?$AA_?$AAc?$AAr?$AAt?$AA_?$AAs?$AAt?$AAr?$AAt?$AAo?$AAx?$AA?3?$AA?3?$AAc@ 4009b470     libucrtd:output.obj
 0002:0000d4e0       ??_C@_1HG@FCDBLOEG@?$AA_?$AA_?$AAc?$AAr?$AAt?$AA_?$AAs?$AAt?$AAr?$AAt?$AAo?$AAx?$AA?3?$AA?3?$AAc@ 4009b4e0     libucrtd:output.obj
 0002:0000d558       ___acrt_exception_action_table 4009b558     libucrtd:exception_filter.obj
 0002:0000d5e8       ___acrt_signal_action_table_count 4009b5e8     libucrtd:exception_filter.obj
 0002:0000d5ec       ___acrt_signal_action_table_size 4009b5ec     libucrtd:exception_filter.obj
 0002:0000d5f0       ___acrt_signal_action_first_fpe_index 4009b5f0     libucrtd:exception_filter.obj
 0002:0000d5f4       ___acrt_signal_action_fpe_count 4009b5f4     libucrtd:exception_filter.obj
 0002:0000d5f8       ??_C@_1BI@BGOHAHKC@?$AAm?$AAs?$AAc?$AAo?$AAr?$AAe?$AAe?$AA?4?$AAd?$AAl?$AAl@ 4009b5f8     libucrtd:exit.obj
 0002:0000d610       ??_C@_0P@MIGLKIOC@CorExitProcess@ 4009b610     libucrtd:exit.obj
 0002:0000d620       ??_C@_0DI@KNDIGDEP@minkernel?2crts?2ucrt?2src?2appcrt?2@ 4009b620     libucrtd:argv_parsing.obj
 0002:0000d658       ??_C@_1JO@PGBIJBAM@?$AAm?$AAo?$AAd?$AAe?$AA?5?$AA?$DN?$AA?$DN?$AA?5?$AA_?$AAc?$AAr?$AAt?$AA_?$AAa?$AAr@ 4009b658     libucrtd:argv_parsing.obj
 0002:0000d6f8       ??_C@_1HA@JMLCANEE@?$AAm?$AAi?$AAn?$AAk?$AAe?$AAr?$AAn?$AAe?$AAl?$AA?2?$AAc?$AAr?$AAt?$AAs?$AA?2@ 4009b6f8     libucrtd:argv_parsing.obj
 0002:0000d768       ??_C@_1CM@LHOJELIC@?$AAc?$AAo?$AAm?$AAm?$AAo?$AAn?$AA_?$AAc?$AAo?$AAn?$AAf?$AAi?$AAg?$AAu?$AAr@ 4009b768     libucrtd:argv_parsing.obj
 0002:0000d798       ??_C@_0EG@LEHKHOEH@minkernel?2crts?2ucrt?2src?2desktop@ 4009b798     libucrtd:environment_initialization.obj
 0002:0000d7e0       ??_C@_1IM@IMOFFPLG@?$AAm?$AAi?$AAn?$AAk?$AAe?$AAr?$AAn?$AAe?$AAl?$AA?2?$AAc?$AAr?$AAt?$AAs?$AA?2@ 4009b7e0     libucrtd:environment_initialization.obj
 0002:0000d86c       ??_C@_1CG@MNNNBNAK@?$AAc?$AAr?$AAe?$AAa?$AAt?$AAe?$AA_?$AAe?$AAn?$AAv?$AAi?$AAr?$AAo?$AAn?$AAm@ 4009b86c     libucrtd:environment_initialization.obj
 0002:0000d898       ??_C@_1HI@OOPIFFGA@?$AAt?$AAr?$AAa?$AAi?$AAt?$AAs?$AA?3?$AA?3?$AAt?$AAc?$AAs?$AAc?$AAp?$AAy?$AA_@ 4009b898     libucrtd:environment_initialization.obj
 0002:0000d910       ??_C@_0DC@NBHMIIKL@minkernel?2crts?2ucrt?2src?2appcrt?2@ 4009b910     libucrtd:onexit.obj
 0002:0000d9c8       ??_C@_1GE@IHIGNC@?$AA?$CI?$AA?$CI?$AAr?$AAe?$AAs?$AAu?$AAl?$AAt?$AA_?$AAb?$AAu?$AAf?$AAf?$AAe?$AAr@ 4009b9c8     libucrtd:makepath.obj
 0002:0000da30       ??_C@_1GO@CPMBDHKK@?$AAm?$AAi?$AAn?$AAk?$AAe?$AAr?$AAn?$AAe?$AAl?$AA?2?$AAc?$AAr?$AAt?$AAs?$AA?2@ 4009ba30     libucrtd:makepath.obj
 0002:0000daa0       ??_C@_1CE@GNNMAAIL@?$AAc?$AAo?$AAm?$AAm?$AAo?$AAn?$AA_?$AAm?$AAa?$AAk?$AAe?$AAp?$AAa?$AAt?$AAh@ 4009baa0     libucrtd:makepath.obj
 0002:0000dac4       ??_C@_1CI@KGHCCPCN@?$AAc?$AAl?$AAe?$AAa?$AAn?$AAu?$AAp?$AA_?$AAa?$AAf?$AAt?$AAe?$AAr?$AA_?$AAe@ 4009bac4     libucrtd:makepath.obj
 0002:0000daec       ??_C@_1M@HLGKFCJM@?$AAf?$AAa?$AAl?$AAs?$AAe@ 4009baec     libucrtd:splitpath.obj
 0002:0000daf8       ??_C@_1HA@BEJINBHO@?$AAm?$AAi?$AAn?$AAk?$AAe?$AAr?$AAn?$AAe?$AAl?$AA?2?$AAc?$AAr?$AAt?$AAs?$AA?2@ 4009baf8     libucrtd:splitpath.obj
 0002:0000db68       ??_C@_1DE@EEECINKG@?$AAc?$AAo?$AAm?$AAm?$AAo?$AAn?$AA_?$AAs?$AAp?$AAl?$AAi?$AAt?$AAp?$AAa?$AAt@ 4009bb68     libucrtd:splitpath.obj
 0002:0000dbb0       ??_C@_04HJMOFLDF@Free@     4009bbb0     libucrtd:debug_heap.obj
 0002:0000dbb8       ??_C@_06EFAGIKOH@Normal@   4009bbb8     libucrtd:debug_heap.obj
 0002:0000dbc0       ??_C@_03OGPFLFLO@CRT@      4009bbc0     libucrtd:debug_heap.obj
 0002:0000dbc4       ??_C@_06KMEJCCGM@Ignore@   4009bbc4     libucrtd:debug_heap.obj
 0002:0000dbcc       ??_C@_06PJIGMIJB@Client@   4009bbcc     libucrtd:debug_heap.obj
 0002:0000dbd4       ??_C@_1CE@LJFEPPMP@?$AA_?$AAC?$AAr?$AAt?$AAC?$AAh?$AAe?$AAc?$AAk?$AAM?$AAe?$AAm?$AAo?$AAr?$AAy@ 4009bbd4     libucrtd:debug_heap.obj
 0002:0000dbf8       ??_C@_1GG@OCLHPJPK@?$AAm?$AAi?$AAn?$AAk?$AAe?$AAr?$AAn?$AAe?$AAl?$AA?2?$AAc?$AAr?$AAt?$AAs?$AA?2@ 4009bbf8     libucrtd:debug_heap.obj
 0002:0000dc60       ??_C@_0DF@BBEGIFEK@Client?5hook?5allocation?5failure?5@ 4009bc60     libucrtd:debug_heap.obj
 0002:0000dc98       ??_C@_0CB@CCLOLAHO@Client?5hook?5allocation?5failure?4@ 4009bc98     libucrtd:debug_heap.obj
 0002:0000dcbc       ??_C@_0DC@JEMAGEKG@Error?3?5memory?5allocation?3?5bad?5m@ 4009bcbc     libucrtd:debug_heap.obj
 0002:0000dcf0       ??_C@_0DI@KKJPDPGM@Client?5hook?5re?9allocation?5failu@ 4009bcf0     libucrtd:debug_heap.obj
 0002:0000dd28       ??_C@_0CE@DOFMDOL@Client?5hook?5re?9allocation?5failu@ 4009bd28     libucrtd:debug_heap.obj
 0002:0000dd50       ??_C@_0FA@EFEIGJKG@Error?3?5memory?5allocation?3?5bad?5m@ 4009bd50     libucrtd:debug_heap.obj
 0002:0000dda0       ??_C@_0EM@LGFLMAGJ@The?5Block?5at?50x?$CFp?5was?5allocated@ 4009bda0     libucrtd:debug_heap.obj
 0002:0000ddec       ??_C@_1DM@DEDLGNML@?$AA_?$AAC?$AAr?$AAt?$AAI?$AAs?$AAV?$AAa?$AAl?$AAi?$AAd?$AAH?$AAe?$AAa?$AAp@ 4009bdec     libucrtd:debug_heap.obj
 0002:0000de28       ??_C@_1PC@MCGKJLN@?$AAo?$AAl?$AAd?$AA_?$AAh?$AAe?$AAa?$AAd?$AA?9?$AA?$DO?$AA_?$AAl?$AAi?$AAn?$AAe@ 4009be28     libucrtd:debug_heap.obj
 0002:0000df1c       ??_C@_0DA@HFBKENN@Error?3?5possible?5heap?5corruption@ 4009bf1c     libucrtd:debug_heap.obj
 0002:0000df50       ??_C@_1JM@MCMEPJEP@?$AAr?$AAe?$AAa?$AAl?$AAl?$AAo?$AAc?$AAa?$AAt?$AAi?$AAo?$AAn?$AA_?$AAi?$AAs@ 4009bf50     libucrtd:debug_heap.obj
 0002:0000dfec       ??_C@_1DM@LNOPKAIJ@?$AA_?$AA_?$AAa?$AAc?$AAr?$AAt?$AA_?$AAl?$AAa?$AAs?$AAt?$AA_?$AAb?$AAl?$AAo@ 4009bfec     libucrtd:debug_heap.obj
 0002:0000e028       ??_C@_1DO@HABCJBHO@?$AA_?$AA_?$AAa?$AAc?$AAr?$AAt?$AA_?$AAf?$AAi?$AAr?$AAs?$AAt?$AA_?$AAb?$AAl@ 4009c028     libucrtd:debug_heap.obj
 0002:0000e068       ??_C@_1CC@CKEAHJPH@?$AAb?$AAl?$AAo?$AAc?$AAk?$AA?5?$AA?$CB?$AA?$DN?$AA?5?$AAn?$AAu?$AAl?$AAl?$AAp?$AAt@ 4009c068     libucrtd:debug_heap.obj
 0002:0000e08c       ??_C@_1BI@HAPNGHDP@?$AA_?$AAe?$AAx?$AAp?$AAa?$AAn?$AAd?$AA_?$AAd?$AAb?$AAg@ 4009c08c     libucrtd:debug_heap.obj
 0002:0000e0a8       ??_C@_0EJ@HEIBCIMJ@The?5Block?5at?50x?$CFp?5was?5allocated@ 4009c0a8     libucrtd:debug_heap.obj
 0002:0000e0f4       ??_C@_0BL@KEIPLFAC@Client?5hook?5free?5failure?4?6@ 4009c0f4     libucrtd:debug_heap.obj
 0002:0000e110       ??_C@_1FA@KDNEBILF@?$AAi?$AAs?$AA_?$AAb?$AAl?$AAo?$AAc?$AAk?$AA_?$AAt?$AAy?$AAp?$AAe?$AA_?$AAv@ 4009c110     libucrtd:debug_heap.obj
 0002:0000e160       ??_C@_0KI@JGFOHMEB@HEAP?5CORRUPTION?5DETECTED?3?5befor@ 4009c160     libucrtd:debug_heap.obj
 0002:0000e208       ??_C@_0IK@PJCGLBOB@HEAP?5CORRUPTION?5DETECTED?3?5befor@ 4009c208     libucrtd:debug_heap.obj
 0002:0000e298       ??_C@_0KE@MBMNHHHN@HEAP?5CORRUPTION?5DETECTED?3?5after@ 4009c298     libucrtd:debug_heap.obj
 0002:0000e340       ??_C@_0IG@LEMBDCJK@HEAP?5CORRUPTION?5DETECTED?3?5after@ 4009c340     libucrtd:debug_heap.obj
 0002:0000e3c8       ??_C@_1OK@GFEOEJAF@?$AAh?$AAe?$AAa?$AAd?$AAe?$AAr?$AA?9?$AA?$DO?$AA_?$AAl?$AAi?$AAn?$AAe?$AA_?$AAn@ 4009c3c8     libucrtd:debug_heap.obj
 0002:0000e4b8       ??_C@_1ME@GFALMLNA@?$AAh?$AAe?$AAa?$AAd?$AAe?$AAr?$AA?9?$AA?$DO?$AA_?$AAb?$AAl?$AAo?$AAc?$AAk?$AA_@ 4009c4b8     libucrtd:debug_heap.obj
 0002:0000e57c       ??_C@_1DI@ILNOPEPI@?$AA_?$AA_?$AAa?$AAc?$AAr?$AAt?$AA_?$AAl?$AAa?$AAs?$AAt?$AA_?$AAb?$AAl?$AAo@ 4009c57c     libucrtd:debug_heap.obj
 0002:0000e5b4       ??_C@_1DK@KEHFGDIJ@?$AA_?$AA_?$AAa?$AAc?$AAr?$AAt?$AA_?$AAf?$AAi?$AAr?$AAs?$AAt?$AA_?$AAb?$AAl@ 4009c5b4     libucrtd:debug_heap.obj
 0002:0000e5f0       ??_C@_1BG@MBKOGDLD@?$AA_?$AAm?$AAs?$AAi?$AAz?$AAe?$AA_?$AAd?$AAb?$AAg@ 4009c5f0     libucrtd:debug_heap.obj
 0002:0000e608       ??_C@_07OHKEFPKJ@DAMAGED@  4009c608     libucrtd:debug_heap.obj
 0002:0000e610       ??_C@_0KA@IHNJJKPL@HEAP?5CORRUPTION?5DETECTED?3?5on?5to@ 4009c610     libucrtd:debug_heap.obj
 0002:0000e6b0       ??_C@_0IC@BBJIOOJH@HEAP?5CORRUPTION?5DETECTED?3?5on?5to@ 4009c6b0     libucrtd:debug_heap.obj
 0002:0000e738       ??_C@_0EG@DGJMPDBH@?$CFhs?5located?5at?50x?$CFp?5is?5?$CFIu?5byte@ 4009c738     libucrtd:debug_heap.obj
 0002:0000e780       ??_C@_0CI@JMLBEDHJ@?$CFhs?5located?5at?50x?$CFp?5is?5?$CFIu?5byte@ 4009c780     libucrtd:debug_heap.obj
 0002:0000e7a8       ??_C@_0EG@GPFHANHO@Cycle?5in?5block?5list?5detected?5wh@ 4009c7a8     libucrtd:debug_heap.obj
 0002:0000e7f0       ??_C@_0BJ@ELMAOCAJ@Heap?5validation?5failed?4?6@ 4009c7f0     libucrtd:debug_heap.obj
 0002:0000e810       ??_C@_1IE@BBIFDGEB@?$AAn?$AAe?$AAw?$AA_?$AAb?$AAi?$AAt?$AAs?$AA?5?$AA?$DN?$AA?$DN?$AA?5?$AA_?$AAC?$AAR@ 4009c810     libucrtd:debug_heap.obj
 0002:0000e894       ??_C@_1BO@GJFDNMNF@?$AA_?$AAC?$AAr?$AAt?$AAS?$AAe?$AAt?$AAD?$AAb?$AAg?$AAF?$AAl?$AAa?$AAg@ 4009c894     libucrtd:debug_heap.obj
 0002:0000e8b4       ??_C@_1CI@CEIBPAIA@?$AAc?$AAa?$AAl?$AAl?$AAb?$AAa?$AAc?$AAk?$AA?5?$AA?$CB?$AA?$DN?$AA?5?$AAn?$AAu?$AAl@ 4009c8b4     libucrtd:debug_heap.obj
 0002:0000e8dc       ??_C@_1DE@GJCKCKEC@?$AA_?$AAC?$AAr?$AAt?$AAD?$AAo?$AAF?$AAo?$AAr?$AAA?$AAl?$AAl?$AAC?$AAl?$AAi@ 4009c8dc     libucrtd:debug_heap.obj
 0002:0000e910       ??_C@_1CC@BBKMONGA@?$AAs?$AAt?$AAa?$AAt?$AAe?$AA?5?$AA?$CB?$AA?$DN?$AA?5?$AAn?$AAu?$AAl?$AAl?$AAp?$AAt@ 4009c910     libucrtd:debug_heap.obj
 0002:0000e934       ??_C@_1CE@NJJKELF@?$AA_?$AAC?$AAr?$AAt?$AAM?$AAe?$AAm?$AAC?$AAh?$AAe?$AAc?$AAk?$AAp?$AAo?$AAi@ 4009c934     libucrtd:debug_heap.obj
 0002:0000e958       ??_C@_0DP@LEFMFBOD@Bad?5memory?5block?5found?5at?50x?$CFp?4@ 4009c958     libucrtd:debug_heap.obj
 0002:0000e998       ??_C@_0CB@EAAIGELO@Bad?5memory?5block?5found?5at?50x?$CFp?4@ 4009c998     libucrtd:debug_heap.obj
 0002:0000e9bc       ??_C@_1CE@PDIENACM@?$AA_?$AAC?$AAr?$AAt?$AAM?$AAe?$AAm?$AAD?$AAi?$AAf?$AAf?$AAe?$AAr?$AAe?$AAn@ 4009c9bc     libucrtd:debug_heap.obj
 0002:0000e9e0       ??_C@_1CK@FFKLBHMD@?$AAo?$AAl?$AAd?$AA_?$AAs?$AAt?$AAa?$AAt?$AAe?$AA?5?$AA?$CB?$AA?$DN?$AA?5?$AAn?$AAu@ 4009c9e0     libucrtd:debug_heap.obj
 0002:0000ea0c       ??_C@_1CK@NJPPHDJP@?$AAn?$AAe?$AAw?$AA_?$AAs?$AAt?$AAa?$AAt?$AAe?$AA?5?$AA?$CB?$AA?$DN?$AA?5?$AAn?$AAu@ 4009ca0c     libucrtd:debug_heap.obj
 0002:0000ea38       ??_C@_1CC@DIJAHFFJ@?$AAp?$AAr?$AAi?$AAn?$AAt?$AA_?$AAb?$AAl?$AAo?$AAc?$AAk?$AA_?$AAd?$AAa?$AAt@ 4009ca38     libucrtd:debug_heap.obj
 0002:0000ea5c       ??_C@_0BA@HJBKCELP@?5Data?3?5?$DM?$CFs?$DO?5?$CFs?6@ 4009ca5c     libucrtd:debug_heap.obj
 0002:0000ea6c       ??_C@_0BE@KCIPKCIA@Dumping?5objects?5?9?$DO?6@ 4009ca6c     libucrtd:debug_heap.obj
 0002:0000ea80       ??_C@_0BE@OIEFNFL@?$CDFile?5Error?$CD?$CI?$CFd?$CJ?5?3?5@ 4009ca80     libucrtd:debug_heap.obj
 0002:0000ea94       ??_C@_0L@JMEFFCCJ@?$CFhs?$CI?$CFd?$CJ?5?3?5@ 4009ca94     libucrtd:debug_heap.obj
 0002:0000eaa0       ??_C@_06PKLGBFGM@?$HL?$CFld?$HN?5@ 4009caa0     libucrtd:debug_heap.obj
 0002:0000eaa8       ??_C@_0DD@GHNAAKBB@client?5block?5at?50x?$CFp?0?5subtype?5?$CF@ 4009caa8     libucrtd:debug_heap.obj
 0002:0000eadc       ??_C@_0CH@FAGDDGPN@normal?5block?5at?50x?$CFp?0?5?$CFIu?5bytes@ 4009cadc     libucrtd:debug_heap.obj
 0002:0000eb04       ??_C@_0DA@MDLBNIBM@crt?5block?5at?50x?$CFp?0?5subtype?5?$CFx?0?5@ 4009cb04     libucrtd:debug_heap.obj
 0002:0000eb34       ??_C@_0BH@GFGKJDCO@Object?5dump?5complete?4?6@ 4009cb34     libucrtd:debug_heap.obj
 0002:0000eb4c       ??_C@_0BI@JBFPOEJA@Detected?5memory?5leaks?$CB?6@ 4009cb4c     libucrtd:debug_heap.obj
 0002:0000eb64       ??_C@_1CM@MPNIBKGK@?$AA_?$AAC?$AAr?$AAt?$AAM?$AAe?$AAm?$AAD?$AAu?$AAm?$AAp?$AAS?$AAt?$AAa?$AAt@ 4009cb64     libucrtd:debug_heap.obj
 0002:0000eb90       ??_C@_0BO@DACNIABB@?$CFId?5bytes?5in?5?$CFId?5?$CFhs?5Blocks?4?6@ 4009cb90     libucrtd:debug_heap.obj
 0002:0000ebb0       ??_C@_0CB@BLHDAFNE@Largest?5number?5used?3?5?$CFId?5bytes?4@ 4009cbb0     libucrtd:debug_heap.obj
 0002:0000ebd4       ??_C@_0BP@DEDHGGGI@Total?5allocations?3?5?$CFId?5bytes?4?6@ 4009cbd4     libucrtd:debug_heap.obj
 0002:0000ebf4       ??_C@_1CM@JKMDHENJ@?$AAI?$AAS?$AA_?$AA2?$AA_?$AAP?$AAO?$AAW?$AA_?$AAN?$AA?$CI?$AAa?$AAl?$AAi?$AAg@ 4009cbf4     libucrtd:debug_heap.obj
 0002:0000ec20       ??_C@_1DG@DONCJBBJ@?$AA_?$AAa?$AAl?$AAi?$AAg?$AAn?$AAe?$AAd?$AA_?$AAo?$AAf?$AAf?$AAs?$AAe?$AAt@ 4009cc20     libucrtd:debug_heap.obj
 0002:0000ec58       ??_C@_1DK@LFLKFPDA@?$AAo?$AAf?$AAf?$AAs?$AAe?$AAt?$AA?5?$AA?$DN?$AA?$DN?$AA?5?$AA0?$AA?5?$AA?$HM?$AA?$HM?$AA?5@ 4009cc58     libucrtd:debug_heap.obj
 0002:0000ec98       ??_C@_0EI@NDNJMAJK@The?5block?5at?50x?$CFp?5was?5not?5alloc@ 4009cc98     libucrtd:debug_heap.obj
 0002:0000ece0       ??_C@_0DL@PGHMMKNE@Damage?5before?50x?$CFp?5which?5was?5al@ 4009cce0     libucrtd:debug_heap.obj
 0002:0000ed1c       ??_C@_1DI@NINIKFFK@?$AA_?$AAa?$AAl?$AAi?$AAg?$AAn?$AAe?$AAd?$AA_?$AAo?$AAf?$AAf?$AAs?$AAe?$AAt@ 4009cd1c     libucrtd:debug_heap.obj
 0002:0000ed54       ??_C@_1CG@CEGMHIMN@?$AA_?$AAa?$AAl?$AAi?$AAg?$AAn?$AAe?$AAd?$AA_?$AAm?$AAs?$AAi?$AAz?$AAe?$AA_@ 4009cd54     libucrtd:debug_heap.obj
 0002:0000ed80       ??_C@_0EF@PGELACII@The?5block?5at?50x?$CFp?5was?5not?5alloc@ 4009cd80     libucrtd:debug_heap.obj
 0002:0000edc8       ??_C@_1DA@LLLMNMKI@?$AAa?$AAb?$AAo?$AAr?$AAt?$AA?$CI?$AA?$CJ?$AA?5?$AAh?$AAa?$AAs?$AA?5?$AAb?$AAe?$AAe@ 4009cdc8     libucrtd:abort.obj
 0002:0000edf8       ??_C@_1FA@IFFFOLDJ@?$AAn?$AAR?$AAp?$AAt?$AAT?$AAy?$AAp?$AAe?$AA?5?$AA?$DO?$AA?$DN?$AA?5?$AA0?$AA?5?$AA?$CG@ 4009cdf8     libucrtd:dbgrptt.obj
 0002:0000ee48       ??_C@_1GA@LFAOKOOP@?$AAm?$AAi?$AAn?$AAk?$AAe?$AAr?$AAn?$AAe?$AAl?$AA?2?$AAc?$AAr?$AAt?$AAs?$AA?2@ 4009ce48     libucrtd:dbgrptt.obj
 0002:0000eea8       ??_C@_1CE@FIHIECNJ@?$AA_?$AAC?$AAr?$AAt?$AAS?$AAe?$AAt?$AAR?$AAe?$AAp?$AAo?$AAr?$AAt?$AAM?$AAo@ 4009cea8     libucrtd:dbgrptt.obj
 0002:0000eed0       ??_C@_1NK@LOFHIHFC@?$AAf?$AAM?$AAo?$AAd?$AAe?$AA?5?$AA?$DN?$AA?$DN?$AA?5?$AA_?$AAC?$AAR?$AAT?$AAD?$AAB@ 4009ced0     libucrtd:dbgrptt.obj
 0002:0000efac       ??_C@_1CE@IKKEDCME@?$AA_?$AAC?$AAr?$AAt?$AAS?$AAe?$AAt?$AAR?$AAe?$AAp?$AAo?$AAr?$AAt?$AAF?$AAi@ 4009cfac     libucrtd:dbgrptt.obj
 0002:0000efd0       ??_C@_1CA@KHJHLKA@?$AA_?$AAV?$AAC?$AAr?$AAt?$AAD?$AAb?$AAg?$AAR?$AAe?$AAp?$AAo?$AAr?$AAt?$AAA@ 4009cfd0     libucrtd:dbgrptt.obj
 0002:0000eff0       ??_C@_1FA@JPHJBHEM@?$AA_?$AAi?$AAt?$AAo?$AAa?$AA_?$AAs?$AA?$CI?$AAn?$AAL?$AAi?$AAn?$AAe?$AA?0?$AA?5@ 4009cff0     libucrtd:dbgrptt.obj
 0002:0000f040       ??_C@_0CG@BNGLOCEO@Second?5Chance?5Assertion?5Failed?3@ 4009d040     libucrtd:dbgrptt.obj
 0002:0000f068       ??_C@_0P@DFJNDPOP@?$DMfile?5unknown?$DO@ 4009d068     libucrtd:dbgrptt.obj
 0002:0000f078       ??_C@_07BHGABMGB@?0?5Line?5@ 4009d078     libucrtd:dbgrptt.obj
 0002:0000f080       ??_C@_1JI@GAALPGBM@?$AAs?$AAt?$AAr?$AAc?$AAp?$AAy?$AA_?$AAs?$AA?$CI?$AAs?$AAz?$AAU?$AAs?$AAe?$AAr@ 4009d080     libucrtd:dbgrptt.obj
 0002:0000f118       ??_C@_0CL@EACFGMNB@_CrtDbgReport?3?5String?5too?5long?5@ 4009d118     libucrtd:dbgrptt.obj
 0002:0000f148       ??_C@_1KK@GIGAEDMO@?$AAs?$AAt?$AAr?$AAc?$AAp?$AAy?$AA_?$AAs?$AA?$CI?$AAs?$AAz?$AAL?$AAi?$AAn?$AAe@ 4009d148     libucrtd:dbgrptt.obj
 0002:0000f1f4       ??_C@_0BD@CAENFOHP@Assertion?5failed?3?5@ 4009d1f4     libucrtd:dbgrptt.obj
 0002:0000f208       ??_C@_0BC@LAIDCHCH@Assertion?5failed?$CB@ 4009d208     libucrtd:dbgrptt.obj
 0002:0000f220       ??_C@_1FK@NPGBPOFO@?$AAs?$AAt?$AAr?$AAc?$AAa?$AAt?$AA_?$AAs?$AA?$CI?$AAs?$AAz?$AAL?$AAi?$AAn?$AAe@ 4009d220     libucrtd:dbgrptt.obj
 0002:0000f280       ??_C@_1EI@CACDLAFK@?$AAs?$AAt?$AAr?$AAc?$AAa?$AAt?$AA_?$AAs?$AA?$CI?$AAs?$AAz?$AAL?$AAi?$AAn?$AAe@ 4009d280     libucrtd:dbgrptt.obj
 0002:0000f2c8       ??_C@_01LIIJDEN@?$AN@      4009d2c8     libucrtd:dbgrptt.obj
 0002:0000f2d0       ??_C@_1EI@LDHJEDO@?$AAs?$AAt?$AAr?$AAc?$AAa?$AAt?$AA_?$AAs?$AA?$CI?$AAs?$AAz?$AAL?$AAi?$AAn?$AAe@ 4009d2d0     libucrtd:dbgrptt.obj
 0002:0000f318       ??_C@_0M@IPILFDFN@?$CFs?$CI?$CFd?$CJ?5?3?5?$CFs@ 4009d318     libucrtd:dbgrptt.obj
 0002:0000f328       ??_C@_1JG@CPKCIOEE@?$AAs?$AAt?$AAr?$AAc?$AAp?$AAy?$AA_?$AAs?$AA?$CI?$AAs?$AAz?$AAO?$AAu?$AAt?$AAM@ 4009d328     libucrtd:dbgrptt.obj
 0002:0000f3c0       ??_C@_1FI@IBIOIHEG@?$AAs?$AAt?$AAr?$AAc?$AAp?$AAy?$AA_?$AAs?$AA?$CI?$AAs?$AAz?$AAO?$AAu?$AAt?$AAM@ 4009d3c0     libucrtd:dbgrptt.obj
 0002:0000f418       ??_C@_1IM@OOKIFKOH@?$AAe?$AA?5?$AA?$DN?$AA?5?$AAm?$AAb?$AAs?$AAt?$AAo?$AAw?$AAc?$AAs?$AA_?$AAs?$AA?$CI@ 4009d418     libucrtd:dbgrptt.obj
 0002:0000f4a8       ??_C@_1MC@IGEECMDB@?$AAw?$AAc?$AAs?$AAc?$AAp?$AAy?$AA_?$AAs?$AA?$CI?$AAs?$AAz?$AAO?$AAu?$AAt?$AAM@ 4009d4a8     libucrtd:dbgrptt.obj
 0002:0000f570       ??_C@_1HO@PJOFIKFE@?$AA_?$AAC?$AAr?$AAt?$AAD?$AAb?$AAg?$AAR?$AAe?$AAp?$AAo?$AAr?$AAt?$AA?3?$AA?5@ 4009d570     libucrtd:dbgrptt.obj
 0002:0000f5f0       ??_C@_1CA@HPALHDOD@?$AA_?$AAV?$AAC?$AAr?$AAt?$AAD?$AAb?$AAg?$AAR?$AAe?$AAp?$AAo?$AAr?$AAt?$AAW@ 4009d5f0     libucrtd:dbgrptt.obj
 0002:0000f610       ??_C@_1FA@CNLLOMHI@?$AA_?$AAi?$AAt?$AAo?$AAw?$AA_?$AAs?$AA?$CI?$AAn?$AAL?$AAi?$AAn?$AAe?$AA?0?$AA?5@ 4009d610     libucrtd:dbgrptt.obj
 0002:0000f660       ??_C@_1EM@MJFLEDMB@?$AAS?$AAe?$AAc?$AAo?$AAn?$AAd?$AA?5?$AAC?$AAh?$AAa?$AAn?$AAc?$AAe?$AA?5?$AAA@ 4009d660     libucrtd:dbgrptt.obj
 0002:0000f6ac       ??_C@_1BO@OCHMLCAG@?$AA?$DM?$AAf?$AAi?$AAl?$AAe?$AA?5?$AAu?$AAn?$AAk?$AAn?$AAo?$AAw?$AAn?$AA?$DO@ 4009d6ac     libucrtd:dbgrptt.obj
 0002:0000f6cc       ??_C@_1BA@ELMMDCFC@?$AA?0?$AA?5?$AAL?$AAi?$AAn?$AAe?$AA?5@ 4009d6cc     libucrtd:dbgrptt.obj
 0002:0000f6dc       ??_C@_13LBAGMAIH@?$AA?6@   4009d6dc     libucrtd:dbgrptt.obj
 0002:0000f6e0       ??_C@_1JK@KHFABAEO@?$AAw?$AAc?$AAs?$AAc?$AAp?$AAy?$AA_?$AAs?$AA?$CI?$AAs?$AAz?$AAU?$AAs?$AAe?$AAr@ 4009d6e0     libucrtd:dbgrptt.obj
 0002:0000f780       ??_C@_1KO@DGAHENCH@?$AAw?$AAc?$AAs?$AAc?$AAp?$AAy?$AA_?$AAs?$AA?$CI?$AAs?$AAz?$AAL?$AAi?$AAn?$AAe@ 4009d780     libucrtd:dbgrptt.obj
 0002:0000f830       ??_C@_1CG@FFFGGODN@?$AAA?$AAs?$AAs?$AAe?$AAr?$AAt?$AAi?$AAo?$AAn?$AA?5?$AAf?$AAa?$AAi?$AAl?$AAe@ 4009d830     libucrtd:dbgrptt.obj
 0002:0000f858       ??_C@_1CE@OJBNHDMO@?$AAA?$AAs?$AAs?$AAe?$AAr?$AAt?$AAi?$AAo?$AAn?$AA?5?$AAf?$AAa?$AAi?$AAl?$AAe@ 4009d858     libucrtd:dbgrptt.obj
 0002:0000f880       ??_C@_1FK@HPADHBBD@?$AAw?$AAc?$AAs?$AAc?$AAa?$AAt?$AA_?$AAs?$AA?$CI?$AAs?$AAz?$AAL?$AAi?$AAn?$AAe@ 4009d880     libucrtd:dbgrptt.obj
 0002:0000f8e0       ??_C@_1EK@NMDFGHMF@?$AAw?$AAc?$AAs?$AAc?$AAa?$AAt?$AA_?$AAs?$AA?$CI?$AAs?$AAz?$AAL?$AAi?$AAn?$AAe@ 4009d8e0     libucrtd:dbgrptt.obj
 0002:0000f92c       ??_C@_13CMNBPIDO@?$AA?$AN@ 4009d92c     libucrtd:dbgrptt.obj
 0002:0000f930       ??_C@_1EK@PHCBEDKB@?$AAw?$AAc?$AAs?$AAc?$AAa?$AAt?$AA_?$AAs?$AA?$CI?$AAs?$AAz?$AAL?$AAi?$AAn?$AAe@ 4009d930     libucrtd:dbgrptt.obj
 0002:0000f97c       ??_C@_1BM@GIBPMLNL@?$AA?$CF?$AAl?$AAs?$AA?$CI?$AA?$CF?$AAd?$AA?$CJ?$AA?5?$AA?3?$AA?5?$AA?$CF?$AAl?$AAs@ 4009d97c     libucrtd:dbgrptt.obj
 0002:0000f998       ??_C@_1JI@EACPGHID@?$AAw?$AAc?$AAs?$AAc?$AAp?$AAy?$AA_?$AAs?$AA?$CI?$AAs?$AAz?$AAO?$AAu?$AAt?$AAM@ 4009d998     libucrtd:dbgrptt.obj
 0002:0000fa30       ??_C@_1FI@DBAIJPJE@?$AAw?$AAc?$AAs?$AAc?$AAp?$AAy?$AA_?$AAs?$AA?$CI?$AAs?$AAz?$AAO?$AAu?$AAt?$AAM@ 4009da30     libucrtd:dbgrptt.obj
 0002:0000fa88       ??_C@_1IK@LEBMBAP@?$AAw?$AAc?$AAs?$AAt?$AAo?$AAm?$AAb?$AAs?$AA_?$AAs?$AA?$CI?$AAn?$AAu?$AAl?$AAl@ 4009da88     libucrtd:dbgrptt.obj
